 Octopus

 Timestamp is 563b83a6 (Thu Nov 05 11:28:22 2015)

 Preferred load address is 00400000

 Start         Length     Name                   Class
 0001:00000000 000933c1H .text                   CODE
 0001:000933d0 00002f40H .text$x                 CODE
 0001:00096310 00001b11H .text$yc                CODE
 0001:00097e30 000010ceH .text$yd                CODE
 0002:00000000 00000104H .CRT$XCA                DATA
 0002:00000104 00000104H .CRT$XCAA               DATA
 0002:00000208 0000010eH .CRT$XCC                DATA
 0002:00000318 00000186H .CRT$XCL                DATA
 0002:000004a0 0000011cH .CRT$XCU                DATA
 0002:000005bc 00000104H .CRT$XCZ                DATA
 0002:000006c0 00000104H .CRT$XIA                DATA
 0002:000007c4 00000104H .CRT$XIAA               DATA
 0002:000008c8 00000104H .CRT$XIC                DATA
 0002:000009cc 00000104H .CRT$XIY                DATA
 0002:00000ad0 00000104H .CRT$XIZ                DATA
 0002:00000be0 0002af6aH .rdata                  DATA
 0002:0002bb4c 00000173H .rdata$debug            DATA
 0002:0002bcc0 00000e34H .rdata$r                DATA
 0002:0002cb00 00000306H .rdata$sxdata           DATA
 0002:0002ce08 00000104H .rtc$IAA                DATA
 0002:0002cf0c 00000104H .rtc$IZZ                DATA
 0002:0002d010 00000104H .rtc$TAA                DATA
 0002:0002d114 00000104H .rtc$TZZ                DATA
 0002:0002d218 00001f69H .xdata$x                DATA
 0002:0002f184 00000104H ATL$__a                 DATA
 0002:0002f288 00000104H ATL$__z                 DATA
 0002:0002f38c 00000000H .edata                  DATA
 0003:00000000 00001057H .data                   DATA
 0003:00001060 00003288H .bss                    DATA
 0004:00000000 000000b4H .idata$2                DATA
 0004:000000b4 00000014H .idata$3                DATA
 0004:000000c8 00000ca8H .idata$4                DATA
 0004:00000d70 00000ca8H .idata$5                DATA
 0004:00001a18 00000c55H .idata$6                DATA
 0005:00000000 000009d9H .rsrc$01                DATA
 0005:000009e0 00005a49H .rsrc$02                DATA

  Address         Publics by Value              Rva+Base       Lib:Object

 0000:00000000       __except_list              00000000     <absolute>
 0000:0000006c       ___safe_se_handler_count   0000006c     <absolute>
 0000:00009876       __ldused                   00009876     <absolute>
 0000:00009876       __fltused                  00009876     <absolute>
 0000:00000000       ___ImageBase               00400000     <linker-defined>
 0001:000015f0       ?_AfxInitManaged@@YAHXZ    004025f0 f i APTMotor.obj
 0001:00001600       ?CreateObject@CMgmotorctrl1@@SGPAVCObject@@XZ 00402600 f   APTMotor.obj
 0001:00001680       ?_GetBaseClass@CMgmotorctrl1@@KGPAUCRuntimeClass@@XZ 00402680 f   APTMotor.obj
 0001:00001690       ?GetThisClass@CMgmotorctrl1@@SGPAUCRuntimeClass@@XZ 00402690 f   APTMotor.obj
 0001:000016a0       ?GetRuntimeClass@CMgmotorctrl1@@UBEPAUCRuntimeClass@@XZ 004026a0 f   APTMotor.obj
 0001:000016e0       ??0CMgmotorctrl1@@QAE@XZ   004026e0 f i APTMotor.obj
 0001:00001710       ?Create@CMgmotorctrl1@@UAEHPBD0KABUtagRECT@@PAVCWnd@@IPAUCCreateContext@@@Z 00402710 f i APTMotor.obj
 0001:00001760       ?GetClsid@CMgmotorctrl1@@QAEABU_GUID@@XZ 00402760 f i APTMotor.obj
 0001:00001780       ??_GCMgmotorctrl1@@UAEPAXI@Z 00402780 f i APTMotor.obj
 0001:00001780       ??_ECMgmotorctrl1@@UAEPAXI@Z 00402780 f i APTMotor.obj
 0001:000017c0       ??1CMgmotorctrl1@@UAE@XZ   004027c0 f i APTMotor.obj
 0001:000017e0       ??0Thank_you@Define_the_symbol__ATL_MIXED@@QAE@XZ 004027e0 f i APTMotor.obj
 0001:00001800       ?one@Thank_you@Define_the_symbol__ATL_MIXED@@UAEXXZ 00402800 f i APTMotor.obj
 0001:00001810       ?CreateObject@APT_system@@SGPAVCObject@@XZ 00402810 f   APTSystem.obj
 0001:00001880       ?_GetBaseClass@APT_system@@KGPAUCRuntimeClass@@XZ 00402880 f   APTSystem.obj
 0001:00001890       ?GetThisClass@APT_system@@SGPAUCRuntimeClass@@XZ 00402890 f   APTSystem.obj
 0001:000018a0       ?GetRuntimeClass@APT_system@@UBEPAUCRuntimeClass@@XZ 004028a0 f   APTSystem.obj
 0001:000018e0       ??0APT_system@@QAE@XZ      004028e0 f i APTSystem.obj
 0001:00001910       ?Create@APT_system@@UAEHPBD0KABUtagRECT@@PAVCWnd@@IPAUCCreateContext@@@Z 00402910 f i APTSystem.obj
 0001:00001960       ?GetClsid@APT_system@@QAEABU_GUID@@XZ 00402960 f i APTSystem.obj
 0001:00001980       ??_GAPT_system@@UAEPAXI@Z  00402980 f i APTSystem.obj
 0001:00001980       ??_EAPT_system@@UAEPAXI@Z  00402980 f i APTSystem.obj
 0001:000019c0       ??1APT_system@@UAE@XZ      004029c0 f i APTSystem.obj
 0001:000019e0       ??0CPort@@QAE@XZ           004029e0 f   cport.obj
 0001:00001a10       ??1CPort@@QAE@XZ           00402a10 f   cport.obj
 0001:00001a40       ?OpenCPort@CPort@@QAE_NXZ  00402a40 f   cport.obj
 0001:00001c40       ?CloseCPort@CPort@@QAE_NXZ 00402c40 f   cport.obj
 0001:00001c90       ?WriteCPort@CPort@@QAE_NXZ 00402c90 f   cport.obj
 0001:00001d70       ?WriteCPortOneByte@CPort@@QAE_NXZ 00402d70 f   cport.obj
 0001:00001e40       ?CheckWrite@CPort@@QAE_NXZ 00402e40 f   cport.obj
 0001:00001eb0       ?ReadCPort@CPort@@QAE_NXZ  00402eb0 f   cport.obj
 0001:00001fc0       ?ReadCPortOneByte@CPort@@QAE_NXZ 00402fc0 f   cport.obj
 0001:00002090       ?CheckRead@CPort@@QAE_NXZ  00403090 f   cport.obj
 0001:000022c0       ?_GetBaseClass@DisplayDialog@@KGPAUCRuntimeClass@@XZ 004032c0 f   DisplayDialog.obj
 0001:000022d0       ?GetThisClass@DisplayDialog@@SGPAUCRuntimeClass@@XZ 004032d0 f   DisplayDialog.obj
 0001:000022e0       ?GetRuntimeClass@DisplayDialog@@UBEPAUCRuntimeClass@@XZ 004032e0 f   DisplayDialog.obj
 0001:000022f0       ??0DisplayDialog@@QAE@PAVCWnd@@@Z 004032f0 f   DisplayDialog.obj
 0001:00002320       ??1DisplayDialog@@UAE@XZ   00403320 f   DisplayDialog.obj
 0001:00002340       ?DoDataExchange@DisplayDialog@@MAEXPAVCDataExchange@@@Z 00403340 f   DisplayDialog.obj
 0001:00002360       ?GetMessageMap@DisplayDialog@@MBEPBUAFX_MSGMAP@@XZ 00403360 f   DisplayDialog.obj
 0001:00002370       ?GetThisMessageMap@DisplayDialog@@KGPBUAFX_MSGMAP@@XZ 00403370 f   DisplayDialog.obj
 0001:000023b0       ??_GDisplayDialog@@UAEPAXI@Z 004033b0 f i DisplayDialog.obj
 0001:000023b0       ??_EDisplayDialog@@UAEPAXI@Z 004033b0 f i DisplayDialog.obj
 0001:000023f0       ?CreateObject@CMainFrame@@SGPAVCObject@@XZ 004033f0 f   MainFrm.obj
 0001:00002470       ?_GetBaseClass@CMainFrame@@KGPAUCRuntimeClass@@XZ 00403470 f   MainFrm.obj
 0001:00002480       ?GetThisClass@CMainFrame@@SGPAUCRuntimeClass@@XZ 00403480 f   MainFrm.obj
 0001:00002490       ?GetRuntimeClass@CMainFrame@@UBEPAUCRuntimeClass@@XZ 00403490 f   MainFrm.obj
 0001:000024a0       ??0CMainFrame@@IAE@XZ      004034a0 f   MainFrm.obj
 0001:000024c0       ??1CMainFrame@@UAE@XZ      004034c0 f   MainFrm.obj
 0001:000024e0       ?PreCreateWindow@CMainFrame@@UAEHAAUtagCREATESTRUCTA@@@Z 004034e0 f   MainFrm.obj
 0001:00002580       ??_ECMainFrame@@UAEPAXI@Z  00403580 f i MainFrm.obj
 0001:00002580       ??_GCMainFrame@@UAEPAXI@Z  00403580 f i MainFrm.obj
 0001:000025c0       ??0COctopusApp@@QAE@XZ     004035c0 f   Octopus.obj
 0001:000025f0       ?InitInstance@COctopusApp@@UAEHXZ 004035f0 f   Octopus.obj
 0001:00002720       ?ExitInstance@COctopusApp@@UAEHXZ 00403720 f   Octopus.obj
 0001:00002790       ?SupportsRestartManager@CWinApp@@UBEHXZ 00403790 f i Octopus.obj
 0001:000027b0       ?SupportsApplicationRecovery@CWinApp@@UBEHXZ 004037b0 f i Octopus.obj
 0001:000027d0       ?SupportsAutosaveAtRestart@CWinApp@@UBEHXZ 004037d0 f i Octopus.obj
 0001:000027f0       ?SupportsAutosaveAtInterval@CWinApp@@UBEHXZ 004037f0 f i Octopus.obj
 0001:00002810       ?ReopenPreviousFilesAtRestart@CWinApp@@UBEHXZ 00403810 f i Octopus.obj
 0001:00002830       ?RestoreAutosavedFilesAtRestart@CWinApp@@UBEHXZ 00403830 f i Octopus.obj
 0001:00002850       ?GetApplicationRestartFlags@CWinApp@@UAEKXZ 00403850 f i Octopus.obj
 0001:00002860       ?GetApplicationRecoveryParameter@CWinApp@@UAEPAXXZ 00403860 f i Octopus.obj
 0001:00002870       ?GetApplicationRecoveryPingInterval@CWinApp@@UAEKXZ 00403870 f i Octopus.obj
 0001:00002890       ??_GCOctopusApp@@UAEPAXI@Z 00403890 f i Octopus.obj
 0001:00002890       ??_ECOctopusApp@@UAEPAXI@Z 00403890 f i Octopus.obj
 0001:000028d0       ??1COctopusApp@@UAE@XZ     004038d0 f i Octopus.obj
 0001:000028f0       ??0COctopusXCite@@QAE@PAVCWnd@@@Z 004038f0 f   OctopusXCite.obj
 0001:00002a80       ?OnInitDialog@COctopusXCite@@MAEHXZ 00403a80 f   OctopusXCite.obj
 0001:00002ab0       ?OnTimer@COctopusXCite@@QAEXI@Z 00403ab0 f   OctopusXCite.obj
 0001:00002b20       ?Init@COctopusXCite@@IAE_NXZ 00403b20 f   OctopusXCite.obj
 0001:00003300       ?DoDataExchange@COctopusXCite@@MAEXPAVCDataExchange@@@Z 00404300 f   OctopusXCite.obj
 0001:000033e0       ?GetMessageMap@COctopusXCite@@MBEPBUAFX_MSGMAP@@XZ 004043e0 f   OctopusXCite.obj
 0001:000033f0       ?GetThisMessageMap@COctopusXCite@@KGPBUAFX_MSGMAP@@XZ 004043f0 f   OctopusXCite.obj
 0001:00003400       ?Close@COctopusXCite@@QAEXXZ 00404400 f   OctopusXCite.obj
 0001:00003490       ??1COctopusXCite@@UAE@XZ   00404490 f   OctopusXCite.obj
 0001:00003550       ?Z_StepDown@COctopusXCite@@QAEXXZ 00404550 f   OctopusXCite.obj
 0001:00003620       ?Z_StepUp@COctopusXCite@@QAEXXZ 00404620 f   OctopusXCite.obj
 0001:000036f0       ?ObjESC@COctopusXCite@@QAEXXZ 004046f0 f   OctopusXCite.obj
 0001:00003830       ?ObjRTN@COctopusXCite@@QAEXXZ 00404830 f   OctopusXCite.obj
 0001:00003930       ?OnObjectiveStepSize1@COctopusXCite@@QAEXXZ 00404930 f   OctopusXCite.obj
 0001:00003970       ?OnObjectiveStepSize2@COctopusXCite@@QAEXXZ 00404970 f   OctopusXCite.obj
 0001:000039b0       ?OnObjectiveStepSize3@COctopusXCite@@QAEXXZ 004049b0 f   OctopusXCite.obj
 0001:000039f0       ?OnObjectiveStepSize4@COctopusXCite@@QAEXXZ 004049f0 f   OctopusXCite.obj
 0001:00003a30       ?GetPosition@COctopusXCite@@QAEXXZ 00404a30 f   OctopusXCite.obj
 0001:00003c20       ?DisplayPosition@COctopusXCite@@IAEXXZ 00404c20 f   OctopusXCite.obj
 0001:00003cd0       ?OnObj_1@COctopusXCite@@QAEXXZ 00404cd0 f   OctopusXCite.obj
 0001:00003d00       ?OnObj_2@COctopusXCite@@QAEXXZ 00404d00 f   OctopusXCite.obj
 0001:00003d30       ?OnObj_3@COctopusXCite@@QAEXXZ 00404d30 f   OctopusXCite.obj
 0001:00003d60       ?OnObj_4@COctopusXCite@@QAEXXZ 00404d60 f   OctopusXCite.obj
 0001:00003d90       ?OnObj_5@COctopusXCite@@QAEXXZ 00404d90 f   OctopusXCite.obj
 0001:00003dc0       ?OnObj_6@COctopusXCite@@QAEXXZ 00404dc0 f   OctopusXCite.obj
 0001:00003df0       ?OnFW_1@COctopusXCite@@QAEXXZ 00404df0 f   OctopusXCite.obj
 0001:00003e20       ?OnFW_2@COctopusXCite@@QAEXXZ 00404e20 f   OctopusXCite.obj
 0001:00003e50       ?OnFW_3@COctopusXCite@@QAEXXZ 00404e50 f   OctopusXCite.obj
 0001:00003e80       ?OnFW_4@COctopusXCite@@QAEXXZ 00404e80 f   OctopusXCite.obj
 0001:00003eb0       ?OnFW_5@COctopusXCite@@QAEXXZ 00404eb0 f   OctopusXCite.obj
 0001:00003ee0       ?OnFW_6@COctopusXCite@@QAEXXZ 00404ee0 f   OctopusXCite.obj
 0001:00003f10       ?OnBFW_1@COctopusXCite@@QAEXXZ 00404f10 f   OctopusXCite.obj
 0001:00003f40       ?OnBFW_2@COctopusXCite@@QAEXXZ 00404f40 f   OctopusXCite.obj
 0001:00003f70       ?OnBFW_3@COctopusXCite@@QAEXXZ 00404f70 f   OctopusXCite.obj
 0001:00003fa0       ?OnBFW_4@COctopusXCite@@QAEXXZ 00404fa0 f   OctopusXCite.obj
 0001:00003fd0       ?OnBFW_5@COctopusXCite@@QAEXXZ 00404fd0 f   OctopusXCite.obj
 0001:00004000       ?OnBFW_6@COctopusXCite@@QAEXXZ 00405000 f   OctopusXCite.obj
 0001:00004030       ?Objective@COctopusXCite@@QAEXH@Z 00405030 f   OctopusXCite.obj
 0001:00004340       ?GetObj@COctopusXCite@@IAEHXZ 00405340 f   OctopusXCite.obj
 0001:000044f0       ?GetFW@COctopusXCite@@IAEHXZ 004054f0 f   OctopusXCite.obj
 0001:000046a0       ?GetBFW@COctopusXCite@@IAEHXZ 004056a0 f   OctopusXCite.obj
 0001:00004850       ?EpiFilterWheel@COctopusXCite@@QAEXH@Z 00405850 f   OctopusXCite.obj
 0001:00004920       ?BrightFieldFilterWheel@COctopusXCite@@QAEXH@Z 00405920 f   OctopusXCite.obj
 0001:000049f0       ?ToggleXCiteLEDStatus@COctopusXCite@@QAEXXZ 004059f0 f   OctopusXCite.obj
 0001:00004a70       ?BrightField@COctopusXCite@@QAEXH@Z 00405a70 f   OctopusXCite.obj
 0001:00004b40       ?OnNMCustomdrawExecute@COctopusXCite@@IAEXPAUtagNMHDR@@PAJ@Z 00405b40 f   OctopusXCite.obj
 0001:00004ba0       ?DisplayBFIntensity@COctopusXCite@@IAEXH@Z 00405ba0 f   OctopusXCite.obj
 0001:00004c60       ?WriteScope@COctopusXCite@@IAE_NV?$CStringT@DV?$StrTraitMFC_DLL@DV?$ChTraitsCRT@D@ATL@@@@@ATL@@@Z 00405c60 f   OctopusXCite.obj
 0001:00004d80       ?ReadScope@COctopusXCite@@IAE?AV?$CStringT@DV?$StrTraitMFC_DLL@DV?$ChTraitsCRT@D@ATL@@@@@ATL@@G@Z 00405d80 f   OctopusXCite.obj
 0001:00004e50       ?OnCommand@COctopusXCite@@MAEHIJ@Z 00405e50 f   OctopusXCite.obj
 0001:00004ea0       ?OnStnClickedScopeIntensitySliderSetting@COctopusXCite@@QAEXXZ 00405ea0 f   OctopusXCite.obj
 0001:00004eb0       ?OnEnChangeEdit1@COctopusXCite@@QAEXXZ 00405eb0 f   OctopusXCite.obj
 0001:00004ec0       ?OnStnClickedScopePos@COctopusXCite@@QAEXXZ 00405ec0 f   OctopusXCite.obj
 0001:00004ed0       ?OnStnClickedXciteOnoff@COctopusXCite@@QAEXXZ 00405ed0 f   OctopusXCite.obj
 0001:00004ee0       ?OnStnClickedShutterImage@COctopusXCite@@QAEXXZ 00405ee0 f   OctopusXCite.obj
 0001:00004ef0       ?OnNMCustomdrawXciteIntensitySlider2@COctopusXCite@@QAEXPAUtagNMHDR@@PAJ@Z 00405ef0 f   OctopusXCite.obj
 0001:00004f10       ?GetIntensityLevel@COctopusXCite@@QAEXXZ 00405f10 f   OctopusXCite.obj
 0001:00005a20       ??_ECOctopusXCite@@UAEPAXI@Z 00406a20 f i OctopusXCite.obj
 0001:00005a20       ??_GCOctopusXCite@@UAEPAXI@Z 00406a20 f i OctopusXCite.obj
 0001:00005a60       ??_GCPort@@QAEPAXI@Z       00406a60 f i OctopusXCite.obj
 0001:00005aa0       ??8ATL@@YA_NABV?$CStringT@DV?$StrTraitMFC_DLL@DV?$ChTraitsCRT@D@ATL@@@@@0@PBD@Z 00406aa0 f i OctopusXCite.obj
 0001:00005ac0       ??9ATL@@YA_NABV?$CStringT@DV?$StrTraitMFC_DLL@DV?$ChTraitsCRT@D@ATL@@@@@0@PBD@Z 00406ac0 f i OctopusXCite.obj
 0001:00005ae0       ??9ATL@@YA_NABV?$CStringT@DV?$StrTraitMFC_DLL@DV?$ChTraitsCRT@D@ATL@@@@@0@D@Z 00406ae0 f i OctopusXCite.obj
 0001:00005b30       ??0Octopus_LED@@QAE@PAVCWnd@@@Z 00406b30 f   Octopus_LED.obj
 0001:00005ca0       ?DoDataExchange@Octopus_LED@@MAEXPAVCDataExchange@@@Z 00406ca0 f   Octopus_LED.obj
 0001:00005e40       ?GetMessageMap@Octopus_LED@@MBEPBUAFX_MSGMAP@@XZ 00406e40 f   Octopus_LED.obj
 0001:00005e50       ?GetThisMessageMap@Octopus_LED@@KGPBUAFX_MSGMAP@@XZ 00406e50 f   Octopus_LED.obj
 0001:00005e60       ?OnInitDialog@Octopus_LED@@MAEHXZ 00406e60 f   Octopus_LED.obj
 0001:00005f50       ??1Octopus_LED@@UAE@XZ     00406f50 f   Octopus_LED.obj
 0001:00006020       ?OnCommand@Octopus_LED@@MAEHIJ@Z 00407020 f   Octopus_LED.obj
 0001:00006070       ?LED_On@Octopus_LED@@QAEXM@Z 00407070 f   Octopus_LED.obj
 0001:000060b0       ?LED_Off@Octopus_LED@@QAEXXZ 004070b0 f   Octopus_LED.obj
 0001:000060d0       ?Laser_On@Octopus_LED@@QAEXM@Z 004070d0 f   Octopus_LED.obj
 0001:00006110       ?Laser_Off@Octopus_LED@@QAEXXZ 00407110 f   Octopus_LED.obj
 0001:00006130       ?SetLEDIntensity@Octopus_LED@@IAEXM@Z 00407130 f   Octopus_LED.obj
 0001:000061e0       ?SetLaserIntensity@Octopus_LED@@IAEXM@Z 004071e0 f   Octopus_LED.obj
 0001:00006290       ?SetFlow@Octopus_LED@@QAEXH@Z 00407290 f   Octopus_LED.obj
 0001:00006310       ?OnEnChangeLED@Octopus_LED@@QAEXXZ 00407310 f   Octopus_LED.obj
 0001:00006370       ?OnEnChangeLaser@Octopus_LED@@QAEXXZ 00407370 f   Octopus_LED.obj
 0001:000063d0       ?OnNMCustomdrawLaserIntensitySlider@Octopus_LED@@QAEXPAUtagNMHDR@@PAJ@Z 004073d0 f   Octopus_LED.obj
 0001:00006450       ?OnNMCustomdrawLEDIntensitySlider@Octopus_LED@@QAEXPAUtagNMHDR@@PAJ@Z 00407450 f   Octopus_LED.obj
 0001:000064d0       ?OnBnClickedDout1@Octopus_LED@@QAEXXZ 004074d0 f   Octopus_LED.obj
 0001:00006530       ?OnBnClickedDout2@Octopus_LED@@QAEXXZ 00407530 f   Octopus_LED.obj
 0001:00006590       ?OnBnClickedDout3@Octopus_LED@@QAEXXZ 00407590 f   Octopus_LED.obj
 0001:000065f0       ?OnBnClickedDout4@Octopus_LED@@QAEXXZ 004075f0 f   Octopus_LED.obj
 0001:00006650       ?OnBnClickedDout5@Octopus_LED@@QAEXXZ 00407650 f   Octopus_LED.obj
 0001:000066b0       ?OnBnClickedDout6@Octopus_LED@@QAEXXZ 004076b0 f   Octopus_LED.obj
 0001:00006710       ?OnBnClickedDout7@Octopus_LED@@QAEXXZ 00407710 f   Octopus_LED.obj
 0001:00006770       ?OnBnClickedDout8@Octopus_LED@@QAEXXZ 00407770 f   Octopus_LED.obj
 0001:00006b00       ??_GOctopus_LED@@UAEPAXI@Z 00407b00 f i Octopus_LED.obj
 0001:00006b00       ??_EOctopus_LED@@UAEPAXI@Z 00407b00 f i Octopus_LED.obj
 0001:00006b40       ??0CTraceFileAndLineInfo@ATL@@QAE@PBDH@Z 00407b40 f i Octopus_LED.obj
 0001:00006b70       ??RCTraceFileAndLineInfo@ATL@@QBAXPBDZZ 00407b70 f i Octopus_LED.obj
 0001:00006bd0       ?TraceV@CTrace@ATL@@QBAXPBDHKI0PAD@Z 00407bd0 f i Octopus_LED.obj
 0001:00006c10       ??BCTraceCategory@ATL@@QBEKXZ 00407c10 f i Octopus_LED.obj
 0001:00006c30       ??0COctopusPictureDisplay@@QAE@PAVCWnd@@GG@Z 00407c30 f   OctopusCameraDisplay.obj
 0001:00006ff0       ?OnInitDialog@COctopusPictureDisplay@@MAEHXZ 00407ff0 f   OctopusCameraDisplay.obj
 0001:00007010       ?GetMessageMap@COctopusPictureDisplay@@MBEPBUAFX_MSGMAP@@XZ 00408010 f   OctopusCameraDisplay.obj
 0001:00007020       ?GetThisMessageMap@COctopusPictureDisplay@@KGPBUAFX_MSGMAP@@XZ 00408020 f   OctopusCameraDisplay.obj
 0001:00007030       ?DoDataExchange@COctopusPictureDisplay@@MAEXPAVCDataExchange@@@Z 00408030 f   OctopusCameraDisplay.obj
 0001:00007070       ??1COctopusPictureDisplay@@UAE@XZ 00408070 f   OctopusCameraDisplay.obj
 0001:00007290       ?Create_Bitmap@COctopusPictureDisplay@@QAEXXZ 00408290 f   OctopusCameraDisplay.obj
 0001:000074e0       ?Draw_Bitmap@COctopusPictureDisplay@@IAEXXZ 004084e0 f   OctopusCameraDisplay.obj
 0001:000078c0       ?Update_Bitmap@COctopusPictureDisplay@@QAEXPAGG@Z 004088c0 f   OctopusCameraDisplay.obj
 0001:00008320       ?BasicAnalysis@COctopusPictureDisplay@@IAEXPAG@Z 00409320 f   OctopusCameraDisplay.obj
 0001:00008480       ?ROIAnalysis@COctopusPictureDisplay@@IAEXPAG@Z 00409480 f   OctopusCameraDisplay.obj
 0001:000087b0       ?BeadAnalysis@COctopusPictureDisplay@@QAEXPAG@Z 004097b0 f   OctopusCameraDisplay.obj
 0001:00008f00       ?gNoise@COctopusPictureDisplay@@QAENNN@Z 00409f00 f   OctopusCameraDisplay.obj
 0001:00008f90       ?Open_A_File@COctopusPictureDisplay@@IAE_NXZ 00409f90 f   OctopusCameraDisplay.obj
 0001:000091f0       ?Close_The_File@COctopusPictureDisplay@@QAEXXZ 0040a1f0 f   OctopusCameraDisplay.obj
 0001:00009270       ?WritePic@COctopusPictureDisplay@@IAEXXZ 0040a270 f   OctopusCameraDisplay.obj
 0001:000094a0       ?UpdateTitle@COctopusPictureDisplay@@IAEXXZ 0040a4a0 f   OctopusCameraDisplay.obj
 0001:00009600       ?ValidateMarkersAndSetROI@COctopusPictureDisplay@@IAEXXZ 0040a600 f   OctopusCameraDisplay.obj
 0001:000098e0       ?MouseMove@COctopusPictureDisplay@@IAEXVCPoint@@@Z 0040a8e0 f   OctopusCameraDisplay.obj
 0001:00009a40       ?LeftButtonDown@COctopusPictureDisplay@@IAEXVCPoint@@@Z 0040aa40 f   OctopusCameraDisplay.obj
 0001:00009ab0       ?LeftButtonUp@COctopusPictureDisplay@@IAEXVCPoint@@@Z 0040aab0 f   OctopusCameraDisplay.obj
 0001:00009b30       ?OnMouseMove@COctopusPictureDisplay@@IAEXIVCPoint@@@Z 0040ab30 f   OctopusCameraDisplay.obj
 0001:00009b70       ?OnLButtonUp@COctopusPictureDisplay@@IAEXIVCPoint@@@Z 0040ab70 f   OctopusCameraDisplay.obj
 0001:00009ba0       ?OnLButtonDown@COctopusPictureDisplay@@IAEXIVCPoint@@@Z 0040aba0 f   OctopusCameraDisplay.obj
 0001:00009bd0       ?OnRButtonDown@COctopusPictureDisplay@@IAEXIVCPoint@@@Z 0040abd0 f   OctopusCameraDisplay.obj
 0001:00009c00       ?OnCommand@COctopusPictureDisplay@@MAEHIJ@Z 0040ac00 f   OctopusCameraDisplay.obj
 0001:00009c50       ?expfunc@@YAXPAN0HHPAX@Z   0040ac50 f   OctopusCameraDisplay.obj
 0001:00009cb0       ?Gaussian_2D@@YAXPAN0HHPAX@Z 0040acb0 f   OctopusCameraDisplay.obj
 0001:0000aa60       ??_ECOctopusPictureDisplay@@UAEPAXI@Z 0040ba60 f i OctopusCameraDisplay.obj
 0001:0000aa60       ??_GCOctopusPictureDisplay@@UAEPAXI@Z 0040ba60 f i OctopusCameraDisplay.obj
 0001:0000aaa0       ??HATL@@YA?AV?$CStringT@DV?$StrTraitMFC_DLL@DV?$ChTraitsCRT@D@ATL@@@@@0@ABV10@0@Z 0040baa0 f i OctopusCameraDisplay.obj
 0001:0000ab80       ??0COctopusCamera@@QAE@PAVCWnd@@@Z 0040bb80 f   OctopusCameraDlg.obj
 0001:0000b000       ?DoDataExchange@COctopusCamera@@MAEXPAVCDataExchange@@@Z 0040c000 f   OctopusCameraDlg.obj
 0001:0000b2c0       ?GetMessageMap@COctopusCamera@@MBEPBUAFX_MSGMAP@@XZ 0040c2c0 f   OctopusCameraDlg.obj
 0001:0000b2d0       ?GetThisMessageMap@COctopusCamera@@KGPBUAFX_MSGMAP@@XZ 0040c2d0 f   OctopusCameraDlg.obj
 0001:0000b2e0       ?OnInitDialog@COctopusCamera@@MAEHXZ 0040c2e0 f   OctopusCameraDlg.obj
 0001:0000b410       ??1COctopusCamera@@UAE@XZ  0040c410 f   OctopusCameraDlg.obj
 0001:0000b610       ?SetExposureTime_Single_ms@COctopusCamera@@QAEXH@Z 0040c610 f   OctopusCameraDlg.obj
 0001:0000b640       ?SetExposureTime_Movie_ms@COctopusCamera@@QAEXH@Z 0040c640 f   OctopusCameraDlg.obj
 0001:0000b670       ?SetCameraGain@COctopusCamera@@QAEXH@Z 0040c670 f   OctopusCameraDlg.obj
 0001:0000b6c0       ?SetNKinetics@COctopusCamera@@QAEXH@Z 0040c6c0 f   OctopusCameraDlg.obj
 0001:0000b6f0       ?SetMovieGain@COctopusCamera@@QAEXH@Z 0040c6f0 f   OctopusCameraDlg.obj
 0001:0000b740       ?Opencam@COctopusCamera@@IAEXXZ 0040c740 f   OctopusCameraDlg.obj
 0001:0000b8c0       ?StartPicture@COctopusCamera@@QAEXXZ 0040c8c0 f   OctopusCameraDlg.obj
 0001:0000ba70       ?TakePicture@COctopusCamera@@QAEXXZ 0040ca70 f   OctopusCameraDlg.obj
 0001:0000bb20       ?TakeKineticPicture@COctopusCamera@@QAEXXZ 0040cb20 f   OctopusCameraDlg.obj
 0001:0000bbb0       ?StartMovie@COctopusCamera@@QAEXXZ 0040cbb0 f   OctopusCameraDlg.obj
 0001:0000bc90       ?StopCameraThread@COctopusCamera@@QAEXXZ 0040cc90 f   OctopusCameraDlg.obj
 0001:0000bce0       ?SetROI_To_Default@COctopusCamera@@QAEXXZ 0040cce0 f   OctopusCameraDlg.obj
 0001:0000bd50       ?SetROI@COctopusCamera@@IAEXXZ 0040cd50 f   OctopusCameraDlg.obj
 0001:0000be50       ?BinChange@COctopusCamera@@IAEXXZ 0040ce50 f   OctopusCameraDlg.obj
 0001:0000beb0       ?OpenWindow@COctopusCamera@@IAEXXZ 0040ceb0 f   OctopusCameraDlg.obj
 0001:0000c060       ?OnKillfocusGeneral@COctopusCamera@@IAEXXZ 0040d060 f   OctopusCameraDlg.obj
 0001:0000c080       ?OnKillfocusTempTarget@COctopusCamera@@IAEXXZ 0040d080 f   OctopusCameraDlg.obj
 0001:0000c0a0       ?OnKillfocusManualGain@COctopusCamera@@IAEXXZ 0040d0a0 f   OctopusCameraDlg.obj
 0001:0000c0d0       ?OnKillfocusPicturesPerFile@COctopusCamera@@IAEXXZ 0040d0d0 f   OctopusCameraDlg.obj
 0001:0000c100       ?OnBinning1x1@COctopusCamera@@IAEXXZ 0040d100 f   OctopusCameraDlg.obj
 0001:0000c130       ?OnBinning2x2@COctopusCamera@@IAEXXZ 0040d130 f   OctopusCameraDlg.obj
 0001:0000c160       ?OnBinning4x4@COctopusCamera@@IAEXXZ 0040d160 f   OctopusCameraDlg.obj
 0001:0000c190       ?OnBinning8x8@COctopusCamera@@IAEXXZ 0040d190 f   OctopusCameraDlg.obj
 0001:0000c1c0       ?OnVSSPEED_0@COctopusCamera@@IAEXXZ 0040d1c0 f   OctopusCameraDlg.obj
 0001:0000c1e0       ?OnVSSPEED_1@COctopusCamera@@IAEXXZ 0040d1e0 f   OctopusCameraDlg.obj
 0001:0000c200       ?OnVSSPEED_2@COctopusCamera@@IAEXXZ 0040d200 f   OctopusCameraDlg.obj
 0001:0000c220       ?OnVSSPEED_3@COctopusCamera@@IAEXXZ 0040d220 f   OctopusCameraDlg.obj
 0001:0000c240       ?OnVSSPEED_4@COctopusCamera@@IAEXXZ 0040d240 f   OctopusCameraDlg.obj
 0001:0000c260       ?OnHSSPEED_0@COctopusCamera@@IAEXXZ 0040d260 f   OctopusCameraDlg.obj
 0001:0000c280       ?OnHSSPEED_1@COctopusCamera@@IAEXXZ 0040d280 f   OctopusCameraDlg.obj
 0001:0000c2a0       ?OnHSSPEED_2@COctopusCamera@@IAEXXZ 0040d2a0 f   OctopusCameraDlg.obj
 0001:0000c2c0       ?OnHSSPEED_3@COctopusCamera@@IAEXXZ 0040d2c0 f   OctopusCameraDlg.obj
 0001:0000c2e0       ?OnHSSPEED_4@COctopusCamera@@IAEXXZ 0040d2e0 f   OctopusCameraDlg.obj
 0001:0000c300       ?OnHSSPEED_5@COctopusCamera@@IAEXXZ 0040d300 f   OctopusCameraDlg.obj
 0001:0000c320       ?OnLMM_0@COctopusCamera@@IAEXXZ 0040d320 f   OctopusCameraDlg.obj
 0001:0000c350       ?OnLMM_1@COctopusCamera@@IAEXXZ 0040d350 f   OctopusCameraDlg.obj
 0001:0000c380       ?OnLMM_2@COctopusCamera@@IAEXXZ 0040d380 f   OctopusCameraDlg.obj
 0001:0000c3b0       ?OnLMM_3@COctopusCamera@@IAEXXZ 0040d3b0 f   OctopusCameraDlg.obj
 0001:0000c3e0       ?OnPIC_0@COctopusCamera@@IAEXXZ 0040d3e0 f   OctopusCameraDlg.obj
 0001:0000c410       ?OnPIC_1@COctopusCamera@@IAEXXZ 0040d410 f   OctopusCameraDlg.obj
 0001:0000c440       ?OnPIC_2@COctopusCamera@@IAEXXZ 0040d440 f   OctopusCameraDlg.obj
 0001:0000c470       ?OnGL_0@COctopusCamera@@IAEXXZ 0040d470 f   OctopusCameraDlg.obj
 0001:0000c4a0       ?OnGL_1@COctopusCamera@@IAEXXZ 0040d4a0 f   OctopusCameraDlg.obj
 0001:0000c4e0       ?OnGL_2@COctopusCamera@@IAEXXZ 0040d4e0 f   OctopusCameraDlg.obj
 0001:0000c520       ?OnVSSPEED_Report@COctopusCamera@@IAEXXZ 0040d520 f   OctopusCameraDlg.obj
 0001:0000c530       ?OnHSSPEED_Report@COctopusCamera@@IAEXXZ 0040d530 f   OctopusCameraDlg.obj
 0001:0000c540       ?OnDisplayGainManual@COctopusCamera@@IAEXXZ 0040d540 f   OctopusCameraDlg.obj
 0001:0000c570       ?OnDisplayGainAutomatic@COctopusCamera@@IAEXXZ 0040d570 f   OctopusCameraDlg.obj
 0001:0000c5a0       ?OnFileChange@COctopusCamera@@IAEXXZ 0040d5a0 f   OctopusCameraDlg.obj
 0001:0000c5d0       ?OnFocusChange@COctopusCamera@@IAEXXZ 0040d5d0 f   OctopusCameraDlg.obj
 0001:0000c5f0       ?StartSaving@COctopusCamera@@QAEXXZ 0040d5f0 f   OctopusCameraDlg.obj
 0001:0000c680       ?StopSaving@COctopusCamera@@QAEXXZ 0040d680 f   OctopusCameraDlg.obj
 0001:0000c700       ?FileClose@COctopusCamera@@QAEXXZ 0040d700 f   OctopusCameraDlg.obj
 0001:0000c750       ?OnSetPath@COctopusCamera@@IAEXXZ 0040d750 f   OctopusCameraDlg.obj
 0001:0000c920       ?OnTimer@COctopusCamera@@IAEXI@Z 0040d920 f   OctopusCameraDlg.obj
 0001:0000ce40       ?StartWaitThread@COctopusCamera@@IAEXXZ 0040de40 f   OctopusCameraDlg.obj
 0001:0000cea0       ?KillWaitThread@COctopusCamera@@IAEXXZ 0040dea0 f   OctopusCameraDlg.obj
 0001:0000cf40       ?FocusThread@@YGKPAX@Z     0040df40 f   OctopusCameraDlg.obj
 0001:0000cf80       ?OnBnClickedCasFt@COctopusCamera@@QAEXXZ 0040df80 f   OctopusCameraDlg.obj
 0001:0000cfc0       ?OnBnClickedCasTTL@COctopusCamera@@QAEXXZ 0040dfc0 f   OctopusCameraDlg.obj
 0001:0000d000       ?OnBnClickedCasAL@COctopusCamera@@QAEXXZ 0040e000 f   OctopusCameraDlg.obj
 0001:0000d040       ?OnCommand@COctopusCamera@@MAEHIJ@Z 0040e040 f   OctopusCameraDlg.obj
 0001:0000d090       ?EnableDlg@COctopusCamera@@IAEXXZ 0040e090 f   OctopusCameraDlg.obj
 0001:0000d240       ?DisableDlgMovie@COctopusCamera@@IAEXXZ 0040e240 f   OctopusCameraDlg.obj
 0001:0000d2a0       ?DisableDlg@COctopusCamera@@IAEXXZ 0040e2a0 f   OctopusCameraDlg.obj
 0001:0000d410       ?OnBnClickedGeneralFocus@COctopusCamera@@QAEXXZ 0040e410 f   OctopusCameraDlg.obj
 0001:0000d470       ?OnEnChangeFocusEdit@COctopusCamera@@QAEXXZ 0040e470 f   OctopusCameraDlg.obj
 0001:0000d490       ?OnEnChangeCasPicturesPerFile@COctopusCamera@@QAEXXZ 0040e490 f   OctopusCameraDlg.obj
 0001:0000d4a0       ?OnStnClickedCasTempCurrent@COctopusCamera@@QAEXXZ 0040e4a0 f   OctopusCameraDlg.obj
 0001:0000df00       ??_ECOctopusCamera@@UAEPAXI@Z 0040ef00 f i OctopusCameraDlg.obj
 0001:0000df00       ??_GCOctopusCamera@@UAEPAXI@Z 0040ef00 f i OctopusCameraDlg.obj
 0001:0000df40       ??HATL@@YA?AV?$CStringT@DV?$StrTraitMFC_DLL@DV?$ChTraitsCRT@D@ATL@@@@@0@ABV10@PBD@Z 0040ef40 f i OctopusCameraDlg.obj
 0001:0000e020       ??0COctopusGoodClock@@QAE@XZ 0040f020 f   OctopusClock.obj
 0001:0000e080       ??1COctopusGoodClock@@UAE@XZ 0040f080 f   OctopusClock.obj
 0001:0000e0a0       ?End@COctopusGoodClock@@QBENXZ 0040f0a0 f   OctopusClock.obj
 0001:0000e130       ??_GCOctopusGoodClock@@UAEPAXI@Z 0040f130 f i OctopusClock.obj
 0001:0000e130       ??_ECOctopusGoodClock@@UAEPAXI@Z 0040f130 f i OctopusClock.obj
 0001:0000e170       ?CreateObject@COctopusDoc@@SGPAVCObject@@XZ 0040f170 f   OctopusDoc.obj
 0001:0000e1f0       ?_GetBaseClass@COctopusDoc@@KGPAUCRuntimeClass@@XZ 0040f1f0 f   OctopusDoc.obj
 0001:0000e200       ?GetThisClass@COctopusDoc@@SGPAUCRuntimeClass@@XZ 0040f200 f   OctopusDoc.obj
 0001:0000e210       ?GetRuntimeClass@COctopusDoc@@UBEPAUCRuntimeClass@@XZ 0040f210 f   OctopusDoc.obj
 0001:0000e220       ??0COctopusDoc@@IAE@XZ     0040f220 f   OctopusDoc.obj
 0001:0000e240       ??1COctopusDoc@@UAE@XZ     0040f240 f   OctopusDoc.obj
 0001:0000e260       ?OnNewDocument@COctopusDoc@@UAEHXZ 0040f260 f   OctopusDoc.obj
 0001:0000e2b0       ?GetAdapter@CDocument@@UAEPAUIDocument@ATL@@XZ 0040f2b0 f i OctopusDoc.obj
 0001:0000e3e0       ??0CDocumentAdapter@CDocument@@QAE@PAV1@@Z 0040f3e0 f i OctopusDoc.obj
 0001:0000e420       ??0IDocument@ATL@@IAE@XZ   0040f420 f i OctopusDoc.obj
 0001:0000e450       ?AddRef@IDocument@ATL@@UAEJXZ 0040f450 f i OctopusDoc.obj
 0001:0000e470       ?Release@IDocument@ATL@@UAEJXZ 0040f470 f i OctopusDoc.obj
 0001:0000e500       ??_EIDocument@ATL@@UAEPAXI@Z 0040f500 f i OctopusDoc.obj
 0001:0000e500       ??_GIDocument@ATL@@UAEPAXI@Z 0040f500 f i OctopusDoc.obj
 0001:0000e540       ??1IDocument@ATL@@UAE@XZ   0040f540 f i OctopusDoc.obj
 0001:0000e560       ?LoadFromStream@CDocumentAdapter@CDocument@@UAEJPAUIStream@@K@Z 0040f560 f i OctopusDoc.obj
 0001:0000e640       ?InitializeSearchContent@CDocumentAdapter@CDocument@@UAEXXZ 0040f640 f i OctopusDoc.obj
 0001:0000e6d0       ?ClearChunkList@CDocumentAdapter@CDocument@@UAEXXZ 0040f6d0 f i OctopusDoc.obj
 0001:0000e760       ?SetChunkValue@CDocumentAdapter@CDocument@@UAEHPAUIFilterChunkValue@ATL@@@Z 0040f760 f i OctopusDoc.obj
 0001:0000e7f0       ?BeginReadChunks@CDocumentAdapter@CDocument@@UAEXXZ 0040f7f0 f i OctopusDoc.obj
 0001:0000e880       ?ReadNextChunkValue@CDocumentAdapter@CDocument@@UAEHPAPAUIFilterChunkValue@ATL@@@Z 0040f880 f i OctopusDoc.obj
 0001:0000e910       ?RemoveChunk@CDocumentAdapter@CDocument@@UAEXABU_GUID@@K@Z 0040f910 f i OctopusDoc.obj
 0001:0000e9a0       ?FindChunk@CDocumentAdapter@CDocument@@UAEPAU__POSITION@@ABU_GUID@@K@Z 0040f9a0 f i OctopusDoc.obj
 0001:0000ea40       ?GetContainer@CDocumentAdapter@CDocument@@UBEPAXXZ 0040fa40 f i OctopusDoc.obj
 0001:0000ea60       ?GetThumbnail@CDocumentAdapter@CDocument@@UAEHIPAPAUHBITMAP__@@PAW4WTS_ALPHATYPE@@@Z 0040fa60 f i OctopusDoc.obj
 0001:0000eb00       ?OnBeforeRichPreviewFontChanged@CDocument@@UAEXXZ 0040fb00 f i OctopusDoc.obj
 0001:0000eb10       ?OnRichPreviewFontChanged@CDocument@@UAEXXZ 0040fb10 f i OctopusDoc.obj
 0001:0000eb20       ?OnRichPreviewTextColorChanged@CDocument@@UAEXXZ 0040fb20 f i OctopusDoc.obj
 0001:0000eb30       ?OnRichPreviewBackColorChanged@CDocument@@UAEXXZ 0040fb30 f i OctopusDoc.obj
 0001:0000eb40       ?OnRichPreviewSiteChanged@CDocument@@UAEXXZ 0040fb40 f i OctopusDoc.obj
 0001:0000eb50       ?InitializeSearchContent@CDocument@@UAEXXZ 0040fb50 f i OctopusDoc.obj
 0001:0000eb90       ??_ECDocumentAdapter@CDocument@@UAEPAXI@Z 0040fb90 f i OctopusDoc.obj
 0001:0000eb90       ??_GCDocumentAdapter@CDocument@@UAEPAXI@Z 0040fb90 f i OctopusDoc.obj
 0001:0000ebd0       ??1CDocumentAdapter@CDocument@@UAE@XZ 0040fbd0 f i OctopusDoc.obj
 0001:0000ec90       ??_ECOctopusDoc@@UAEPAXI@Z 0040fc90 f i OctopusDoc.obj
 0001:0000ec90       ??_GCOctopusDoc@@UAEPAXI@Z 0040fc90 f i OctopusDoc.obj
 0001:0000ecd0       ??0COctopusFocus@@QAE@PAVCWnd@@@Z 0040fcd0 f   OctopusFocus.obj
 0001:0000eea0       ?OnInitDialog@COctopusFocus@@UAEHXZ 0040fea0 f   OctopusFocus.obj
 0001:0000eec0       ??1COctopusFocus@@UAE@XZ   0040fec0 f   OctopusFocus.obj
 0001:0000ef80       ?Close@COctopusFocus@@QAEXXZ 0040ff80 f   OctopusFocus.obj
 0001:0000efa0       ?OnFocus@COctopusFocus@@QAEXXZ 0040ffa0 f   OctopusFocus.obj
 0001:0000f0a0       ?AutoFocus@COctopusFocus@@QAEXN@Z 004100a0 f   OctopusFocus.obj
 0001:0000f2c0       ?ROIFocus@COctopusFocus@@QAEXN@Z 004102c0 f   OctopusFocus.obj
 0001:0000f500       ?EndFocus@COctopusFocus@@QAEXXZ 00410500 f   OctopusFocus.obj
 0001:0000f5f0       ?OnTimer@COctopusFocus@@QAEXI@Z 004105f0 f   OctopusFocus.obj
 0001:0000fc10       ?DoDataExchange@COctopusFocus@@MAEXPAVCDataExchange@@@Z 00410c10 f   OctopusFocus.obj
 0001:0000fc70       ?GetMessageMap@COctopusFocus@@MBEPBUAFX_MSGMAP@@XZ 00410c70 f   OctopusFocus.obj
 0001:0000fc80       ?GetThisMessageMap@COctopusFocus@@KGPBUAFX_MSGMAP@@XZ 00410c80 f   OctopusFocus.obj
 0001:0000fc90       ?OnKillfocusGeneral@COctopusFocus@@QAEXXZ 00410c90 f   OctopusFocus.obj
 0001:0000fcb0       ?OnCommand@COctopusFocus@@MAEHIJ@Z 00410cb0 f   OctopusFocus.obj
 0001:00010100       ??_ECOctopusFocus@@UAEPAXI@Z 00411100 f i OctopusFocus.obj
 0001:00010100       ??_GCOctopusFocus@@UAEPAXI@Z 00411100 f i OctopusFocus.obj
 0001:00010140       ?GetExposureTime_Single_ms@COctopusCamera@@QAEKXZ 00411140 f i OctopusFocus.obj
 0001:00010160       ??0OctopusLaser@@QAE@PAVCWnd@@@Z 00411160 f   OctopusLaser.obj
 0001:000102b0       ?DoDataExchange@OctopusLaser@@MAEXPAVCDataExchange@@@Z 004112b0 f   OctopusLaser.obj
 0001:00010340       ?GetMessageMap@OctopusLaser@@MBEPBUAFX_MSGMAP@@XZ 00411340 f   OctopusLaser.obj
 0001:00010350       ?GetThisMessageMap@OctopusLaser@@KGPBUAFX_MSGMAP@@XZ 00411350 f   OctopusLaser.obj
 0001:00010360       ?OnInitDialog@OctopusLaser@@MAEHXZ 00411360 f   OctopusLaser.obj
 0001:00010490       ??1OctopusLaser@@UAE@XZ    00411490 f   OctopusLaser.obj
 0001:00010550       ?OnCommand@OctopusLaser@@MAEHIJ@Z 00411550 f   OctopusLaser.obj
 0001:000105a0       ?LED_On@OctopusLaser@@QAEXM@Z 004115a0 f   OctopusLaser.obj
 0001:000105e0       ?LED_Off@OctopusLaser@@QAEXXZ 004115e0 f   OctopusLaser.obj
 0001:00010600       ?SetIntensity@OctopusLaser@@IAEXM@Z 00411600 f   OctopusLaser.obj
 0001:00010730       ?OnNMCustomdrawLasersSlider@OctopusLaser@@QAEXPAUtagNMHDR@@PAJ@Z 00411730 f   OctopusLaser.obj
 0001:00010860       ?OnEnKillfocusLaserInput@OctopusLaser@@QAEXXZ 00411860 f   OctopusLaser.obj
 0001:00010b10       ??_EOctopusLaser@@UAEPAXI@Z 00411b10 f i OctopusLaser.obj
 0001:00010b10       ??_GOctopusLaser@@UAEPAXI@Z 00411b10 f i OctopusLaser.obj
 0001:00010b50       ??0COctopusLasers@@QAE@PAVCWnd@@@Z 00411b50 f   OctopusLasers.obj
 0001:00010d30       ?DoDataExchange@COctopusLasers@@MAEXPAVCDataExchange@@@Z 00411d30 f   OctopusLasers.obj
 0001:00010e10       ?GetMessageMap@COctopusLasers@@MBEPBUAFX_MSGMAP@@XZ 00411e10 f   OctopusLasers.obj
 0001:00010e20       ?GetThisMessageMap@COctopusLasers@@KGPBUAFX_MSGMAP@@XZ 00411e20 f   OctopusLasers.obj
 0001:00010e30       ??1COctopusLasers@@UAE@XZ  00411e30 f   OctopusLasers.obj
 0001:00010f40       ?OnClicked405@COctopusLasers@@QAEXXZ 00411f40 f   OctopusLasers.obj
 0001:00010f70       ?OnClicked488@COctopusLasers@@QAEXXZ 00411f70 f   OctopusLasers.obj
 0001:00010fa0       ?OnClicked561@COctopusLasers@@QAEXXZ 00411fa0 f   OctopusLasers.obj
 0001:00010fd0       ?OnClicked639@COctopusLasers@@QAEXXZ 00411fd0 f   OctopusLasers.obj
 0001:00011000       ?Laser_639_On@COctopusLasers@@QAEXXZ 00412000 f   OctopusLasers.obj
 0001:00011050       ?Laser_639_Off@COctopusLasers@@QAEXXZ 00412050 f   OctopusLasers.obj
 0001:000110a0       ?Laser_405_On@COctopusLasers@@QAEXXZ 004120a0 f   OctopusLasers.obj
 0001:000110f0       ?Laser_405_Off@COctopusLasers@@QAEXXZ 004120f0 f   OctopusLasers.obj
 0001:00011140       ?Laser_488_On@COctopusLasers@@QAEXXZ 00412140 f   OctopusLasers.obj
 0001:00011190       ?Laser_488_Off@COctopusLasers@@QAEXXZ 00412190 f   OctopusLasers.obj
 0001:000111e0       ?Laser_561_On@COctopusLasers@@QAEXXZ 004121e0 f   OctopusLasers.obj
 0001:00011230       ?Laser_561_Off@COctopusLasers@@QAEXXZ 00412230 f   OctopusLasers.obj
 0001:00011280       ?Initialize@COctopusLasers@@QAEXXZ 00412280 f   OctopusLasers.obj
 0001:00011420       ?OnCommand@COctopusLasers@@MAEHIJ@Z 00412420 f   OctopusLasers.obj
 0001:000116b0       ??_GCOctopusLasers@@UAEPAXI@Z 004126b0 f i OctopusLasers.obj
 0001:000116b0       ??_ECOctopusLasers@@UAEPAXI@Z 004126b0 f i OctopusLasers.obj
 0001:000116f0       ?SC_Enable@CMgmotorctrl1@@QAEJJ@Z 004126f0 f i OctopusLasers.obj
 0001:00011740       ?SC_Disable@CMgmotorctrl1@@QAEJJ@Z 00412740 f i OctopusLasers.obj
 0001:00011790       ?StartCtrl@CMgmotorctrl1@@QAEJXZ 00412790 f i OctopusLasers.obj
 0001:000117d0       ?SC_SetOperatingMode@CMgmotorctrl1@@QAEJJJ@Z 004127d0 f i OctopusLasers.obj
 0001:00011820       ?SetHWSerialNum@CMgmotorctrl1@@QAEXJ@Z 00412820 f i OctopusLasers.obj
 0001:00011850       ??0COctopusLog@@QAE@XZ     00412850 f   OctopusLog.obj
 0001:00011890       ??1COctopusLog@@QAE@XZ     00412890 f   OctopusLog.obj
 0001:000118c0       ?Open_File@COctopusLog@@IAE_NXZ 004128c0 f   OctopusLog.obj
 0001:00011900       ?Write@COctopusLog@@QAEXV?$CStringT@DV?$StrTraitMFC_DLL@DV?$ChTraitsCRT@D@ATL@@@@@ATL@@@Z 00412900 f   OctopusLog.obj
 0001:00011ae0       ?Format@CTime@ATL@@QBE?AV?$CStringT@DV?$StrTraitMFC_DLL@DV?$ChTraitsCRT@D@ATL@@@@@2@PBD@Z 00412ae0 f i OctopusLog.obj
 0001:00011be0       ?AtlThrowImpl@ATL@@YGXJ@Z  00412be0 f i OctopusLog.obj
 0001:00011c50       ??RCTraceFileAndLineInfo@ATL@@QBAXKIPBDZZ 00412c50 f i OctopusLog.obj
 0001:00011ca0       ??0COctopusObjectivePiezo@@QAE@PAVCWnd@@@Z 00412ca0 f   OctopusObjectivePiezo.obj
 0001:00011e90       ?OnInitDialog@COctopusObjectivePiezo@@UAEHXZ 00412e90 f   OctopusObjectivePiezo.obj
 0001:00011eb0       ??1COctopusObjectivePiezo@@UAE@XZ 00412eb0 f   OctopusObjectivePiezo.obj
 0001:00011f80       ?Initialize@COctopusObjectivePiezo@@QAEHXZ 00412f80 f   OctopusObjectivePiezo.obj
 0001:00012100       ?Close@COctopusObjectivePiezo@@QAEXXZ 00413100 f   OctopusObjectivePiezo.obj
 0001:000121a0       ?MoveRelZ@COctopusObjectivePiezo@@QAEXN@Z 004131a0 f   OctopusObjectivePiezo.obj
 0001:000121b0       ?MoveUp@COctopusObjectivePiezo@@QAEXXZ 004131b0 f   OctopusObjectivePiezo.obj
 0001:000121e0       ?MoveDown@COctopusObjectivePiezo@@QAEXXZ 004131e0 f   OctopusObjectivePiezo.obj
 0001:00012210       ?OnStepSize1@COctopusObjectivePiezo@@QAEXXZ 00413210 f   OctopusObjectivePiezo.obj
 0001:00012250       ?OnStepSize2@COctopusObjectivePiezo@@QAEXXZ 00413250 f   OctopusObjectivePiezo.obj
 0001:00012290       ?OnStepSize3@COctopusObjectivePiezo@@QAEXXZ 00413290 f   OctopusObjectivePiezo.obj
 0001:000122d0       ?OnStepSize4@COctopusObjectivePiezo@@QAEXXZ 004132d0 f   OctopusObjectivePiezo.obj
 0001:00012300       ?OnStepSize5@COctopusObjectivePiezo@@QAEXXZ 00413300 f   OctopusObjectivePiezo.obj
 0001:00012340       ?GetPosition@COctopusObjectivePiezo@@IAENXZ 00413340 f   OctopusObjectivePiezo.obj
 0001:00012360       ?UpdatePosition@COctopusObjectivePiezo@@IAEXXZ 00413360 f   OctopusObjectivePiezo.obj
 0001:00012390       ?ShowPosition@COctopusObjectivePiezo@@IAEXXZ 00413390 f   OctopusObjectivePiezo.obj
 0001:00012440       ?Center@COctopusObjectivePiezo@@QAEXXZ 00413440 f   OctopusObjectivePiezo.obj
 0001:00012460       ?OnSave@COctopusObjectivePiezo@@QAEXXZ 00413460 f   OctopusObjectivePiezo.obj
 0001:000124d0       ?OnSaveGoTo@COctopusObjectivePiezo@@QAEXXZ 004134d0 f   OctopusObjectivePiezo.obj
 0001:000124f0       ?OnTimer@COctopusObjectivePiezo@@QAEXI@Z 004134f0 f   OctopusObjectivePiezo.obj
 0001:000125b0       ?DoDataExchange@COctopusObjectivePiezo@@MAEXPAVCDataExchange@@@Z 004135b0 f   OctopusObjectivePiezo.obj
 0001:00012600       ?GetMessageMap@COctopusObjectivePiezo@@MBEPBUAFX_MSGMAP@@XZ 00413600 f   OctopusObjectivePiezo.obj
 0001:00012610       ?GetThisMessageMap@COctopusObjectivePiezo@@KGPBUAFX_MSGMAP@@XZ 00413610 f   OctopusObjectivePiezo.obj
 0001:00012620       ?OnKillfocusGeneral@COctopusObjectivePiezo@@QAEXXZ 00413620 f   OctopusObjectivePiezo.obj
 0001:00012640       ?OnCommand@COctopusObjectivePiezo@@MAEHIJ@Z 00413640 f   OctopusObjectivePiezo.obj
 0001:00012900       ??_GCOctopusObjectivePiezo@@UAEPAXI@Z 00413900 f i OctopusObjectivePiezo.obj
 0001:00012900       ??_ECOctopusObjectivePiezo@@UAEPAXI@Z 00413900 f i OctopusObjectivePiezo.obj
 0001:00012940       ??0COctopusScope@@QAE@PAVCWnd@@@Z 00413940 f   OctopusScope.obj
 0001:00012aa0       ?OnInitDialog@COctopusScope@@MAEHXZ 00413aa0 f   OctopusScope.obj
 0001:00012ad0       ?OnTimer@COctopusScope@@QAEXI@Z 00413ad0 f   OctopusScope.obj
 0001:00012b40       ?Init@COctopusScope@@IAE_NXZ 00413b40 f   OctopusScope.obj
 0001:00013310       ?DoDataExchange@COctopusScope@@MAEXPAVCDataExchange@@@Z 00414310 f   OctopusScope.obj
 0001:000133d0       ?GetMessageMap@COctopusScope@@MBEPBUAFX_MSGMAP@@XZ 004143d0 f   OctopusScope.obj
 0001:000133e0       ?GetThisMessageMap@COctopusScope@@KGPBUAFX_MSGMAP@@XZ 004143e0 f   OctopusScope.obj
 0001:000133f0       ?Close@COctopusScope@@QAEXXZ 004143f0 f   OctopusScope.obj
 0001:000134a0       ??1COctopusScope@@UAE@XZ   004144a0 f   OctopusScope.obj
 0001:00013550       ?Z_StepDown@COctopusScope@@QAEXXZ 00414550 f   OctopusScope.obj
 0001:00013620       ?Z_StepUp@COctopusScope@@QAEXXZ 00414620 f   OctopusScope.obj
 0001:000136f0       ?ObjESC@COctopusScope@@QAEXXZ 004146f0 f   OctopusScope.obj
 0001:00013830       ?ObjRTN@COctopusScope@@QAEXXZ 00414830 f   OctopusScope.obj
 0001:00013930       ?OnObjectiveStepSize1@COctopusScope@@QAEXXZ 00414930 f   OctopusScope.obj
 0001:00013970       ?OnObjectiveStepSize2@COctopusScope@@QAEXXZ 00414970 f   OctopusScope.obj
 0001:000139b0       ?OnObjectiveStepSize3@COctopusScope@@QAEXXZ 004149b0 f   OctopusScope.obj
 0001:000139f0       ?OnObjectiveStepSize4@COctopusScope@@QAEXXZ 004149f0 f   OctopusScope.obj
 0001:00013a30       ?GetPosition@COctopusScope@@QAEXXZ 00414a30 f   OctopusScope.obj
 0001:00013c20       ?DisplayPosition@COctopusScope@@IAEXXZ 00414c20 f   OctopusScope.obj
 0001:00013cd0       ?OnObj_1@COctopusScope@@QAEXXZ 00414cd0 f   OctopusScope.obj
 0001:00013d00       ?OnObj_2@COctopusScope@@QAEXXZ 00414d00 f   OctopusScope.obj
 0001:00013d30       ?OnObj_3@COctopusScope@@QAEXXZ 00414d30 f   OctopusScope.obj
 0001:00013d60       ?OnObj_4@COctopusScope@@QAEXXZ 00414d60 f   OctopusScope.obj
 0001:00013d90       ?OnObj_5@COctopusScope@@QAEXXZ 00414d90 f   OctopusScope.obj
 0001:00013dc0       ?OnObj_6@COctopusScope@@QAEXXZ 00414dc0 f   OctopusScope.obj
 0001:00013df0       ?OnFW_1@COctopusScope@@QAEXXZ 00414df0 f   OctopusScope.obj
 0001:00013e20       ?OnFW_2@COctopusScope@@QAEXXZ 00414e20 f   OctopusScope.obj
 0001:00013e50       ?OnFW_3@COctopusScope@@QAEXXZ 00414e50 f   OctopusScope.obj
 0001:00013e80       ?OnFW_4@COctopusScope@@QAEXXZ 00414e80 f   OctopusScope.obj
 0001:00013eb0       ?OnFW_5@COctopusScope@@QAEXXZ 00414eb0 f   OctopusScope.obj
 0001:00013ee0       ?OnFW_6@COctopusScope@@QAEXXZ 00414ee0 f   OctopusScope.obj
 0001:00013f10       ?OnBFW_1@COctopusScope@@QAEXXZ 00414f10 f   OctopusScope.obj
 0001:00013f40       ?OnBFW_2@COctopusScope@@QAEXXZ 00414f40 f   OctopusScope.obj
 0001:00013f70       ?OnBFW_3@COctopusScope@@QAEXXZ 00414f70 f   OctopusScope.obj
 0001:00013fa0       ?OnBFW_4@COctopusScope@@QAEXXZ 00414fa0 f   OctopusScope.obj
 0001:00013fd0       ?OnBFW_5@COctopusScope@@QAEXXZ 00414fd0 f   OctopusScope.obj
 0001:00014000       ?OnBFW_6@COctopusScope@@QAEXXZ 00415000 f   OctopusScope.obj
 0001:00014030       ?Objective@COctopusScope@@QAEXH@Z 00415030 f   OctopusScope.obj
 0001:00014340       ?GetObj@COctopusScope@@IAEHXZ 00415340 f   OctopusScope.obj
 0001:000144f0       ?GetFW@COctopusScope@@IAEHXZ 004154f0 f   OctopusScope.obj
 0001:000146a0       ?GetBFW@COctopusScope@@IAEHXZ 004156a0 f   OctopusScope.obj
 0001:00014850       ?EpiFilterWheel@COctopusScope@@QAEXH@Z 00415850 f   OctopusScope.obj
 0001:00014920       ?BrightFieldFilterWheel@COctopusScope@@QAEXH@Z 00415920 f   OctopusScope.obj
 0001:000149f0       ?ChangePath@COctopusScope@@QAEXXZ 004159f0 f   OctopusScope.obj
 0001:00014a70       ?BrightField@COctopusScope@@QAEXH@Z 00415a70 f   OctopusScope.obj
 0001:00014b40       ?OnNMCustomdrawExecute@COctopusScope@@IAEXPAUtagNMHDR@@PAJ@Z 00415b40 f   OctopusScope.obj
 0001:00014ba0       ?DisplayBFIntensity@COctopusScope@@IAEXH@Z 00415ba0 f   OctopusScope.obj
 0001:00014c60       ?WriteScope@COctopusScope@@IAE_NV?$CStringT@DV?$StrTraitMFC_DLL@DV?$ChTraitsCRT@D@ATL@@@@@ATL@@@Z 00415c60 f   OctopusScope.obj
 0001:00014d80       ?ReadScope@COctopusScope@@IAE?AV?$CStringT@DV?$StrTraitMFC_DLL@DV?$ChTraitsCRT@D@ATL@@@@@ATL@@G@Z 00415d80 f   OctopusScope.obj
 0001:00014e50       ?OnCommand@COctopusScope@@MAEHIJ@Z 00415e50 f   OctopusScope.obj
 0001:000157f0       ??_GCOctopusScope@@UAEPAXI@Z 004167f0 f i OctopusScope.obj
 0001:000157f0       ??_ECOctopusScope@@UAEPAXI@Z 004167f0 f i OctopusScope.obj
 0001:00015830       ??0COctopusScript@@QAE@PAVCWnd@@@Z 00416830 f   OctopusScript.obj
 0001:000159c0       ?DoDataExchange@COctopusScript@@MAEXPAVCDataExchange@@@Z 004169c0 f   OctopusScript.obj
 0001:00015a40       ?GetMessageMap@COctopusScript@@MBEPBUAFX_MSGMAP@@XZ 00416a40 f   OctopusScript.obj
 0001:00015a50       ?GetThisMessageMap@COctopusScript@@KGPBUAFX_MSGMAP@@XZ 00416a50 f   OctopusScript.obj
 0001:00015a60       ??1COctopusScript@@UAE@XZ  00416a60 f   OctopusScript.obj
 0001:00015b20       ?OnButtonSeqLoad@COctopusScript@@IAEXXZ 00416b20 f   OctopusScript.obj
 0001:000160b0       ?OnButtonSeqRun@COctopusScript@@IAEXXZ 004170b0 f   OctopusScript.obj
 0001:000161c0       ?OnButtonSeqStop@COctopusScript@@IAEXXZ 004171c0 f   OctopusScript.obj
 0001:00016210       ?OnTimer@COctopusScript@@IAEXI@Z 00417210 f   OctopusScript.obj
 0001:00018370       ??_GCOctopusScript@@UAEPAXI@Z 00419370 f i OctopusScript.obj
 0001:00018370       ??_ECOctopusScript@@UAEPAXI@Z 00419370 f i OctopusScript.obj
 0001:000183b0       ??0COctopusShutterAndWheel@@QAE@PAVCWnd@@@Z 004193b0 f   OctopusShutter.obj
 0001:000184e0       ?DoDataExchange@COctopusShutterAndWheel@@MAEXPAVCDataExchange@@@Z 004194e0 f   OctopusShutter.obj
 0001:00018570       ?GetMessageMap@COctopusShutterAndWheel@@MBEPBUAFX_MSGMAP@@XZ 00419570 f   OctopusShutter.obj
 0001:00018580       ?GetThisMessageMap@COctopusShutterAndWheel@@KGPBUAFX_MSGMAP@@XZ 00419580 f   OctopusShutter.obj
 0001:00018590       ?OnInitDialog@COctopusShutterAndWheel@@MAEHXZ 00419590 f   OctopusShutter.obj
 0001:00018650       ??1COctopusShutterAndWheel@@UAE@XZ 00419650 f   OctopusShutter.obj
 0001:00018710       ?OnSnap@COctopusShutterAndWheel@@QAEXXZ 00419710 f   OctopusShutter.obj
 0001:000187c0       ?Loadem@COctopusShutterAndWheel@@IAEXXZ 004197c0 f   OctopusShutter.obj
 0001:00018bf0       ?ShutterOpen@COctopusShutterAndWheel@@QAEXXZ 00419bf0 f   OctopusShutter.obj
 0001:00018c70       ?ShutterPartial@COctopusShutterAndWheel@@QAEXE@Z 00419c70 f   OctopusShutter.obj
 0001:00018d30       ?ShutterClose@COctopusShutterAndWheel@@QAEXXZ 00419d30 f   OctopusShutter.obj
 0001:00018dc0       ?Filter@COctopusShutterAndWheel@@QAEXE@Z 00419dc0 f   OctopusShutter.obj
 0001:00018e50       ?ShutterReady@COctopusShutterAndWheel@@QAE_NXZ 00419e50 f   OctopusShutter.obj
 0001:00018e80       ?Read@COctopusShutterAndWheel@@IAEKPAXKPAK@Z 00419e80 f   OctopusShutter.obj
 0001:00018eb0       ?SetBaudRate@COctopusShutterAndWheel@@IAEKK@Z 00419eb0 f   OctopusShutter.obj
 0001:00018ee0       ?SetLatencyTimer@COctopusShutterAndWheel@@IAEKE@Z 00419ee0 f   OctopusShutter.obj
 0001:00018f10       ?SetUSBParameters@COctopusShutterAndWheel@@IAEKKK@Z 00419f10 f   OctopusShutter.obj
 0001:00018f40       ?Write@COctopusShutterAndWheel@@IAEKPAXKPAK@Z 00419f40 f   OctopusShutter.obj
 0001:00018f70       ?Open@COctopusShutterAndWheel@@IAEKPAX@Z 00419f70 f   OctopusShutter.obj
 0001:00018fa0       ?OpenEx@COctopusShutterAndWheel@@IAEKPAXK@Z 00419fa0 f   OctopusShutter.obj
 0001:00018fd0       ?ListDevices@COctopusShutterAndWheel@@IAEKPAX0K@Z 00419fd0 f   OctopusShutter.obj
 0001:00019000       ?Close@COctopusShutterAndWheel@@IAEKXZ 0041a000 f   OctopusShutter.obj
 0001:00019020       ?ResetDevice@COctopusShutterAndWheel@@IAEKXZ 0041a020 f   OctopusShutter.obj
 0001:00019040       ?Purge@COctopusShutterAndWheel@@IAEKK@Z 0041a040 f   OctopusShutter.obj
 0001:00019070       ?SetTimeouts@COctopusShutterAndWheel@@IAEKKK@Z 0041a070 f   OctopusShutter.obj
 0001:000190a0       ?GetQueueStatus@COctopusShutterAndWheel@@IAEKPAK@Z 0041a0a0 f   OctopusShutter.obj
 0001:000190d0       ?OnCommand@COctopusShutterAndWheel@@MAEHIJ@Z 0041a0d0 f   OctopusShutter.obj
 0001:00019120       ?OnNMCustomdrawExecute@COctopusShutterAndWheel@@QAEXPAUtagNMHDR@@PAJ@Z 0041a120 f   OctopusShutter.obj
 0001:00019180       ?UpdateShutterVal@COctopusShutterAndWheel@@IAEXXZ 0041a180 f   OctopusShutter.obj
 0001:00019240       ?OnBnClickedImageJ@COctopusShutterAndWheel@@QAEXXZ 0041a240 f   OctopusShutter.obj
 0001:00019280       ?OnKillFocusGeneral@COctopusShutterAndWheel@@IAEXXZ 0041a280 f   OctopusShutter.obj
 0001:00019330       ?OnBnClickedReturnfiltercontrol@COctopusShutterAndWheel@@QAEXXZ 0041a330 f   OctopusShutter.obj
 0001:00019780       ??_ECOctopusShutterAndWheel@@UAEPAXI@Z 0041a780 f i OctopusShutter.obj
 0001:00019780       ??_GCOctopusShutterAndWheel@@UAEPAXI@Z 0041a780 f i OctopusShutter.obj
 0001:000197c0       ??0COctopusStage545@@QAE@PAVCWnd@@@Z 0041a7c0 f   OctopusStage545.obj
 0001:000198f0       ?OnTimer@COctopusStage545@@QAEXI@Z 0041a8f0 f   OctopusStage545.obj
 0001:00019a40       ?DoDataExchange@COctopusStage545@@MAEXPAVCDataExchange@@@Z 0041aa40 f   OctopusStage545.obj
 0001:00019b30       ?GetMessageMap@COctopusStage545@@MBEPBUAFX_MSGMAP@@XZ 0041ab30 f   OctopusStage545.obj
 0001:00019b40       ?GetThisMessageMap@COctopusStage545@@KGPBUAFX_MSGMAP@@XZ 0041ab40 f   OctopusStage545.obj
 0001:00019b50       ?OnKillfocusGeneral@COctopusStage545@@QAEXXZ 0041ab50 f   OctopusStage545.obj
 0001:00019b70       ??1COctopusStage545@@UAE@XZ 0041ab70 f   OctopusStage545.obj
 0001:00019c20       ?MoveLeft@COctopusStage545@@QAEXXZ 0041ac20 f   OctopusStage545.obj
 0001:00019c50       ?MoveRight@COctopusStage545@@QAEXXZ 0041ac50 f   OctopusStage545.obj
 0001:00019c80       ?MoveBack@COctopusStage545@@QAEXXZ 0041ac80 f   OctopusStage545.obj
 0001:00019cb0       ?MoveFwd@COctopusStage545@@QAEXXZ 0041acb0 f   OctopusStage545.obj
 0001:00019ce0       ?MoveUp@COctopusStage545@@QAEXXZ 0041ace0 f   OctopusStage545.obj
 0001:00019d10       ?MoveDown@COctopusStage545@@QAEXXZ 0041ad10 f   OctopusStage545.obj
 0001:00019d40       ?MoveRelX@COctopusStage545@@QAEXN@Z 0041ad40 f   OctopusStage545.obj
 0001:00019d70       ?MoveRelY@COctopusStage545@@QAEXN@Z 0041ad70 f   OctopusStage545.obj
 0001:00019da0       ?MoveRelZ@COctopusStage545@@QAEXN@Z 0041ada0 f   OctopusStage545.obj
 0001:00019dd0       ?OnStepSize1@COctopusStage545@@QAEXXZ 0041add0 f   OctopusStage545.obj
 0001:00019e10       ?OnStepSize2@COctopusStage545@@QAEXXZ 0041ae10 f   OctopusStage545.obj
 0001:00019e50       ?OnStepSize3@COctopusStage545@@QAEXXZ 0041ae50 f   OctopusStage545.obj
 0001:00019e90       ?OnStepSize4@COctopusStage545@@QAEXXZ 0041ae90 f   OctopusStage545.obj
 0001:00019ed0       ?OnStepSize5@COctopusStage545@@QAEXXZ 0041aed0 f   OctopusStage545.obj
 0001:00019f00       ?InitializeStage@COctopusStage545@@QAEHXZ 0041af00 f   OctopusStage545.obj
 0001:0001a060       ?GetPosition@COctopusStage545@@QAEXXZ 0041b060 f   OctopusStage545.obj
 0001:0001a0c0       ?Close@COctopusStage545@@QAEXXZ 0041b0c0 f   OctopusStage545.obj
 0001:0001a120       ?StageCenter@COctopusStage545@@QAEXXZ 0041b120 f   OctopusStage545.obj
 0001:0001a1f0       ?OnSave@COctopusStage545@@QAEXXZ 0041b1f0 f   OctopusStage545.obj
 0001:0001a320       ?OnSaveGoTo@COctopusStage545@@QAEXXZ 0041b320 f   OctopusStage545.obj
 0001:0001a400       ?ShowPosition@COctopusStage545@@IAEXXZ 0041b400 f   OctopusStage545.obj
 0001:0001a4b0       ?OnCommand@COctopusStage545@@MAEHIJ@Z 0041b4b0 f   OctopusStage545.obj
 0001:0001a500       ?OnBnClickedButtonGotoxy@COctopusStage545@@QAEXXZ 0041b500 f   OctopusStage545.obj
 0001:0001abf0       ??_ECOctopusStage545@@UAEPAXI@Z 0041bbf0 f i OctopusStage545.obj
 0001:0001abf0       ??_GCOctopusStage545@@UAEPAXI@Z 0041bbf0 f i OctopusStage545.obj
 0001:0001ac30       ?CreateObject@COctopusView@@SGPAVCObject@@XZ 0041bc30 f   OctopusView.obj
 0001:0001acb0       ?_GetBaseClass@COctopusView@@KGPAUCRuntimeClass@@XZ 0041bcb0 f   OctopusView.obj
 0001:0001acc0       ?GetThisClass@COctopusView@@SGPAUCRuntimeClass@@XZ 0041bcc0 f   OctopusView.obj
 0001:0001acd0       ?GetRuntimeClass@COctopusView@@UBEPAUCRuntimeClass@@XZ 0041bcd0 f   OctopusView.obj
 0001:0001ace0       ?GetMessageMap@COctopusView@@MBEPBUAFX_MSGMAP@@XZ 0041bce0 f   OctopusView.obj
 0001:0001acf0       ?GetThisMessageMap@COctopusView@@KGPBUAFX_MSGMAP@@XZ 0041bcf0 f   OctopusView.obj
 0001:0001ad00       ?DoDataExchange@COctopusView@@MAEXPAVCDataExchange@@@Z 0041bd00 f   OctopusView.obj
 0001:0001ad20       ??0COctopusView@@IAE@XZ    0041bd20 f   OctopusView.obj
 0001:0001ad60       ?OnInitialUpdate@COctopusView@@MAEXXZ 0041bd60 f   OctopusView.obj
 0001:0001af20       ??1COctopusView@@UAE@XZ    0041bf20 f   OctopusView.obj
 0001:0001b410       ?OnOpenAndor@COctopusView@@IAEXXZ 0041c410 f   OctopusView.obj
 0001:0001b550       ?OnOpenScript@COctopusView@@IAEXXZ 0041c550 f   OctopusView.obj
 0001:0001b670       ?OnOpenWheel@COctopusView@@IAEXXZ 0041c670 f   OctopusView.obj
 0001:0001b850       ?OnOpenLED@COctopusView@@IAEXXZ 0041c850 f   OctopusView.obj
 0001:0001b970       ?OnOpenScope@COctopusView@@IAEXXZ 0041c970 f   OctopusView.obj
 0001:0001ba90       ?OnOpenStage545@COctopusView@@IAEXXZ 0041ca90 f   OctopusView.obj
 0001:0001bc60       ?OnOpenPiezo@COctopusView@@IAEXXZ 0041cc60 f   OctopusView.obj
 0001:0001be50       ?OnBnClickedStatusOpenFocus@COctopusView@@QAEXXZ 0041ce50 f   OctopusView.obj
 0001:0001c030       ?OnOpenXCite@COctopusView@@IAEXXZ 0041d030 f   OctopusView.obj
 0001:0001c650       ?get_accChild@CFormView@@UAEJUtagVARIANT@@PAPAUIDispatch@@@Z 0041d650 f i OctopusView.obj
 0001:0001c6a0       ?get_accChildCount@CFormView@@UAEJPAJ@Z 0041d6a0 f i OctopusView.obj
 0001:0001c6d0       ?get_accName@CFormView@@UAEJUtagVARIANT@@PAPA_W@Z 0041d6d0 f i OctopusView.obj
 0001:0001c720       ?accLocation@CFormView@@UAEJPAJ000UtagVARIANT@@@Z 0041d720 f i OctopusView.obj
 0001:0001c780       ?accHitTest@CFormView@@UAEJJJPAUtagVARIANT@@@Z 0041d780 f i OctopusView.obj
 0001:0001c7b0       ??_ECOctopusView@@UAEPAXI@Z 0041d7b0 f i OctopusView.obj
 0001:0001c7b0       ??_GCOctopusView@@UAEPAXI@Z 0041d7b0 f i OctopusView.obj
 0001:0001c7f0       ??0COctopusGlobals@@QAE@XZ 0041d7f0 f i OctopusView.obj
 0001:0001c820       ??1COctopusGlobals@@QAE@XZ 0041d820 f i OctopusView.obj
 0001:0001c848       _olDaInitialize@8          0041d848 f   oldaapi32:oldaapi32.dll
 0001:0001c84e       _olDaTerminate@4           0041d84e f   oldaapi32:oldaapi32.dll
 0001:0001c854       _olDaReleaseDASS@4         0041d854 f   oldaapi32:oldaapi32.dll
 0001:0001c85a       _olDaPutSingleValue@20     0041d85a f   oldaapi32:oldaapi32.dll
 0001:0001c860       _olDaConfig@4              0041d860 f   oldaapi32:oldaapi32.dll
 0001:0001c866       _olDaSetDataFlow@8         0041d866 f   oldaapi32:oldaapi32.dll
 0001:0001c86c       _olDaGetDASS@16            0041d86c f   oldaapi32:oldaapi32.dll
 0001:0001c880       _slevmar_der               0041d880 f   levmar:lm.obj
 0001:0001da40       _slevmar_dif               0041ea40 f   levmar:lm.obj
 0001:0001ef60       _dlevmar_der               0041ff60 f   levmar:lm.obj
 0001:00020060       _dlevmar_dif               00421060 f   levmar:lm.obj
 0001:000214e0       _slevmar_trans_mat_mat_mult 004224e0 f   levmar:misc.obj
 0001:00021530       _slevmar_fdif_forw_jac_approx 00422530 f   levmar:misc.obj
 0001:00021730       _slevmar_fdif_cent_jac_approx 00422730 f   levmar:misc.obj
 0001:00021950       _slevmar_chkjac            00422950 f   levmar:misc.obj
 0001:000220b0       _slevmar_covar             004230b0 f   levmar:misc.obj
 0001:00022150       _slevmar_stddev            00423150 f   levmar:misc.obj
 0001:00022170       _slevmar_corcoef           00423170 f   levmar:misc.obj
 0001:000221c0       _slevmar_R2                004231c0 f   levmar:misc.obj
 0001:00022310       _slevmar_box_check         00423310 f   levmar:misc.obj
 0001:00022360       _slevmar_chol              00423360 f   levmar:misc.obj
 0001:00022470       _slevmar_L2nrmxmy          00423470 f   levmar:misc.obj
 0001:00022910       _dlevmar_trans_mat_mat_mult 00423910 f   levmar:misc.obj
 0001:00022960       _dlevmar_fdif_forw_jac_approx 00423960 f   levmar:misc.obj
 0001:00022b40       _dlevmar_fdif_cent_jac_approx 00423b40 f   levmar:misc.obj
 0001:00022d50       _dlevmar_chkjac            00423d50 f   levmar:misc.obj
 0001:000233f0       _dlevmar_covar             004243f0 f   levmar:misc.obj
 0001:00023490       _dlevmar_stddev            00424490 f   levmar:misc.obj
 0001:000234b0       _dlevmar_corcoef           004244b0 f   levmar:misc.obj
 0001:000234f0       _dlevmar_R2                004244f0 f   levmar:misc.obj
 0001:00023600       _dlevmar_box_check         00424600 f   levmar:misc.obj
 0001:00023650       _dlevmar_chol              00424650 f   levmar:misc.obj
 0001:00023770       _dlevmar_L2nrmxmy          00424770 f   levmar:misc.obj
 0001:00023aa0       _dAx_eq_b_QR               00424aa0 f   levmar:Axb.obj
 0001:00023d70       _dAx_eq_b_QRLS             00424d70 f   levmar:Axb.obj
 0001:00024170       _dAx_eq_b_Chol             00425170 f   levmar:Axb.obj
 0001:000242f0       _dAx_eq_b_LU               004252f0 f   levmar:Axb.obj
 0001:000244b0       _dAx_eq_b_SVD              004254b0 f   levmar:Axb.obj
 0001:000247b0       _dAx_eq_b_BK               004257b0 f   levmar:Axb.obj
 0001:000249c0       _sAx_eq_b_QR               004259c0 f   levmar:Axb.obj
 0001:00024c90       _sAx_eq_b_QRLS             00425c90 f   levmar:Axb.obj
 0001:00025090       _sAx_eq_b_Chol             00426090 f   levmar:Axb.obj
 0001:00025210       _sAx_eq_b_LU               00426210 f   levmar:Axb.obj
 0001:000253e0       _sAx_eq_b_SVD              004263e0 f   levmar:Axb.obj
 0001:000256f0       _sAx_eq_b_BK               004266f0 f   levmar:Axb.obj
 0001:000258f6       ??3@YAXPAX@Z               004268f6 f   mfc100d:mfc100d.dll
 0001:000258fc       ??3CObject@@SGXPAX@Z       004268fc f   mfc100d:mfc100d.dll
 0001:00025902       ??2CObject@@SGPAXI@Z       00426902 f   mfc100d:mfc100d.dll
 0001:00025908       ??0CWnd@@QAE@XZ            00426908 f   mfc100d:mfc100d.dll
 0001:0002590e       ?Serialize@CObject@@UAEXAAVCArchive@@@Z 0042690e f   mfc100d:mfc100d.dll
 0001:00025914       ?AssertValid@CWnd@@UBEXXZ  00426914 f   mfc100d:mfc100d.dll
 0001:0002591a       ?Dump@CWnd@@UBEXAAVCDumpContext@@@Z 0042691a f   mfc100d:mfc100d.dll
 0001:00025920       ?OnCmdMsg@CCmdTarget@@UAEHIHPAXPAUAFX_CMDHANDLERINFO@@@Z 00426920 f   mfc100d:mfc100d.dll
 0001:00025926       ?OnFinalRelease@CWnd@@UAEXXZ 00426926 f   mfc100d:mfc100d.dll
 0001:0002592c       ?IsInvokeAllowed@CCmdTarget@@UAEHJ@Z 0042692c f   mfc100d:mfc100d.dll
 0001:00025932       ?GetDispatchIID@CCmdTarget@@UAEHPAU_GUID@@@Z 00426932 f   mfc100d:mfc100d.dll
 0001:00025938       ?GetTypeInfoCount@CCmdTarget@@UAEIXZ 00426938 f   mfc100d:mfc100d.dll
 0001:0002593e       ?GetTypeLibCache@CCmdTarget@@UAEPAVCTypeLibCache@@XZ 0042693e f   mfc100d:mfc100d.dll
 0001:00025944       ?GetTypeLib@CCmdTarget@@UAEJKPAPAUITypeLib@@@Z 00426944 f   mfc100d:mfc100d.dll
 0001:0002594a       ?GetMessageMap@CWnd@@MBEPBUAFX_MSGMAP@@XZ 0042694a f   mfc100d:mfc100d.dll
 0001:00025950       ?GetCommandMap@CCmdTarget@@MBEPBUAFX_OLECMDMAP@@XZ 00426950 f   mfc100d:mfc100d.dll
 0001:00025956       ?GetDispatchMap@CCmdTarget@@MBEPBUAFX_DISPMAP@@XZ 00426956 f   mfc100d:mfc100d.dll
 0001:0002595c       ?GetConnectionMap@CCmdTarget@@MBEPBUAFX_CONNECTIONMAP@@XZ 0042695c f   mfc100d:mfc100d.dll
 0001:00025962       ?GetInterfaceMap@CWnd@@MBEPBUAFX_INTERFACEMAP@@XZ 00426962 f   mfc100d:mfc100d.dll
 0001:00025968       ?GetEventSinkMap@CCmdTarget@@MBEPBUAFX_EVENTSINKMAP@@XZ 00426968 f   mfc100d:mfc100d.dll
 0001:0002596e       ?OnCreateAggregates@CCmdTarget@@UAEHXZ 0042696e f   mfc100d:mfc100d.dll
 0001:00025974       ?GetInterfaceHook@CCmdTarget@@UAEPAUIUnknown@@PBX@Z 00426974 f   mfc100d:mfc100d.dll
 0001:0002597a       ?GetExtraConnectionPoints@CCmdTarget@@MAEHPAVCPtrArray@@@Z 0042697a f   mfc100d:mfc100d.dll
 0001:00025980       ?GetConnectionHook@CCmdTarget@@MAEPAUIConnectionPoint@@ABU_GUID@@@Z 00426980 f   mfc100d:mfc100d.dll
 0001:00025986       ?PreSubclassWindow@CWnd@@UAEXXZ 00426986 f   mfc100d:mfc100d.dll
 0001:0002598c       ?CreateEx@CWnd@@UAEHKPBD0KABUtagRECT@@PAV1@IPAX@Z 0042698c f   mfc100d:mfc100d.dll
 0001:00025992       ?CreateEx@CWnd@@UAEHKPBD0KHHHHPAUHWND__@@PAUHMENU__@@PAX@Z 00426992 f   mfc100d:mfc100d.dll
 0001:00025998       ?DestroyWindow@CWnd@@UAEHXZ 00426998 f   mfc100d:mfc100d.dll
 0001:0002599e       ?PreCreateWindow@CWnd@@UAEHAAUtagCREATESTRUCTA@@@Z 0042699e f   mfc100d:mfc100d.dll
 0001:000259a4       ?CalcWindowRect@CWnd@@UAEXPAUtagRECT@@I@Z 004269a4 f   mfc100d:mfc100d.dll
 0001:000259aa       ?GetMenu@CWnd@@UBEPAVCMenu@@XZ 004269aa f   mfc100d:mfc100d.dll
 0001:000259b0       ?SetMenu@CWnd@@UAEHPAVCMenu@@@Z 004269b0 f   mfc100d:mfc100d.dll
 0001:000259b6       ?OnToolHitTest@CWnd@@UBEHVCPoint@@PAUtagTOOLINFOA@@@Z 004269b6 f   mfc100d:mfc100d.dll
 0001:000259bc       ?GetScrollBarCtrl@CWnd@@UBEPAVCScrollBar@@H@Z 004269bc f   mfc100d:mfc100d.dll
 0001:000259c2       ?WinHelpA@CWnd@@UAEXKI@Z   004269c2 f   mfc100d:mfc100d.dll
 0001:000259c8       ?HtmlHelpA@CWnd@@UAEXKI@Z  004269c8 f   mfc100d:mfc100d.dll
 0001:000259ce       ?WinHelpInternal@CWnd@@UAEXKI@Z 004269ce f   mfc100d:mfc100d.dll
 0001:000259d4       ?ContinueModal@CWnd@@UAEHXZ 004269d4 f   mfc100d:mfc100d.dll
 0001:000259da       ?EndModalLoop@CWnd@@UAEXH@Z 004269da f   mfc100d:mfc100d.dll
 0001:000259e0       ?OnDrawIconicThumbnailOrLivePreview@CWnd@@UAEXAAVCDC@@VCRect@@VCSize@@HAAH@Z 004269e0 f   mfc100d:mfc100d.dll
 0001:000259e6       ?EnsureStdObj@CWnd@@UAEJXZ 004269e6 f   mfc100d:mfc100d.dll
 0001:000259ec       ?get_accParent@CWnd@@UAEJPAPAUIDispatch@@@Z 004269ec f   mfc100d:mfc100d.dll
 0001:000259f2       ?get_accChildCount@CWnd@@UAEJPAJ@Z 004269f2 f   mfc100d:mfc100d.dll
 0001:000259f8       ?get_accChild@CWnd@@UAEJUtagVARIANT@@PAPAUIDispatch@@@Z 004269f8 f   mfc100d:mfc100d.dll
 0001:000259fe       ?get_accName@CWnd@@UAEJUtagVARIANT@@PAPA_W@Z 004269fe f   mfc100d:mfc100d.dll
 0001:00025a04       ?get_accValue@CWnd@@UAEJUtagVARIANT@@PAPA_W@Z 00426a04 f   mfc100d:mfc100d.dll
 0001:00025a0a       ?get_accDescription@CWnd@@UAEJUtagVARIANT@@PAPA_W@Z 00426a0a f   mfc100d:mfc100d.dll
 0001:00025a10       ?get_accRole@CWnd@@UAEJUtagVARIANT@@PAU2@@Z 00426a10 f   mfc100d:mfc100d.dll
 0001:00025a16       ?get_accState@CWnd@@UAEJUtagVARIANT@@PAU2@@Z 00426a16 f   mfc100d:mfc100d.dll
 0001:00025a1c       ?get_accHelp@CWnd@@UAEJUtagVARIANT@@PAPA_W@Z 00426a1c f   mfc100d:mfc100d.dll
 0001:00025a22       ?get_accHelpTopic@CWnd@@UAEJPAPA_WUtagVARIANT@@PAJ@Z 00426a22 f   mfc100d:mfc100d.dll
 0001:00025a28       ?get_accKeyboardShortcut@CWnd@@UAEJUtagVARIANT@@PAPA_W@Z 00426a28 f   mfc100d:mfc100d.dll
 0001:00025a2e       ?get_accFocus@CWnd@@UAEJPAUtagVARIANT@@@Z 00426a2e f   mfc100d:mfc100d.dll
 0001:00025a34       ?get_accSelection@CWnd@@UAEJPAUtagVARIANT@@@Z 00426a34 f   mfc100d:mfc100d.dll
 0001:00025a3a       ?get_accDefaultAction@CWnd@@UAEJUtagVARIANT@@PAPA_W@Z 00426a3a f   mfc100d:mfc100d.dll
 0001:00025a40       ?accSelect@CWnd@@UAEJJUtagVARIANT@@@Z 00426a40 f   mfc100d:mfc100d.dll
 0001:00025a46       ?accLocation@CWnd@@UAEJPAJ000UtagVARIANT@@@Z 00426a46 f   mfc100d:mfc100d.dll
 0001:00025a4c       ?accNavigate@CWnd@@UAEJJUtagVARIANT@@PAU2@@Z 00426a4c f   mfc100d:mfc100d.dll
 0001:00025a52       ?accHitTest@CWnd@@UAEJJJPAUtagVARIANT@@@Z 00426a52 f   mfc100d:mfc100d.dll
 0001:00025a58       ?accDoDefaultAction@CWnd@@UAEJUtagVARIANT@@@Z 00426a58 f   mfc100d:mfc100d.dll
 0001:00025a5e       ?put_accName@CWnd@@UAEJUtagVARIANT@@PA_W@Z 00426a5e f   mfc100d:mfc100d.dll
 0001:00025a64       ?put_accValue@CWnd@@UAEJUtagVARIANT@@PA_W@Z 00426a64 f   mfc100d:mfc100d.dll
 0001:00025a6a       ?SetProxy@CWnd@@UAEJPAUIAccessibleProxy@@@Z 00426a6a f   mfc100d:mfc100d.dll
 0001:00025a70       ?CreateAccessibleProxy@CWnd@@UAEJIJPAJ@Z 00426a70 f   mfc100d:mfc100d.dll
 0001:00025a76       ?OnCommand@CWnd@@MAEHIJ@Z  00426a76 f   mfc100d:mfc100d.dll
 0001:00025a7c       ?OnNotify@CWnd@@MAEHIJPAJ@Z 00426a7c f   mfc100d:mfc100d.dll
 0001:00025a82       ?GetSuperWndProcAddr@CWnd@@MAEPAP6GJPAUHWND__@@IIJ@ZXZ 00426a82 f   mfc100d:mfc100d.dll
 0001:00025a88       ?DoDataExchange@CWnd@@MAEXPAVCDataExchange@@@Z 00426a88 f   mfc100d:mfc100d.dll
 0001:00025a8e       ?BeginModalState@CWnd@@UAEXXZ 00426a8e f   mfc100d:mfc100d.dll
 0001:00025a94       ?EndModalState@CWnd@@UAEXXZ 00426a94 f   mfc100d:mfc100d.dll
 0001:00025a9a       ?PreTranslateMessage@CWnd@@UAEHPAUtagMSG@@@Z 00426a9a f   mfc100d:mfc100d.dll
 0001:00025aa0       ?OnAmbientProperty@CWnd@@UAEHPAVCOleControlSite@@JPAUtagVARIANT@@@Z 00426aa0 f   mfc100d:mfc100d.dll
 0001:00025aa6       ?WindowProc@CWnd@@MAEJIIJ@Z 00426aa6 f   mfc100d:mfc100d.dll
 0001:00025aac       ?OnWndMsg@CWnd@@MAEHIIJPAJ@Z 00426aac f   mfc100d:mfc100d.dll
 0001:00025ab2       ?DefWindowProcA@CWnd@@MAEJIIJ@Z 00426ab2 f   mfc100d:mfc100d.dll
 0001:00025ab8       ?PostNcDestroy@CWnd@@MAEXXZ 00426ab8 f   mfc100d:mfc100d.dll
 0001:00025abe       ?OnChildNotify@CWnd@@MAEHIIJPAJ@Z 00426abe f   mfc100d:mfc100d.dll
 0001:00025ac4       ?OnTouchInputs@CWnd@@MAEHIPAUtagTOUCHINPUT@@@Z 00426ac4 f   mfc100d:mfc100d.dll
 0001:00025aca       ?OnTouchInput@CWnd@@MAEHVCPoint@@HHPAUtagTOUCHINPUT@@@Z 00426aca f   mfc100d:mfc100d.dll
 0001:00025ad0       ?GetGestureStatus@CWnd@@MAEKVCPoint@@@Z 00426ad0 f   mfc100d:mfc100d.dll
 0001:00025ad6       ?OnGestureZoom@CWnd@@MAEHVCPoint@@J@Z 00426ad6 f   mfc100d:mfc100d.dll
 0001:00025adc       ?OnGesturePan@CWnd@@MAEHVCPoint@@0@Z 00426adc f   mfc100d:mfc100d.dll
 0001:00025ae2       ?OnGestureRotate@CWnd@@MAEHVCPoint@@N@Z 00426ae2 f   mfc100d:mfc100d.dll
 0001:00025ae8       ?OnGestureTwoFingerTap@CWnd@@MAEHVCPoint@@@Z 00426ae8 f   mfc100d:mfc100d.dll
 0001:00025aee       ?OnGesturePressAndTap@CWnd@@MAEHVCPoint@@J@Z 00426aee f   mfc100d:mfc100d.dll
 0001:00025af4       ?CheckAutoCenter@CWnd@@UAEHXZ 00426af4 f   mfc100d:mfc100d.dll
 0001:00025afa       ?IsFrameWnd@CWnd@@UBEHXZ   00426afa f   mfc100d:mfc100d.dll
 0001:00025b00       ?CreateControlContainer@CWnd@@MAEHPAPAVCOleControlContainer@@@Z 00426b00 f   mfc100d:mfc100d.dll
 0001:00025b06       ?CreateControlSite@CWnd@@MAEHPAVCOleControlContainer@@PAPAVCOleControlSite@@IABU_GUID@@@Z 00426b06 f   mfc100d:mfc100d.dll
 0001:00025b0c       ?SetOccDialogInfo@CWnd@@MAEHPAU_AFX_OCC_DIALOG_INFO@@@Z 00426b0c f   mfc100d:mfc100d.dll
 0001:00025b12       ?GetOccDialogInfo@CWnd@@MAEPAU_AFX_OCC_DIALOG_INFO@@XZ 00426b12 f   mfc100d:mfc100d.dll
 0001:00025b18       ?CreateControl@CWnd@@QAEHABU_GUID@@PBDKABUtagRECT@@PAV1@IPAVCFile@@HPA_W@Z 00426b18 f   mfc100d:mfc100d.dll
 0001:00025b1e       ??1CWnd@@UAE@XZ            00426b1e f   mfc100d:mfc100d.dll
 0001:00025b24       ?GetThisClass@CWnd@@SGPAUCRuntimeClass@@XZ 00426b24 f   mfc100d:mfc100d.dll
 0001:00025b2a       ??0?$CStringT@DV?$StrTraitMFC_DLL@DV?$ChTraitsCRT@D@ATL@@@@@ATL@@QAE@XZ 00426b2a f   mfc100d:mfc100d.dll
 0001:00025b30       ??1?$CStringT@DV?$StrTraitMFC_DLL@DV?$ChTraitsCRT@D@ATL@@@@@ATL@@QAE@XZ 00426b30 f   mfc100d:mfc100d.dll
 0001:00025b36       ??B?$CSimpleStringT@D$00@ATL@@QBEPBDXZ 00426b36 f   mfc100d:mfc100d.dll
 0001:00025b3c       ?GetThisClass@CDialog@@SGPAUCRuntimeClass@@XZ 00426b3c f   mfc100d:mfc100d.dll
 0001:00025b42       ??0CDialog@@QAE@IPAVCWnd@@@Z 00426b42 f   mfc100d:mfc100d.dll
 0001:00025b48       ?AssertValid@CDialog@@UBEXXZ 00426b48 f   mfc100d:mfc100d.dll
 0001:00025b4e       ?Dump@CDialog@@UBEXAAVCDumpContext@@@Z 00426b4e f   mfc100d:mfc100d.dll
 0001:00025b54       ?OnCmdMsg@CDialog@@UAEHIHPAXPAUAFX_CMDHANDLERINFO@@@Z 00426b54 f   mfc100d:mfc100d.dll
 0001:00025b5a       ?Create@CWnd@@UAEHPBD0KABUtagRECT@@PAV1@IPAUCCreateContext@@@Z 00426b5a f   mfc100d:mfc100d.dll
 0001:00025b60       ?PreTranslateMessage@CDialog@@UAEHPAUtagMSG@@@Z 00426b60 f   mfc100d:mfc100d.dll
 0001:00025b66       ?CheckAutoCenter@CDialog@@UAEHXZ 00426b66 f   mfc100d:mfc100d.dll
 0001:00025b6c       ?SetOccDialogInfo@CDialog@@MAEHPAU_AFX_OCC_DIALOG_INFO@@@Z 00426b6c f   mfc100d:mfc100d.dll
 0001:00025b72       ?GetOccDialogInfo@CDialog@@MAEPAU_AFX_OCC_DIALOG_INFO@@XZ 00426b72 f   mfc100d:mfc100d.dll
 0001:00025b78       ?Create@CDialog@@UAEHIPAVCWnd@@@Z 00426b78 f   mfc100d:mfc100d.dll
 0001:00025b7e       ?Create@CDialog@@UAEHPBDPAVCWnd@@@Z 00426b7e f   mfc100d:mfc100d.dll
 0001:00025b84       ?CreateIndirect@CDialog@@UAEHPAXPAVCWnd@@@Z 00426b84 f   mfc100d:mfc100d.dll
 0001:00025b8a       ?CreateIndirect@CDialog@@UAEHPBUDLGTEMPLATE@@PAVCWnd@@PAX@Z 00426b8a f   mfc100d:mfc100d.dll
 0001:00025b90       ?DoModal@CDialog@@UAEHXZ   00426b90 f   mfc100d:mfc100d.dll
 0001:00025b96       ?OnInitDialog@CDialog@@UAEHXZ 00426b96 f   mfc100d:mfc100d.dll
 0001:00025b9c       ?OnSetFont@CDialog@@UAEXPAVCFont@@@Z 00426b9c f   mfc100d:mfc100d.dll
 0001:00025ba2       ?OnOK@CDialog@@MAEXXZ      00426ba2 f   mfc100d:mfc100d.dll
 0001:00025ba8       ?OnCancel@CDialog@@MAEXXZ  00426ba8 f   mfc100d:mfc100d.dll
 0001:00025bae       ?PreInitDialog@CDialog@@MAEXXZ 00426bae f   mfc100d:mfc100d.dll
 0001:00025bb4       ??1CDialog@@UAE@XZ         00426bb4 f   mfc100d:mfc100d.dll
 0001:00025bba       ?GetThisMessageMap@CDialog@@KGPBUAFX_MSGMAP@@XZ 00426bba f   mfc100d:mfc100d.dll
 0001:00025bc0       ?GetThisClass@CFrameWnd@@SGPAUCRuntimeClass@@XZ 00426bc0 f   mfc100d:mfc100d.dll
 0001:00025bc6       ??0CFrameWnd@@QAE@XZ       00426bc6 f   mfc100d:mfc100d.dll
 0001:00025bcc       ?AssertValid@CFrameWnd@@UBEXXZ 00426bcc f   mfc100d:mfc100d.dll
 0001:00025bd2       ?Dump@CFrameWnd@@UBEXAAVCDumpContext@@@Z 00426bd2 f   mfc100d:mfc100d.dll
 0001:00025bd8       ?OnCmdMsg@CFrameWnd@@UAEHIHPAXPAUAFX_CMDHANDLERINFO@@@Z 00426bd8 f   mfc100d:mfc100d.dll
 0001:00025bde       ?GetMessageMap@CFrameWnd@@MBEPBUAFX_MSGMAP@@XZ 00426bde f   mfc100d:mfc100d.dll
 0001:00025be4       ?GetMenu@CFrameWnd@@UBEPAVCMenu@@XZ 00426be4 f   mfc100d:mfc100d.dll
 0001:00025bea       ?SetMenu@CFrameWnd@@UAEHPAVCMenu@@@Z 00426bea f   mfc100d:mfc100d.dll
 0001:00025bf0       ?OnCommand@CFrameWnd@@MAEHIJ@Z 00426bf0 f   mfc100d:mfc100d.dll
 0001:00025bf6       ?BeginModalState@CFrameWnd@@UAEXXZ 00426bf6 f   mfc100d:mfc100d.dll
 0001:00025bfc       ?EndModalState@CFrameWnd@@UAEXXZ 00426bfc f   mfc100d:mfc100d.dll
 0001:00025c02       ?PreTranslateMessage@CFrameWnd@@UAEHPAUtagMSG@@@Z 00426c02 f   mfc100d:mfc100d.dll
 0001:00025c08       ?PostNcDestroy@CFrameWnd@@MAEXXZ 00426c08 f   mfc100d:mfc100d.dll
 0001:00025c0e       ?IsFrameWnd@CFrameWnd@@UBEHXZ 00426c0e f   mfc100d:mfc100d.dll
 0001:00025c14       ?Create@CFrameWnd@@UAEHPBD0KABUtagRECT@@PAVCWnd@@0KPAUCCreateContext@@@Z 00426c14 f   mfc100d:mfc100d.dll
 0001:00025c1a       ?LoadFrame@CFrameWnd@@UAEHIKPAVCWnd@@PAUCCreateContext@@@Z 00426c1a f   mfc100d:mfc100d.dll
 0001:00025c20       ?GetActiveDocument@CFrameWnd@@UAEPAVCDocument@@XZ 00426c20 f   mfc100d:mfc100d.dll
 0001:00025c26       ?GetActiveFrame@CFrameWnd@@UAEPAV1@XZ 00426c26 f   mfc100d:mfc100d.dll
 0001:00025c2c       ?GetMessageString@CFrameWnd@@UBEXIAAV?$CStringT@DV?$StrTraitMFC_DLL@DV?$ChTraitsCRT@D@ATL@@@@@ATL@@@Z 00426c2c f   mfc100d:mfc100d.dll
 0001:00025c32       ?RecalcLayout@CFrameWnd@@UAEXH@Z 00426c32 f   mfc100d:mfc100d.dll
 0001:00025c38       ?ActivateFrame@CFrameWnd@@UAEXH@Z 00426c38 f   mfc100d:mfc100d.dll
 0001:00025c3e       ?SetMenuBarVisibility@CFrameWnd@@UAEXK@Z 00426c3e f   mfc100d:mfc100d.dll
 0001:00025c44       ?GetMenuBarVisibility@CFrameWnd@@UBEKXZ 00426c44 f   mfc100d:mfc100d.dll
 0001:00025c4a       ?SetMenuBarState@CFrameWnd@@UAEHK@Z 00426c4a f   mfc100d:mfc100d.dll
 0001:00025c50       ?GetMenuBarState@CFrameWnd@@UBEKXZ 00426c50 f   mfc100d:mfc100d.dll
 0001:00025c56       ?OnSetPreviewMode@CFrameWnd@@UAEXHPAUCPrintPreviewState@@@Z 00426c56 f   mfc100d:mfc100d.dll
 0001:00025c5c       ?GetMessageBar@CFrameWnd@@UAEPAVCWnd@@XZ 00426c5c f   mfc100d:mfc100d.dll
 0001:00025c62       ?NegotiateBorderSpace@CFrameWnd@@UAEHIPAUtagRECT@@@Z 00426c62 f   mfc100d:mfc100d.dll
 0001:00025c68       ?OnCreateClient@CFrameWnd@@MAEHPAUtagCREATESTRUCTA@@PAUCCreateContext@@@Z 00426c68 f   mfc100d:mfc100d.dll
 0001:00025c6e       ?OnUpdateFrameTitle@CFrameWnd@@UAEXH@Z 00426c6e f   mfc100d:mfc100d.dll
 0001:00025c74       ?OnUpdateFrameMenu@CFrameWnd@@UAEXPAUHMENU__@@@Z 00426c74 f   mfc100d:mfc100d.dll
 0001:00025c7a       ?GetDefaultAccelerator@CFrameWnd@@UAEPAUHACCEL__@@XZ 00426c7a f   mfc100d:mfc100d.dll
 0001:00025c80       ?DelayUpdateFrameMenu@CFrameWnd@@UAEXPAUHMENU__@@@Z 00426c80 f   mfc100d:mfc100d.dll
 0001:00025c86       ?ExitHelpMode@CFrameWnd@@UAEXXZ 00426c86 f   mfc100d:mfc100d.dll
 0001:00025c8c       ?OnShowMenuBar@CFrameWnd@@MAEXXZ 00426c8c f   mfc100d:mfc100d.dll
 0001:00025c92       ?OnHideMenuBar@CFrameWnd@@MAEXXZ 00426c92 f   mfc100d:mfc100d.dll
 0001:00025c98       ??1CFrameWnd@@UAE@XZ       00426c98 f   mfc100d:mfc100d.dll
 0001:00025c9e       ?PreCreateWindow@CFrameWnd@@MAEHAAUtagCREATESTRUCTA@@@Z 00426c9e f   mfc100d:mfc100d.dll
 0001:00025ca4       ??0CWinApp@@QAE@PBD@Z      00426ca4 f   mfc100d:mfc100d.dll
 0001:00025caa       ?GetRuntimeClass@CWinApp@@UBEPAUCRuntimeClass@@XZ 00426caa f   mfc100d:mfc100d.dll
 0001:00025cb0       ?AssertValid@CWinApp@@UBEXXZ 00426cb0 f   mfc100d:mfc100d.dll
 0001:00025cb6       ?Dump@CWinApp@@UBEXAAVCDumpContext@@@Z 00426cb6 f   mfc100d:mfc100d.dll
 0001:00025cbc       ?OnFinalRelease@CCmdTarget@@UAEXXZ 00426cbc f   mfc100d:mfc100d.dll
 0001:00025cc2       ?GetMessageMap@CWinApp@@MBEPBUAFX_MSGMAP@@XZ 00426cc2 f   mfc100d:mfc100d.dll
 0001:00025cc8       ?GetInterfaceMap@CCmdTarget@@MBEPBUAFX_INTERFACEMAP@@XZ 00426cc8 f   mfc100d:mfc100d.dll
 0001:00025cce       ?Run@CWinApp@@UAEHXZ       00426cce f   mfc100d:mfc100d.dll
 0001:00025cd4       ?PreTranslateMessage@CWinThread@@UAEHPAUtagMSG@@@Z 00426cd4 f   mfc100d:mfc100d.dll
 0001:00025cda       ?PumpMessage@CWinThread@@UAEHXZ 00426cda f   mfc100d:mfc100d.dll
 0001:00025ce0       ?OnIdle@CWinApp@@UAEHJ@Z   00426ce0 f   mfc100d:mfc100d.dll
 0001:00025ce6       ?IsIdleMessage@CWinThread@@UAEHPAUtagMSG@@@Z 00426ce6 f   mfc100d:mfc100d.dll
 0001:00025cec       ?ProcessWndProcException@CWinApp@@UAEJPAVCException@@PBUtagMSG@@@Z 00426cec f   mfc100d:mfc100d.dll
 0001:00025cf2       ?ProcessMessageFilter@CWinThread@@UAEHHPAUtagMSG@@@Z 00426cf2 f   mfc100d:mfc100d.dll
 0001:00025cf8       ?GetMainWnd@CWinThread@@UAEPAVCWnd@@XZ 00426cf8 f   mfc100d:mfc100d.dll
 0001:00025cfe       ?Delete@CWinThread@@UAEXXZ 00426cfe f   mfc100d:mfc100d.dll
 0001:00025d04       ?GetProfileIntA@CWinApp@@UAEIPBD0H@Z 00426d04 f   mfc100d:mfc100d.dll
 0001:00025d0a       ?WriteProfileInt@CWinApp@@UAEHPBD0H@Z 00426d0a f   mfc100d:mfc100d.dll
 0001:00025d10       ?GetProfileStringA@CWinApp@@UAE?AV?$CStringT@DV?$StrTraitMFC_DLL@DV?$ChTraitsCRT@D@ATL@@@@@ATL@@PBD00@Z 00426d10 f   mfc100d:mfc100d.dll
 0001:00025d16       ?WriteProfileStringA@CWinApp@@UAEHPBD00@Z 00426d16 f   mfc100d:mfc100d.dll
 0001:00025d1c       ?GetProfileBinary@CWinApp@@UAEHPBD0PAPAEPAI@Z 00426d1c f   mfc100d:mfc100d.dll
 0001:00025d22       ?WriteProfileBinary@CWinApp@@UAEHPBD0PAEI@Z 00426d22 f   mfc100d:mfc100d.dll
 0001:00025d28       ?InitLibId@CWinApp@@UAEXXZ 00426d28 f   mfc100d:mfc100d.dll
 0001:00025d2e       ?Register@CWinApp@@UAEHXZ  00426d2e f   mfc100d:mfc100d.dll
 0001:00025d34       ?Unregister@CWinApp@@UAEHXZ 00426d34 f   mfc100d:mfc100d.dll
 0001:00025d3a       ?OpenDocumentFile@CWinApp@@UAEPAVCDocument@@PBDH@Z 00426d3a f   mfc100d:mfc100d.dll
 0001:00025d40       ?OpenDocumentFile@CWinApp@@UAEPAVCDocument@@PBD@Z 00426d40 f   mfc100d:mfc100d.dll
 0001:00025d46       ?AddToRecentFileList@CWinApp@@UAEXPBD@Z 00426d46 f   mfc100d:mfc100d.dll
 0001:00025d4c       ?InitApplication@CWinApp@@UAEHXZ 00426d4c f   mfc100d:mfc100d.dll
 0001:00025d52       ?SaveAllModified@CWinApp@@UAEHXZ 00426d52 f   mfc100d:mfc100d.dll
 0001:00025d58       ?DoMessageBox@CWinApp@@UAEHPBDII@Z 00426d58 f   mfc100d:mfc100d.dll
 0001:00025d5e       ?DoWaitCursor@CWinApp@@UAEXH@Z 00426d5e f   mfc100d:mfc100d.dll
 0001:00025d64       ?OnDDECommand@CWinApp@@UAEHPAD@Z 00426d64 f   mfc100d:mfc100d.dll
 0001:00025d6a       ?WinHelpA@CWinApp@@UAEXKI@Z 00426d6a f   mfc100d:mfc100d.dll
 0001:00025d70       ?HtmlHelpA@CWinApp@@UAEXKI@Z 00426d70 f   mfc100d:mfc100d.dll
 0001:00025d76       ?WinHelpInternal@CWinApp@@UAEXKI@Z 00426d76 f   mfc100d:mfc100d.dll
 0001:00025d7c       ?RegisterWithRestartManager@CWinApp@@UAEJPB_WKP6GKPAX@Z1KK@Z 00426d7c f   mfc100d:mfc100d.dll
 0001:00025d82       ?RegisterWithRestartManager@CWinApp@@UAEJHABV?$CStringT@DV?$StrTraitMFC_DLL@DV?$ChTraitsCRT@D@ATL@@@@@ATL@@@Z 00426d82 f   mfc100d:mfc100d.dll
 0001:00025d88       ?ApplicationRecoveryCallback@CWinApp@@UAEKPAX@Z 00426d88 f   mfc100d:mfc100d.dll
 0001:00025d8e       ?GetDataRecoveryHandler@CWinApp@@UAEPAVCDataRecoveryHandler@@XZ 00426d8e f   mfc100d:mfc100d.dll
 0001:00025d94       ?IsTaskbarInteractionEnabled@CWinApp@@UAEHXZ 00426d94 f   mfc100d:mfc100d.dll
 0001:00025d9a       ?RestartInstance@CWinApp@@UAEHXZ 00426d9a f   mfc100d:mfc100d.dll
 0001:00025da0       ?LoadAppLangResourceDLL@CWinApp@@UAEPAUHINSTANCE__@@XZ 00426da0 f   mfc100d:mfc100d.dll
 0001:00025da6       ?LoadSysPolicies@CWinApp@@UAEHXZ 00426da6 f   mfc100d:mfc100d.dll
 0001:00025dac       ??1CWinApp@@UAE@XZ         00426dac f   mfc100d:mfc100d.dll
 0001:00025db2       ??1CCommandLineInfo@@UAE@XZ 00426db2 f   mfc100d:mfc100d.dll
 0001:00025db8       ?ProcessShellCommand@CWinApp@@QAEHAAVCCommandLineInfo@@@Z 00426db8 f   mfc100d:mfc100d.dll
 0001:00025dbe       ?ParseCommandLine@CWinApp@@QAEXAAVCCommandLineInfo@@@Z 00426dbe f   mfc100d:mfc100d.dll
 0001:00025dc4       ??0CCommandLineInfo@@QAE@XZ 00426dc4 f   mfc100d:mfc100d.dll
 0001:00025dca       ?AddDocTemplate@CWinApp@@QAEXPAVCDocTemplate@@@Z 00426dca f   mfc100d:mfc100d.dll
 0001:00025dd0       ??0CSingleDocTemplate@@QAE@IPAUCRuntimeClass@@00@Z 00426dd0 f   mfc100d:mfc100d.dll
 0001:00025dd6       ?LoadStdProfileSettings@CWinApp@@IAEXI@Z 00426dd6 f   mfc100d:mfc100d.dll
 0001:00025ddc       ?AfxEnableControlContainer@@YAXPAVCOccManager@@@Z 00426ddc f   mfc100d:mfc100d.dll
 0001:00025de2       ?ExitInstance@CWinApp@@UAEHXZ 00426de2 f   mfc100d:mfc100d.dll
 0001:00025de8       ??1CSliderCtrl@@UAE@XZ     00426de8 f   mfc100d:mfc100d.dll
 0001:00025dee       ??1CStatic@@UAE@XZ         00426dee f   mfc100d:mfc100d.dll
 0001:00025df4       ?SetTicFreq@CSliderCtrl@@QAEXH@Z 00426df4 f   mfc100d:mfc100d.dll
 0001:00025dfa       ?SetPos@CSliderCtrl@@QAEXH@Z 00426dfa f   mfc100d:mfc100d.dll
 0001:00025e00       ?SetRange@CSliderCtrl@@QAEXHHH@Z 00426e00 f   mfc100d:mfc100d.dll
 0001:00025e06       ?ShowWindow@CWnd@@QAEHH@Z  00426e06 f   mfc100d:mfc100d.dll
 0001:00025e0c       ??0CSliderCtrl@@QAE@XZ     00426e0c f   mfc100d:mfc100d.dll
 0001:00025e12       ??0CStatic@@QAE@XZ         00426e12 f   mfc100d:mfc100d.dll
 0001:00025e18       ?GetRuntimeClass@CDialog@@UBEPAUCRuntimeClass@@XZ 00426e18 f   mfc100d:mfc100d.dll
 0001:00025e1e       ?SetTimer@CWnd@@QAEIIIP6GXPAUHWND__@@IIK@Z@Z 00426e1e f   mfc100d:mfc100d.dll
 0001:00025e24       ?OnTimer@CWnd@@IAEXI@Z     00426e24 f   mfc100d:mfc100d.dll
 0001:00025e2a       ?UpdateData@CWnd@@QAEHH@Z  00426e2a f   mfc100d:mfc100d.dll
 0001:00025e30       ?Find@?$CStringT@DV?$StrTraitMFC_DLL@DV?$ChTraitsCRT@D@ATL@@@@@ATL@@QBEHPBDH@Z 00426e30 f   mfc100d:mfc100d.dll
 0001:00025e36       ??0?$CStringT@DV?$StrTraitMFC_DLL@DV?$ChTraitsCRT@D@ATL@@@@@ATL@@QAE@PBD@Z 00426e36 f   mfc100d:mfc100d.dll
 0001:00025e3c       ?Format@?$CStringT@DV?$StrTraitMFC_DLL@DV?$ChTraitsCRT@D@ATL@@@@@ATL@@QAAXPBDZZ 00426e3c f   mfc100d:mfc100d.dll
 0001:00025e42       ??2@YAPAXI@Z               00426e42 f   mfc100d:mfc100d.dll
 0001:00025e48       ?AfxMessageBox@@YGHPBDII@Z 00426e48 f   mfc100d:mfc100d.dll
 0001:00025e4e       ?DDX_Text@@YGXPAVCDataExchange@@HAAV?$CStringT@DV?$StrTraitMFC_DLL@DV?$ChTraitsCRT@D@ATL@@@@@ATL@@@Z 00426e4e f   mfc100d:mfc100d.dll
 0001:00025e54       ?DDX_Control@@YGXPAVCDataExchange@@HAAVCWnd@@@Z 00426e54 f   mfc100d:mfc100d.dll
 0001:00025e5a       ?DDX_Radio@@YGXPAVCDataExchange@@HAAH@Z 00426e5a f   mfc100d:mfc100d.dll
 0001:00025e60       ??0?$CStringT@DV?$StrTraitMFC_DLL@DV?$ChTraitsCRT@D@ATL@@@@@ATL@@QAE@ABV01@@Z 00426e60 f   mfc100d:mfc100d.dll
 0001:00025e66       ?Append@?$CSimpleStringT@D$00@ATL@@QAEXABV12@@Z 00426e66 f   mfc100d:mfc100d.dll
 0001:00025e6c       ??4?$CStringT@DV?$StrTraitMFC_DLL@DV?$ChTraitsCRT@D@ATL@@@@@ATL@@QAEAAV01@ABV01@@Z 00426e6c f   mfc100d:mfc100d.dll
 0001:00025e72       ?SetWindowTextA@CWnd@@QAEXPBD@Z 00426e72 f   mfc100d:mfc100d.dll
 0001:00025e78       ?IsWindowVisible@CWnd@@QBEHXZ 00426e78 f   mfc100d:mfc100d.dll
 0001:00025e7e       ?KillTimer@CWnd@@QAEHI@Z   00426e7e f   mfc100d:mfc100d.dll
 0001:00025e84       ?GetPos@CSliderCtrl@@QBEHXZ 00426e84 f   mfc100d:mfc100d.dll
 0001:00025e8a       ?ReleaseBuffer@?$CSimpleStringT@D$00@ATL@@QAEXH@Z 00426e8a f   mfc100d:mfc100d.dll
 0001:00025e90       ?GetBuffer@?$CSimpleStringT@D$00@ATL@@QAEPADXZ 00426e90 f   mfc100d:mfc100d.dll
 0001:00025e96       ?Append@?$CSimpleStringT@D$00@ATL@@QAEXPBD@Z 00426e96 f   mfc100d:mfc100d.dll
 0001:00025e9c       ?Compare@?$CStringT@DV?$StrTraitMFC_DLL@DV?$ChTraitsCRT@D@ATL@@@@@ATL@@QBEHPBD@Z 00426e9c f   mfc100d:mfc100d.dll
 0001:00025ea2       ??A?$CSimpleStringT@D$00@ATL@@QBEDH@Z 00426ea2 f   mfc100d:mfc100d.dll
 0001:00025ea8       ?GetLength@?$CSimpleStringT@D$00@ATL@@QBEHXZ 00426ea8 f   mfc100d:mfc100d.dll
 0001:00025eae       ?DDX_Check@@YGXPAVCDataExchange@@HAAH@Z 00426eae f   mfc100d:mfc100d.dll
 0001:00025eb4       ?DDX_Slider@@YGXPAVCDataExchange@@HAAH@Z 00426eb4 f   mfc100d:mfc100d.dll
 0001:00025eba       ?DDV_MinMaxInt@@YGXPAVCDataExchange@@HHH@Z 00426eba f   mfc100d:mfc100d.dll
 0001:00025ec0       ?DDX_Text@@YGXPAVCDataExchange@@HAAH@Z 00426ec0 f   mfc100d:mfc100d.dll
 0001:00025ec6       ??1CBitmap@@UAE@XZ         00426ec6 f   mfc100d:mfc100d.dll
 0001:00025ecc       ??_U@YAPAXI@Z              00426ecc f   mfc100d:mfc100d.dll
 0001:00025ed2       ??0CBitmap@@QAE@XZ         00426ed2 f   mfc100d:mfc100d.dll
 0001:00025ed8       ??_V@YAXPAX@Z              00426ed8 f   mfc100d:mfc100d.dll
 0001:00025ede       ?DeleteObject@CGdiObject@@QAEHXZ 00426ede f   mfc100d:mfc100d.dll
 0001:00025ee4       ??1CClientDC@@UAE@XZ       00426ee4 f   mfc100d:mfc100d.dll
 0001:00025eea       ?GetObjectA@CGdiObject@@QBEHHPAX@Z 00426eea f   mfc100d:mfc100d.dll
 0001:00025ef0       ?CreateCompatibleBitmap@CBitmap@@QAEHPAVCDC@@HH@Z 00426ef0 f   mfc100d:mfc100d.dll
 0001:00025ef6       ??0CClientDC@@QAE@PAVCWnd@@@Z 00426ef6 f   mfc100d:mfc100d.dll
 0001:00025efc       ?MoveWindow@CWnd@@QAEXHHHHH@Z 00426efc f   mfc100d:mfc100d.dll
 0001:00025f02       ??1CDC@@UAE@XZ             00426f02 f   mfc100d:mfc100d.dll
 0001:00025f08       ??1CPen@@UAE@XZ            00426f08 f   mfc100d:mfc100d.dll
 0001:00025f0e       ?LineTo@CDC@@QAEHHH@Z      00426f0e f   mfc100d:mfc100d.dll
 0001:00025f14       ?MoveTo@CDC@@QAE?AVCPoint@@HH@Z 00426f14 f   mfc100d:mfc100d.dll
 0001:00025f1a       ?SelectObject@CDC@@QAEPAVCPen@@PAV2@@Z 00426f1a f   mfc100d:mfc100d.dll
 0001:00025f20       ??0CPen@@QAE@HHK@Z         00426f20 f   mfc100d:mfc100d.dll
 0001:00025f26       ?StretchBlt@CDC@@QAEHHHHHPAV1@HHHHK@Z 00426f26 f   mfc100d:mfc100d.dll
 0001:00025f2c       ?SetViewportExt@CDC@@UAE?AVCSize@@HH@Z 00426f2c f   mfc100d:mfc100d.dll
 0001:00025f32       ?SetViewportOrg@CDC@@UAE?AVCPoint@@HH@Z 00426f32 f   mfc100d:mfc100d.dll
 0001:00025f38       ?SetMapMode@CDC@@UAEHH@Z   00426f38 f   mfc100d:mfc100d.dll
 0001:00025f3e       ?SelectObject@CDC@@QAEPAVCBitmap@@PAV2@@Z 00426f3e f   mfc100d:mfc100d.dll
 0001:00025f44       ?GetBitmap@CBitmap@@QAEHPAUtagBITMAP@@@Z 00426f44 f   mfc100d:mfc100d.dll
 0001:00025f4a       ?CreateCompatibleDC@CDC@@QAEHPAV1@@Z 00426f4a f   mfc100d:mfc100d.dll
 0001:00025f50       ??0CDC@@QAE@XZ             00426f50 f   mfc100d:mfc100d.dll
 0001:00025f56       ?SetBitmapBits@CBitmap@@QAEKKPBX@Z 00426f56 f   mfc100d:mfc100d.dll
 0001:00025f5c       ??4?$CStringT@DV?$StrTraitMFC_DLL@DV?$ChTraitsCRT@D@ATL@@@@@ATL@@QAEAAV01@PBD@Z 00426f5c f   mfc100d:mfc100d.dll
 0001:00025f62       ?AppendFormat@?$CStringT@DV?$StrTraitMFC_DLL@DV?$ChTraitsCRT@D@ATL@@@@@ATL@@QAAXPBDZZ 00426f62 f   mfc100d:mfc100d.dll
 0001:00025f68       ?Concatenate@?$CSimpleStringT@D$00@ATL@@KAXAAV12@PBDH1H@Z 00426f68 f   mfc100d:mfc100d.dll
 0001:00025f6e       ??0?$CStringT@DV?$StrTraitMFC_DLL@DV?$ChTraitsCRT@D@ATL@@@@@ATL@@QAE@PAUIAtlStringMgr@1@@Z 00426f6e f   mfc100d:mfc100d.dll
 0001:00025f74       ?GetManager@?$CStringT@DV?$StrTraitMFC_DLL@DV?$ChTraitsCRT@D@ATL@@@@@ATL@@QBEPAUIAtlStringMgr@2@XZ 00426f74 f   mfc100d:mfc100d.dll
 0001:00025f7a       ??1CButton@@UAE@XZ         00426f7a f   mfc100d:mfc100d.dll
 0001:00025f80       ?GetBufferSetLength@?$CSimpleStringT@D$00@ATL@@QAEPADH@Z 00426f80 f   mfc100d:mfc100d.dll
 0001:00025f86       ?AfxAssertFailedLine@@YGHPBDH@Z 00426f86 f   mfc100d:mfc100d.dll
 0001:00025f8c       ?LoadBitmapA@CBitmap@@QAEHI@Z 00426f8c f   mfc100d:mfc100d.dll
 0001:00025f92       ??0CButton@@QAE@XZ         00426f92 f   mfc100d:mfc100d.dll
 0001:00025f98       ?DDV_MinMaxDouble@@YGXPAVCDataExchange@@ABNNN@Z 00426f98 f   mfc100d:mfc100d.dll
 0001:00025f9e       ?DDX_Text@@YGXPAVCDataExchange@@HAAN@Z 00426f9e f   mfc100d:mfc100d.dll
 0001:00025fa4       ?DDV_MinMaxLong@@YGXPAVCDataExchange@@JJJ@Z 00426fa4 f   mfc100d:mfc100d.dll
 0001:00025faa       ?DDX_Text@@YGXPAVCDataExchange@@HAAK@Z 00426faa f   mfc100d:mfc100d.dll
 0001:00025fb0       ?CheckDlgButton@CWnd@@QAEXHI@Z 00426fb0 f   mfc100d:mfc100d.dll
 0001:00025fb6       ?EnableWindow@CWnd@@QAEHH@Z 00426fb6 f   mfc100d:mfc100d.dll
 0001:00025fbc       ?GetDlgItem@CWnd@@QBEPAV1@H@Z 00426fbc f   mfc100d:mfc100d.dll
 0001:00025fc2       ?SetBitmap@CStatic@@QAEPAUHBITMAP__@@PAU2@@Z 00426fc2 f   mfc100d:mfc100d.dll
 0001:00025fc8       ??BCBitmap@@QBEPAUHBITMAP__@@XZ 00426fc8 f   mfc100d:mfc100d.dll
 0001:00025fce       ??1CFileDialog@@UAE@XZ     00426fce f   mfc100d:mfc100d.dll
 0001:00025fd4       ?Left@?$CStringT@DV?$StrTraitMFC_DLL@DV?$ChTraitsCRT@D@ATL@@@@@ATL@@QBE?AV12@H@Z 00426fd4 f   mfc100d:mfc100d.dll
 0001:00025fda       ?GetPathName@CFileDialog@@QBE?AV?$CStringT@DV?$StrTraitMFC_DLL@DV?$ChTraitsCRT@D@ATL@@@@@ATL@@XZ 00426fda f   mfc100d:mfc100d.dll
 0001:00025fe0       ?DoModal@CFileDialog@@UAEHXZ 00426fe0 f   mfc100d:mfc100d.dll
 0001:00025fe6       ??0CFileDialog@@QAE@HPBD0K0PAVCWnd@@KH@Z 00426fe6 f   mfc100d:mfc100d.dll
 0001:00025fec       ?GetCheck@CButton@@QBEHXZ  00426fec f   mfc100d:mfc100d.dll
 0001:00025ff2       ?StringLength@?$CSimpleStringT@D$00@ATL@@SAHPBD@Z 00426ff2 f   mfc100d:mfc100d.dll
 0001:00025ff8       ?GetThisClass@CDocument@@SGPAUCRuntimeClass@@XZ 00426ff8 f   mfc100d:mfc100d.dll
 0001:00025ffe       ??0CDocument@@QAE@XZ       00426ffe f   mfc100d:mfc100d.dll
 0001:00026004       ?AssertValid@CDocument@@UBEXXZ 00427004 f   mfc100d:mfc100d.dll
 0001:0002600a       ?Dump@CDocument@@UBEXAAVCDumpContext@@@Z 0042700a f   mfc100d:mfc100d.dll
 0001:00026010       ?OnCmdMsg@CDocument@@UAEHIHPAXPAUAFX_CMDHANDLERINFO@@@Z 00427010 f   mfc100d:mfc100d.dll
 0001:00026016       ?OnFinalRelease@CDocument@@UAEXXZ 00427016 f   mfc100d:mfc100d.dll
 0001:0002601c       ?GetMessageMap@CDocument@@MBEPBUAFX_MSGMAP@@XZ 0042701c f   mfc100d:mfc100d.dll
 0001:00026022       ?SetTitle@CDocument@@UAEXPBD@Z 00427022 f   mfc100d:mfc100d.dll
 0001:00026028       ?SetPathName@CDocument@@UAEXPBDH@Z 00427028 f   mfc100d:mfc100d.dll
 0001:0002602e       ?ClearPathName@CDocument@@UAEXXZ 0042702e f   mfc100d:mfc100d.dll
 0001:00026034       ?IsModified@CDocument@@UAEHXZ 00427034 f   mfc100d:mfc100d.dll
 0001:0002603a       ?SetModifiedFlag@CDocument@@UAEXH@Z 0042703a f   mfc100d:mfc100d.dll
 0001:00026040       ?GetFirstViewPosition@CDocument@@UBEPAU__POSITION@@XZ 00427040 f   mfc100d:mfc100d.dll
 0001:00026046       ?GetNextView@CDocument@@UBEPAVCView@@AAPAU__POSITION@@@Z 00427046 f   mfc100d:mfc100d.dll
 0001:0002604c       ?OnChangedViewList@CDocument@@UAEXXZ 0042704c f   mfc100d:mfc100d.dll
 0001:00026052       ?DeleteContents@CDocument@@UAEXXZ 00427052 f   mfc100d:mfc100d.dll
 0001:00026058       ?OnOpenDocument@CDocument@@UAEHPBD@Z 00427058 f   mfc100d:mfc100d.dll
 0001:0002605e       ?OnSaveDocument@CDocument@@UAEHPBD@Z 0042705e f   mfc100d:mfc100d.dll
 0001:00026064       ?OnCloseDocument@CDocument@@UAEXXZ 00427064 f   mfc100d:mfc100d.dll
 0001:0002606a       ?ReportSaveLoadException@CDocument@@UAEXPBDPAVCException@@HI@Z 0042706a f   mfc100d:mfc100d.dll
 0001:00026070       ?GetFile@CDocument@@UAEPAVCFile@@PBDIPAVCFileException@@@Z 00427070 f   mfc100d:mfc100d.dll
 0001:00026076       ?ReleaseFile@CDocument@@UAEXPAVCFile@@H@Z 00427076 f   mfc100d:mfc100d.dll
 0001:0002607c       ?OnRichPreviewUnload@CDocument@@UAEXXZ 0042707c f   mfc100d:mfc100d.dll
 0001:00026082       ?LoadDocumentFromStream@CDocument@@UAEJPAUIStream@@K@Z 00427082 f   mfc100d:mfc100d.dll
 0001:00026088       ?GetThumbnail@CDocument@@UAEHIPAPAUHBITMAP__@@PAW4WTS_ALPHATYPE@@@Z 00427088 f   mfc100d:mfc100d.dll
 0001:0002608e       ?ClearChunkList@CDocument@@UAEXXZ 0042708e f   mfc100d:mfc100d.dll
 0001:00026094       ?SetChunkValue@CDocument@@UAEHPAUIFilterChunkValue@ATL@@@Z 00427094 f   mfc100d:mfc100d.dll
 0001:0002609a       ?BeginReadChunks@CDocument@@UAEXXZ 0042709a f   mfc100d:mfc100d.dll
 0001:000260a0       ?ReadNextChunkValue@CDocument@@UAEHPAPAUIFilterChunkValue@ATL@@@Z 004270a0 f   mfc100d:mfc100d.dll
 0001:000260a6       ?RemoveChunk@CDocument@@UAEXABU_GUID@@K@Z 004270a6 f   mfc100d:mfc100d.dll
 0001:000260ac       ?FindChunk@CDocument@@UAEPAU__POSITION@@ABU_GUID@@K@Z 004270ac f   mfc100d:mfc100d.dll
 0001:000260b2       ?OnDocumentEvent@CDocument@@UAEXW4DocumentEvent@1@@Z 004270b2 f   mfc100d:mfc100d.dll
 0001:000260b8       ?CanCloseFrame@CDocument@@UAEHPAVCFrameWnd@@@Z 004270b8 f   mfc100d:mfc100d.dll
 0001:000260be       ?SaveModified@CDocument@@UAEHXZ 004270be f   mfc100d:mfc100d.dll
 0001:000260c4       ?PreCloseFrame@CDocument@@UAEXPAVCFrameWnd@@@Z 004270c4 f   mfc100d:mfc100d.dll
 0001:000260ca       ?DoSave@CDocument@@UAEHPBDH@Z 004270ca f   mfc100d:mfc100d.dll
 0001:000260d0       ?DoFileSave@CDocument@@UAEHXZ 004270d0 f   mfc100d:mfc100d.dll
 0001:000260d6       ?UpdateFrameCounts@CDocument@@UAEXXZ 004270d6 f   mfc100d:mfc100d.dll
 0001:000260dc       ?GetDefaultMenu@CDocument@@UAEPAUHMENU__@@XZ 004270dc f   mfc100d:mfc100d.dll
 0001:000260e2       ?GetDefaultAccelerator@CDocument@@UAEPAUHACCEL__@@XZ 004270e2 f   mfc100d:mfc100d.dll
 0001:000260e8       ?OnIdle@CDocument@@UAEXXZ  004270e8 f   mfc100d:mfc100d.dll
 0001:000260ee       ?OnLoadDocumentFromStream@CDocument@@UAEJPAUIStream@@K@Z 004270ee f   mfc100d:mfc100d.dll
 0001:000260f4       ?OnPreviewHandlerQueryFocus@CDocument@@UAEJPAPAUHWND__@@@Z 004270f4 f   mfc100d:mfc100d.dll
 0001:000260fa       ?OnPreviewHandlerTranslateAccelerator@CDocument@@UAEJPAUtagMSG@@@Z 004270fa f   mfc100d:mfc100d.dll
 0001:00026100       ?OnCreatePreviewFrame@CDocument@@UAEHXZ 00427100 f   mfc100d:mfc100d.dll
 0001:00026106       ?OnUnloadHandler@CDocument@@UAEXXZ 00427106 f   mfc100d:mfc100d.dll
 0001:0002610c       ?OnDrawThumbnail@CDocument@@UAEXAAVCDC@@PAUtagRECT@@@Z 0042710c f   mfc100d:mfc100d.dll
 0001:00026112       ?Delete@CException@@QAEXXZ 00427112 f   mfc100d:mfc100d.dll
 0001:00026118       ?AfxAssertValidObject@@YGXPBVCObject@@PBDH@Z 00427118 f   mfc100d:mfc100d.dll
 0001:0002611e       ??1CDocument@@UAE@XZ       0042711e f   mfc100d:mfc100d.dll
 0001:00026124       ??1CEdit@@UAE@XZ           00427124 f   mfc100d:mfc100d.dll
 0001:0002612a       ?SetDlgItemInt@CWnd@@QAEXHIH@Z 0042712a f   mfc100d:mfc100d.dll
 0001:00026130       ??0CEdit@@QAE@XZ           00427130 f   mfc100d:mfc100d.dll
 0001:00026136       ?InvokeHelper@CWnd@@QAAXJGGPAXPBEZZ 00427136 f   mfc100d:mfc100d.dll
 0001:0002613c       ?SetProperty@CWnd@@QAAXJGZZ 0042713c f   mfc100d:mfc100d.dll
 0001:00026142       ?AfxThrowOleException@@YGXJ@Z 00427142 f   mfc100d:mfc100d.dll
 0001:00026148       ?AfxThrowMemoryException@@YGXXZ 00427148 f   mfc100d:mfc100d.dll
 0001:0002614e       ??1CListBox@@UAE@XZ        0042714e f   mfc100d:mfc100d.dll
 0001:00026154       ??0CListBox@@QAE@XZ        00427154 f   mfc100d:mfc100d.dll
 0001:0002615a       ?DDX_LBIndex@@YGXPAVCDataExchange@@HAAH@Z 0042715a f   mfc100d:mfc100d.dll
 0001:00026160       ??1CFile@@UAE@XZ           00427160 f   mfc100d:mfc100d.dll
 0001:00026166       ?Close@CStdioFile@@UAEXXZ  00427166 f   mfc100d:mfc100d.dll
 0001:0002616c       ?AddString@CListBox@@QAEHPBD@Z 0042716c f   mfc100d:mfc100d.dll
 0001:00026172       ??1CStdioFile@@UAE@XZ      00427172 f   mfc100d:mfc100d.dll
 0001:00026178       ?InsertString@CListBox@@QAEHHPBD@Z 00427178 f   mfc100d:mfc100d.dll
 0001:0002617e       ?Right@?$CStringT@DV?$StrTraitMFC_DLL@DV?$ChTraitsCRT@D@ATL@@@@@ATL@@QBE?AV12@H@Z 0042717e f   mfc100d:mfc100d.dll
 0001:00026184       ?Trim@?$CStringT@DV?$StrTraitMFC_DLL@DV?$ChTraitsCRT@D@ATL@@@@@ATL@@QAEAAV12@XZ 00427184 f   mfc100d:mfc100d.dll
 0001:0002618a       ?ReadString@CStdioFile@@UAEHAAV?$CStringT@DV?$StrTraitMFC_DLL@DV?$ChTraitsCRT@D@ATL@@@@@ATL@@@Z 0042718a f   mfc100d:mfc100d.dll
 0001:00026190       ?GetCount@CListBox@@QBEHXZ 00427190 f   mfc100d:mfc100d.dll
 0001:00026196       ??0CStdioFile@@QAE@PBDI@Z  00427196 f   mfc100d:mfc100d.dll
 0001:0002619c       ?GetFileName@CFileDialog@@QBE?AV?$CStringT@DV?$StrTraitMFC_DLL@DV?$ChTraitsCRT@D@ATL@@@@@ATL@@XZ 0042719c f   mfc100d:mfc100d.dll
 0001:000261a2       ?ResetContent@CListBox@@QAEXXZ 004271a2 f   mfc100d:mfc100d.dll
 0001:000261a8       ??0CFile@@QAE@XZ           004271a8 f   mfc100d:mfc100d.dll
 0001:000261ae       ?MakeLower@?$CStringT@DV?$StrTraitMFC_DLL@DV?$ChTraitsCRT@D@ATL@@@@@ATL@@QAEAAV12@XZ 004271ae f   mfc100d:mfc100d.dll
 0001:000261b4       ?GetText@CListBox@@QBEXHAAV?$CStringT@DV?$StrTraitMFC_DLL@DV?$ChTraitsCRT@D@ATL@@@@@ATL@@@Z 004271b4 f   mfc100d:mfc100d.dll
 0001:000261ba       ?GetThisClass@CFormView@@SGPAUCRuntimeClass@@XZ 004271ba f   mfc100d:mfc100d.dll
 0001:000261c0       ?GetThisMessageMap@CFormView@@KGPBUAFX_MSGMAP@@XZ 004271c0 f   mfc100d:mfc100d.dll
 0001:000261c6       ??0CFormView@@IAE@I@Z      004271c6 f   mfc100d:mfc100d.dll
 0001:000261cc       ?AssertValid@CFormView@@UBEXXZ 004271cc f   mfc100d:mfc100d.dll
 0001:000261d2       ?Dump@CFormView@@UBEXAAVCDumpContext@@@Z 004271d2 f   mfc100d:mfc100d.dll
 0001:000261d8       ?OnCmdMsg@CView@@UAEHIHPAXPAUAFX_CMDHANDLERINFO@@@Z 004271d8 f   mfc100d:mfc100d.dll
 0001:000261de       ?Create@CFormView@@MAEHPBD0KABUtagRECT@@PAVCWnd@@IPAUCCreateContext@@@Z 004271de f   mfc100d:mfc100d.dll
 0001:000261e4       ?PreCreateWindow@CView@@MAEHAAUtagCREATESTRUCTA@@@Z 004271e4 f   mfc100d:mfc100d.dll
 0001:000261ea       ?CalcWindowRect@CScrollView@@UAEXPAUtagRECT@@I@Z 004271ea f   mfc100d:mfc100d.dll
 0001:000261f0       ?GetScrollBarCtrl@CView@@UBEPAVCScrollBar@@H@Z 004271f0 f   mfc100d:mfc100d.dll
 0001:000261f6       ?PreTranslateMessage@CFormView@@MAEHPAUtagMSG@@@Z 004271f6 f   mfc100d:mfc100d.dll
 0001:000261fc       ?PostNcDestroy@CView@@MAEXXZ 004271fc f   mfc100d:mfc100d.dll
 0001:00026202       ?SetOccDialogInfo@CFormView@@MAEHPAU_AFX_OCC_DIALOG_INFO@@@Z 00427202 f   mfc100d:mfc100d.dll
 0001:00026208       ?GetOccDialogInfo@CFormView@@MAEPAU_AFX_OCC_DIALOG_INFO@@XZ 00427208 f   mfc100d:mfc100d.dll
 0001:0002620e       ?IsSelected@CView@@UBEHPBVCObject@@@Z 0042720e f   mfc100d:mfc100d.dll
 0001:00026214       ?OnScroll@CScrollView@@UAEHIIH@Z 00427214 f   mfc100d:mfc100d.dll
 0001:0002621a       ?OnScrollBy@CScrollView@@UAEHVCSize@@H@Z 0042721a f   mfc100d:mfc100d.dll
 0001:00026220       ?OnDragEnter@CView@@UAEKPAVCOleDataObject@@KVCPoint@@@Z 00427220 f   mfc100d:mfc100d.dll
 0001:00026226       ?OnDragOver@CView@@UAEKPAVCOleDataObject@@KVCPoint@@@Z 00427226 f   mfc100d:mfc100d.dll
 0001:0002622c       ?OnDragLeave@CView@@UAEXXZ 0042722c f   mfc100d:mfc100d.dll
 0001:00026232       ?OnDrop@CView@@UAEHPAVCOleDataObject@@KVCPoint@@@Z 00427232 f   mfc100d:mfc100d.dll
 0001:00026238       ?OnDropEx@CView@@UAEKPAVCOleDataObject@@KKVCPoint@@@Z 00427238 f   mfc100d:mfc100d.dll
 0001:0002623e       ?OnDragScroll@CView@@UAEKKVCPoint@@@Z 0042723e f   mfc100d:mfc100d.dll
 0001:00026244       ?OnPrepareDC@CScrollView@@UAEXPAVCDC@@PAUCPrintInfo@@@Z 00427244 f   mfc100d:mfc100d.dll
 0001:0002624a       ?OnActivateView@CFormView@@MAEXHPAVCView@@0@Z 0042724a f   mfc100d:mfc100d.dll
 0001:00026250       ?OnActivateFrame@CFormView@@MAEXIPAVCFrameWnd@@@Z 00427250 f   mfc100d:mfc100d.dll
 0001:00026256       ?OnUpdate@CView@@MAEXPAV1@JPAVCObject@@@Z 00427256 f   mfc100d:mfc100d.dll
 0001:0002625c       ?OnDraw@CFormView@@MAEXPAVCDC@@@Z 0042725c f   mfc100d:mfc100d.dll
 0001:00026262       ?OnPreparePrinting@CView@@MAEHPAUCPrintInfo@@@Z 00427262 f   mfc100d:mfc100d.dll
 0001:00026268       ?OnBeginPrinting@CView@@MAEXPAVCDC@@PAUCPrintInfo@@@Z 00427268 f   mfc100d:mfc100d.dll
 0001:0002626e       ?OnPrint@CView@@MAEXPAVCDC@@PAUCPrintInfo@@@Z 0042726e f   mfc100d:mfc100d.dll
 0001:00026274       ?OnEndPrinting@CView@@MAEXPAVCDC@@PAUCPrintInfo@@@Z 00427274 f   mfc100d:mfc100d.dll
 0001:0002627a       ?OnEndPrintPreview@CView@@MAEXPAVCDC@@PAUCPrintInfo@@UtagPOINT@@PAVCPreviewView@@@Z 0042727a f   mfc100d:mfc100d.dll
 0001:00026280       ?GetWheelScrollDistance@CScrollView@@UAE?AVCSize@@V2@HH@Z 00427280 f   mfc100d:mfc100d.dll
 0001:00026286       ?GetAccessibleChild@CWnd@@QAEJUtagVARIANT@@PAPAUIDispatch@@@Z 00427286 f   mfc100d:mfc100d.dll
 0001:0002628c       ?GetAccessibleChildCount@CWnd@@QAEJXZ 0042728c f   mfc100d:mfc100d.dll
 0001:00026292       ?GetAccessibleName@CWnd@@QAEJUtagVARIANT@@PAPA_W@Z 00427292 f   mfc100d:mfc100d.dll
 0001:00026298       ?GetAccessibilityLocation@CWnd@@QAEJUtagVARIANT@@PAJ111@Z 00427298 f   mfc100d:mfc100d.dll
 0001:0002629e       ?GetAccessibilityHitTest@CWnd@@QAEJJJPAUtagVARIANT@@@Z 0042729e f   mfc100d:mfc100d.dll
 0001:000262a4       ?OnInitialUpdate@CFormView@@UAEXXZ 004272a4 f   mfc100d:mfc100d.dll
 0001:000262aa       ??1CFormView@@UAE@XZ       004272aa f   mfc100d:mfc100d.dll
 0001:000262b0       ??_Estringdispid@CComTypeInfoHolder@ATL@@QAEPAXI@Z 004272b0 f i mfcs100d:nolib.obj
 0001:00026320       ??1stringdispid@CComTypeInfoHolder@ATL@@QAE@XZ 00427320 f i mfcs100d:nolib.obj
 0001:00026340       ??1CComBSTR@ATL@@QAE@XZ    00427340 f i mfcs100d:nolib.obj
 0001:0002635a       ___CxxFrameHandler3        0042735a f   msvcrtd:MSVCR100D.dll
 0001:00026360       @__security_check_cookie@4 00427360 f   msvcrtd:secchk.obj
 0001:00026370       ??0type_info@@AAE@ABV0@@Z  00427370 f   msvcrtd:ti_inst.obj
 0001:00026390       ??_Etype_info@@UAEPAXI@Z   00427390 f i msvcrtd:ti_inst.obj
 0001:00026400       ??4type_info@@AAEAAV0@ABV0@@Z 00427400 f   msvcrtd:ti_inst.obj
 0001:00026412       _strlen                    00427412 f   msvcrtd:MSVCR100D.dll
 0001:00026420       __onexit                   00427420 f   msvcrtd:atonexit.obj
 0001:00026520       _atexit                    00427520 f   msvcrtd:atonexit.obj
 0001:00026540       _atof                      00427540 f   msvcrtd:MSVCR100D.dll
 0001:00026546       _atol                      00427546 f   msvcrtd:MSVCR100D.dll
 0001:0002654c       _sprintf                   0042754c f   msvcrtd:MSVCR100D.dll
 0001:00026560       __ftol2_sse                00427560 f   msvcrtd:ftol2.obj
 0001:00026569       __ftol2_pentium4           00427569 f   msvcrtd:ftol2.obj
 0001:0002657c       __ftol2_sse_excpt          0042757c f   msvcrtd:ftol2.obj
 0001:00026596       __ftol2                    00427596 f   msvcrtd:ftol2.obj
 0001:0002660c       _fclose                    0042760c f   msvcrtd:MSVCR100D.dll
 0001:00026612       _exp                       00427612 f   msvcrtd:MSVCR100D.dll
 0001:00026618       _srand                     00427618 f   msvcrtd:MSVCR100D.dll
 0001:0002661e       __getpid                   0042761e f   msvcrtd:MSVCR100D.dll
 0001:00026624       _cos                       00427624 f   msvcrtd:MSVCR100D.dll
 0001:0002662a       _sqrt                      0042762a f   msvcrtd:MSVCR100D.dll
 0001:00026630       _log                       00427630 f   msvcrtd:MSVCR100D.dll
 0001:00026636       _rand                      00427636 f   msvcrtd:MSVCR100D.dll
 0001:0002663c       _fopen                     0042763c f   msvcrtd:MSVCR100D.dll
 0001:00026642       _fwrite                    00427642 f   msvcrtd:MSVCR100D.dll
 0001:00026648       _fflush                    00427648 f   msvcrtd:MSVCR100D.dll
 0001:0002664e       _fprintf                   0042764e f   msvcrtd:MSVCR100D.dll
 0001:00026654       _pow                       00427654 f   msvcrtd:MSVCR100D.dll
 0001:0002665a       __purecall                 0042765a f   msvcrtd:MSVCR100D.dll
 0001:00026660       _strftime                  00427660 f   msvcrtd:MSVCR100D.dll
 0001:00026666       __localtime64_s            00427666 f   msvcrtd:MSVCR100D.dll
 0001:0002666c       _sscanf                    0042766c f   msvcrtd:MSVCR100D.dll
 0001:00026672       _system                    00427672 f   msvcrtd:MSVCR100D.dll
 0001:00026770       _WinMainCRTStartup         00427770 f   msvcrtd:crtexew.obj
 0001:00026a90       _NtCurrentTeb              00427a90 f i msvcrtd:crtexew.obj
 0001:00026b0e       _free                      00427b0e f   msvcrtd:MSVCR100D.dll
 0001:00026b14       __finite                   00427b14 f   msvcrtd:MSVCR100D.dll
 0001:00026b1a       _malloc                    00427b1a f   msvcrtd:MSVCR100D.dll
 0001:00026b20       ___iob_func                00427b20 f   msvcrtd:MSVCR100D.dll
 0001:00026b26       _exit                      00427b26 f   msvcrtd:MSVCR100D.dll
 0001:00026b2c       __CIlog10                  00427b2c f   msvcrtd:MSVCR100D.dll
 0001:00026b32       __CIsqrt                   00427b32 f   msvcrtd:MSVCR100D.dll
 0001:00026b38       _memcpy                    00427b38 f   msvcrtd:MSVCR100D.dll
 0001:00026b40       ??_M@YGXPAXIHP6EX0@Z@Z     00427b40 f   msvcrtd:ehvecdtr.obj
 0001:00026c00       ?__ArrayUnwind@@YGXPAXIHP6EX0@Z@Z 00427c00 f   msvcrtd:ehvecdtr.obj
 0001:00026cc0       ___report_gsfailure        00427cc0 f   msvcrtd:gs_report.obj
 0001:00026dce       __unlock                   00427dce f   msvcrtd:MSVCR100D.dll
 0001:00026dd4       ___dllonexit               00427dd4 f   msvcrtd:MSVCR100D.dll
 0001:00026dda       __lock                     00427dda f   msvcrtd:MSVCR100D.dll
 0001:00026de0       __except_handler4          00427de0 f   msvcrtd:chandler4gs.obj
 0001:00026e10       ___sse2_available_init     00427e10 f   msvcrtd:cpu_disp.obj
 0001:00026e30       ?__CxxUnhandledExceptionFilter@@YGJPAU_EXCEPTION_POINTERS@@@Z 00427e30 f   msvcrtd:unhandld.obj
 0001:00026ea0       ___CxxSetUnhandledExceptionFilter 00427ea0 f   msvcrtd:unhandld.obj
 0001:00026eb4       __configthreadlocale       00427eb4 f   msvcrtd:MSVCR100D.dll
 0001:00026ec0       __setdefaultprecision      00427ec0 f   msvcrtd:fp8.obj
 0001:00026f00       __invoke_watson_if_error   00427f00 f i msvcrtd:fp8.obj
 0001:00026f28       ___setusermatherr          00427f28 f   msvcrtd:MSVCR100D.dll
 0001:00026f30       __matherr                  00427f30 f   msvcrtd:merr.obj
 0001:00026f40       __setargv                  00427f40 f   msvcrtd:dllargv.obj
 0001:00026f50       __RTC_Initialize           00427f50 f   msvcrtd:_initsect_.obj
 0001:00026f80       __RTC_Terminate            00427f80 f   msvcrtd:_initsect_.obj
 0001:00026fa6       ___set_app_type            00427fa6 f   msvcrtd:MSVCR100D.dll
 0001:00026fac       __amsg_exit                00427fac f   msvcrtd:MSVCR100D.dll
 0001:00026fb2       ___getmainargs             00427fb2 f   msvcrtd:MSVCR100D.dll
 0001:00026fc0       ___security_init_cookie    00427fc0 f   msvcrtd:gs_support.obj
 0001:000270a0       __exit                     004280a0 f   msvcrtd:MSVCR100D.dll
 0001:000270a6       __XcptFilter               004280a6 f   msvcrtd:MSVCR100D.dll
 0001:000270ac       __cexit                    004280ac f   msvcrtd:MSVCR100D.dll
 0001:000270b2       __ismbblead                004280b2 f   msvcrtd:MSVCR100D.dll
 0001:000270b8       __CrtSetCheckCount         004280b8 f   msvcrtd:MSVCR100D.dll
 0001:000270c0       __ValidateImageBase        004280c0 f   msvcrtd:pesect.obj
 0001:00027120       __FindPESection            00428120 f   msvcrtd:pesect.obj
 0001:000271a0       __IsNonwritableInCurrentImage 004281a0 f   msvcrtd:pesect.obj
 0001:000272b2       __CrtDbgReportW            004282b2 f   msvcrtd:MSVCR100D.dll
 0001:000272b8       __initterm                 004282b8 f   msvcrtd:MSVCR100D.dll
 0001:000272be       __initterm_e               004282be f   msvcrtd:MSVCR100D.dll
 0001:000272c4       ?terminate@@YAXXZ          004282c4 f   msvcrtd:MSVCR100D.dll
 0001:000272ca       __crt_debugger_hook        004282ca f   msvcrtd:MSVCR100D.dll
 0001:000272d0       ??1type_info@@UAE@XZ       004282d0 f   msvcrtd:MSVCR100D.dll
 0001:000272d0       ?_type_info_dtor_internal_method@type_info@@QAEXXZ 004282d0 f   msvcrtd:MSVCR100D.dll
 0001:000272d6       __except_handler4_common   004282d6 f   msvcrtd:MSVCR100D.dll
 0001:000272dc       __controlfp_s              004282dc f   msvcrtd:MSVCR100D.dll
 0001:000272e2       __invoke_watson            004282e2 f   msvcrtd:MSVCR100D.dll
 0001:000272e8       _CloseHandle@4             004282e8 f   kernel32:KERNEL32.dll
 0001:000272ee       _SetCommState@8            004282ee f   kernel32:KERNEL32.dll
 0001:000272f4       _SetCommTimeouts@8         004282f4 f   kernel32:KERNEL32.dll
 0001:000272fa       _GetCommState@8            004282fa f   kernel32:KERNEL32.dll
 0001:00027300       _CreateFileA@28            00428300 f   kernel32:KERNEL32.dll
 0001:00027306       _GetLastError@0            00428306 f   kernel32:KERNEL32.dll
 0001:0002730c       _WriteFile@20              0042830c f   kernel32:KERNEL32.dll
 0001:00027312       _CreateEventA@16           00428312 f   kernel32:KERNEL32.dll
 0001:00027318       _GetOverlappedResult@16    00428318 f   kernel32:KERNEL32.dll
 0001:0002731e       _ReadFile@20               0042831e f   kernel32:KERNEL32.dll
 0001:00027324       _Sleep@4                   00428324 f   kernel32:KERNEL32.dll
 0001:0002732a       _GetCurrentDirectoryA@8    0042832a f   kernel32:KERNEL32.dll
 0001:00027330       _CreateThread@24           00428330 f   kernel32:KERNEL32.dll
 0001:00027336       _WaitForSingleObject@8     00428336 f   kernel32:KERNEL32.dll
 0001:0002733c       _QueryPerformanceCounter@4 0042833c f   kernel32:KERNEL32.dll
 0001:00027342       _QueryPerformanceFrequency@4 00428342 f   kernel32:KERNEL32.dll
 0001:00027348       _InterlockedIncrement@4    00428348 f   kernel32:KERNEL32.dll
 0001:0002734e       _InterlockedDecrement@4    0042834e f   kernel32:KERNEL32.dll
 0001:00027354       _FreeLibrary@4             00428354 f   kernel32:KERNEL32.dll
 0001:0002735a       _GetProcAddress@8          0042835a f   kernel32:KERNEL32.dll
 0001:00027360       _LoadLibraryA@4            00428360 f   kernel32:KERNEL32.dll
 0001:00027366       _EncodePointer@4           00428366 f   kernel32:KERNEL32.dll
 0001:0002736c       _DecodePointer@4           0042836c f   kernel32:KERNEL32.dll
 0001:00027372       _InterlockedExchange@8     00428372 f   kernel32:KERNEL32.dll
 0001:00027378       _InterlockedCompareExchange@12 00428378 f   kernel32:KERNEL32.dll
 0001:0002737e       _HeapSetInformation@16     0042837e f   kernel32:KERNEL32.dll
 0001:00027384       _GetStartupInfoW@4         00428384 f   kernel32:KERNEL32.dll
 0001:0002738a       _TerminateProcess@8        0042838a f   kernel32:KERNEL32.dll
 0001:00027390       _GetCurrentProcess@0       00428390 f   kernel32:KERNEL32.dll
 0001:00027396       _UnhandledExceptionFilter@4 00428396 f   kernel32:KERNEL32.dll
 0001:0002739c       _SetUnhandledExceptionFilter@4 0042839c f   kernel32:KERNEL32.dll
 0001:000273a2       _IsDebuggerPresent@0       004283a2 f   kernel32:KERNEL32.dll
 0001:000273a8       _IsProcessorFeaturePresent@4 004283a8 f   kernel32:KERNEL32.dll
 0001:000273ae       _GetTickCount@0            004283ae f   kernel32:KERNEL32.dll
 0001:000273b4       _GetCurrentThreadId@0      004283b4 f   kernel32:KERNEL32.dll
 0001:000273ba       _GetCurrentProcessId@0     004283ba f   kernel32:KERNEL32.dll
 0001:000273c0       _GetSystemTimeAsFileTime@4 004283c0 f   kernel32:KERNEL32.dll
 0001:000273c6       _InitCommonControlsEx@4    004283c6 f   comctl32:COMCTL32.dll
 0001:000273d0       ??0CAtlAllocator@@QAE@XZ   004283d0 f i atlsd:Externs.obj
 0001:00027420       ??0CTraceSnapshot@@QAE@XZ  00428420 f i atlsd:Externs.obj
 0001:00027450       ??0?$CSimpleArray@UCModuleInfo@CTraceSnapshot@@V?$CSimpleArrayEqualHelper@UCModuleInfo@CTraceSnapshot@@@ATL@@@ATL@@QAE@XZ 00428450 f i atlsd:Externs.obj
 0001:00027480       ??0?$CSimpleArray@KV?$CSimpleArrayEqualHelper@K@ATL@@@ATL@@QAE@XZ 00428480 f i atlsd:Externs.obj
 0001:000275a0       ??0CAtlException@ATL@@QAE@J@Z 004285a0 f i atlsd:Externs.obj
 0001:000275c0       ?AtlCrtErrorCheck@ATL@@YAHH@Z 004285c0 f i atlsd:Externs.obj
 0001:00027680       ?_AtlRaiseException@ATL@@YAXKK@Z 00428680 f i atlsd:Externs.obj
 0001:000276a0       ??0CTrace@ATL@@AAE@P6AHHPBDH00ZZ@Z 004286a0 f i atlsd:Externs.obj
 0001:000276e0       ??1CAtlAllocator@@QAE@XZ   004286e0 f i atlsd:Externs.obj
 0001:00027700       ??1CTraceSnapshot@@QAE@XZ  00428700 f i atlsd:Externs.obj
 0001:00027720       ??1?$CSimpleArray@UCModuleInfo@CTraceSnapshot@@V?$CSimpleArrayEqualHelper@UCModuleInfo@CTraceSnapshot@@@ATL@@@ATL@@QAE@XZ 00428720 f i atlsd:Externs.obj
 0001:00027740       ??1?$CSimpleArray@KV?$CSimpleArrayEqualHelper@K@ATL@@@ATL@@QAE@XZ 00428740 f i atlsd:Externs.obj
 0001:00027760       ?RemoveAll@?$CSimpleArray@UCModuleInfo@CTraceSnapshot@@V?$CSimpleArrayEqualHelper@UCModuleInfo@CTraceSnapshot@@@ATL@@@ATL@@QAEXXZ 00428760 f i atlsd:Externs.obj
 0001:000277d0       ?RemoveAll@?$CSimpleArray@KV?$CSimpleArrayEqualHelper@K@ATL@@@ATL@@QAEXXZ 004287d0 f i atlsd:Externs.obj
 0001:00027840       ??1CTrace@ATL@@AAE@XZ      00428840 f i atlsd:Externs.obj
 0001:00027860       ??0CTraceCategory@ATL@@QAE@PBDI@Z 00428860 f i atlsd:atltrace.obj
 0001:000278b0       ?ChangeCategory@CTrace@ATL@@QAE_NKIW4ATLTRACESTATUS@2@@Z 004288b0 f i atlsd:atltrace.obj
 0001:000278e0       ?RegisterCategory@CTrace@ATL@@QAEKPBD@Z 004288e0 f i atlsd:atltrace.obj
 0001:00027900       ?NotifyTool@ATL@@YGXXZ     00428900 f   atlsd:AtlDebugAPI.obj
 0001:00027940       _AtlTraceRegister@8        00428940 f   atlsd:AtlDebugAPI.obj
 0001:000279c0       _AtlTraceUnregister@4      004289c0 f   atlsd:AtlDebugAPI.obj
 0001:000279f0       _AtlTraceRegisterCategoryA@8 004289f0 f   atlsd:AtlDebugAPI.obj
 0001:00027a60       _AtlTraceRegisterCategoryU@8 00428a60 f   atlsd:AtlDebugAPI.obj
 0001:00027ab0       _AtlTraceModifyProcess@20  00428ab0 f   atlsd:AtlDebugAPI.obj
 0001:00027b50       ?GetProcess@CAtlAllocator@@QBEPAVCAtlTraceProcess@@XZ 00428b50 f i atlsd:AtlDebugAPI.obj
 0001:00027b70       _AtlTraceModifyModule@16   00428b70 f   atlsd:AtlDebugAPI.obj
 0001:00027c60       _AtlTraceModifyCategory@16 00428c60 f   atlsd:AtlDebugAPI.obj
 0001:00027d10       _AtlTraceGetProcess@20     00428d10 f   atlsd:AtlDebugAPI.obj
 0001:00027df0       _AtlTraceGetModule@16      00428df0 f   atlsd:AtlDebugAPI.obj
 0001:00027f00       _AtlTraceGetCategory@16    00428f00 f   atlsd:AtlDebugAPI.obj
 0001:00027fe0       _AtlTraceGetUpdateEventNameA@4 00428fe0 f   atlsd:AtlDebugAPI.obj
 0001:00028010       _AtlTraceGetUpdateEventNameA_s@8 00429010 f   atlsd:AtlDebugAPI.obj
 0001:00028040       _AtlTraceGetUpdateEventNameU@4 00429040 f   atlsd:AtlDebugAPI.obj
 0001:000280b0       _AtlTraceGetUpdateEventNameU_s@8 004290b0 f   atlsd:AtlDebugAPI.obj
 0001:00028120       _AtlTraceVA                00429120 f   atlsd:AtlDebugAPI.obj
 0001:00028440       ?Name@CAtlTraceCategory@@QBEPB_WXZ 00429440 f i atlsd:AtlDebugAPI.obj
 0001:00028460       _AtlTraceVU                00429460 f   atlsd:AtlDebugAPI.obj
 0001:000287b0       _AtlTraceOpenProcess@4     004297b0 f   atlsd:AtlDebugAPI.obj
 0001:000288b0       ??_GCAtlAllocator@@QAEPAXI@Z 004298b0 f i atlsd:AtlDebugAPI.obj
 0001:000288e0       _AtlTraceCloseProcess@4    004298e0 f   atlsd:AtlDebugAPI.obj
 0001:00028980       _AtlTraceSnapshotProcess@4 00429980 f   atlsd:AtlDebugAPI.obj
 0001:000289f0       _AtlTraceGetProcessInfo@8  004299f0 f   atlsd:AtlDebugAPI.obj
 0001:00028b90       ?Path@CAtlTraceModuleInfo@@QBEPB_WXZ 00429b90 f i atlsd:AtlDebugAPI.obj
 0001:00028bb0       ?Name@CAtlTraceModuleInfo@@QBEPB_WXZ 00429bb0 f i atlsd:AtlDebugAPI.obj
 0001:00028bd0       ?Id@CAtlTraceProcess@@QBEKXZ 00429bd0 f i atlsd:AtlDebugAPI.obj
 0001:00028bf0       _AtlTraceGetModuleInfo@12  00429bf0 f   atlsd:AtlDebugAPI.obj
 0001:00028d90       _AtlTraceGetCategoryInfo@16 00429d90 f   atlsd:AtlDebugAPI.obj
 0001:00029120       ?CrtDbgReport@CAtlTraceModule@@QBEP6AHHPBDH00ZZXZ 0042a120 f i atlsd:AtlDebugAPI.obj
 0001:00029140       ?_IsTracingEnabled@ATL@@YA_NKKI@Z 0042a140 f   atlsd:AtlDebugAPI.obj
 0001:00029180       ?GetSize@?$CSimpleArray@UCModuleInfo@CTraceSnapshot@@V?$CSimpleArrayEqualHelper@UCModuleInfo@CTraceSnapshot@@@ATL@@@ATL@@QBEHXZ 0042a180 f i atlsd:AtlDebugAPI.obj
 0001:000291a0       ??A?$CSimpleArray@UCModuleInfo@CTraceSnapshot@@V?$CSimpleArrayEqualHelper@UCModuleInfo@CTraceSnapshot@@@ATL@@@ATL@@QAEAAUCModuleInfo@CTraceSnapshot@@H@Z 0042a1a0 f i atlsd:AtlDebugAPI.obj
 0001:00029210       ?strcpy_s@Checked@ATL@@YAXPADIPBD@Z 0042a210 f i atlsd:AtlDebugAPI.obj
 0001:00029240       ?wcscpy_s@Checked@ATL@@YAXPA_WIPB_W@Z 0042a240 f i atlsd:AtlDebugAPI.obj
 0001:00029270       ??0?$CA2WEX@$0IA@@ATL@@QAE@PBD@Z 0042a270 f i atlsd:AtlDebugAPI.obj
 0001:000292a0       ?_AtlGetConversionACP@ATL@@YGIXZ 0042a2a0 f i atlsd:AtlDebugAPI.obj
 0001:000292b0       ??1?$CA2WEX@$0IA@@ATL@@QAE@XZ 0042a2b0 f i atlsd:AtlDebugAPI.obj
 0001:000292e0       ??B?$CA2WEX@$0IA@@ATL@@QBEPA_WXZ 0042a2e0 f i atlsd:AtlDebugAPI.obj
 0001:00029300       ?Init@?$CA2WEX@$0IA@@ATL@@AAEXPBDI@Z 0042a300 f i atlsd:AtlDebugAPI.obj
 0001:00029400       ?AtlThrowLastWin32@ATL@@YGXXZ 0042a400 f i atlsd:AtlDebugAPI.obj
 0001:00029430       _HRESULT_FROM_WIN32        0042a430 f i atlsd:AtlDebugAPI.obj
 0001:00029470       ??$AtlConvFreeMemory@_W@ATL@@YAXPA_W0H@Z 0042a470 f i atlsd:AtlDebugAPI.obj
 0001:000294b0       ??$AtlConvAllocMemory@_W@ATL@@YAXPAPA_WHPA_WH@Z 0042a4b0 f i atlsd:AtlDebugAPI.obj
 0001:00029640       ??0CSize@@QAE@XZ           0042a640 f   atlsd:atltypes.obj
 0001:00029670       ??0CSize@@QAE@HH@Z         0042a670 f   atlsd:atltypes.obj
 0001:000296a0       ??0CSize@@QAE@UtagSIZE@@@Z 0042a6a0 f   atlsd:atltypes.obj
 0001:000296c0       ??0CSize@@QAE@UtagPOINT@@@Z 0042a6c0 f   atlsd:atltypes.obj
 0001:000296e0       ??0CSize@@QAE@K@Z          0042a6e0 f   atlsd:atltypes.obj
 0001:00029720       ??8CSize@@QBEHUtagSIZE@@@Z 0042a720 f   atlsd:atltypes.obj
 0001:00029760       ??9CSize@@QBEHUtagSIZE@@@Z 0042a760 f   atlsd:atltypes.obj
 0001:000297a0       ??YCSize@@QAEXUtagSIZE@@@Z 0042a7a0 f   atlsd:atltypes.obj
 0001:000297d0       ??ZCSize@@QAEXUtagSIZE@@@Z 0042a7d0 f   atlsd:atltypes.obj
 0001:00029800       ?SetSize@CSize@@QAEXHH@Z   0042a800 f   atlsd:atltypes.obj
 0001:00029820       ??HCSize@@QBE?AV0@UtagSIZE@@@Z 0042a820 f   atlsd:atltypes.obj
 0001:00029850       ??GCSize@@QBE?AV0@UtagSIZE@@@Z 0042a850 f   atlsd:atltypes.obj
 0001:00029880       ??GCSize@@QBE?AV0@XZ       0042a880 f   atlsd:atltypes.obj
 0001:000298b0       ??HCSize@@QBE?AVCPoint@@UtagPOINT@@@Z 0042a8b0 f   atlsd:atltypes.obj
 0001:000298e0       ??GCSize@@QBE?AVCPoint@@UtagPOINT@@@Z 0042a8e0 f   atlsd:atltypes.obj
 0001:00029910       ??HCSize@@QBE?AVCRect@@PBUtagRECT@@@Z 0042a910 f   atlsd:atltypes.obj
 0001:00029970       ??GCSize@@QBE?AVCRect@@PBUtagRECT@@@Z 0042a970 f   atlsd:atltypes.obj
 0001:000299d0       ??0CPoint@@QAE@XZ          0042a9d0 f   atlsd:atltypes.obj
 0001:00029a00       ??0CPoint@@QAE@HH@Z        0042aa00 f   atlsd:atltypes.obj
 0001:00029a30       ??0CPoint@@QAE@UtagPOINT@@@Z 0042aa30 f   atlsd:atltypes.obj
 0001:00029a50       ??0CPoint@@QAE@UtagSIZE@@@Z 0042aa50 f   atlsd:atltypes.obj
 0001:00029a70       ??0CPoint@@QAE@J@Z         0042aa70 f   atlsd:atltypes.obj
 0001:00029ab0       ?Offset@CPoint@@QAEXHH@Z   0042aab0 f   atlsd:atltypes.obj
 0001:00029ae0       ?Offset@CPoint@@QAEXUtagPOINT@@@Z 0042aae0 f   atlsd:atltypes.obj
 0001:00029b10       ?Offset@CPoint@@QAEXUtagSIZE@@@Z 0042ab10 f   atlsd:atltypes.obj
 0001:00029b40       ?SetPoint@CPoint@@QAEXHH@Z 0042ab40 f   atlsd:atltypes.obj
 0001:00029b60       ??8CPoint@@QBEHUtagPOINT@@@Z 0042ab60 f   atlsd:atltypes.obj
 0001:00029ba0       ??9CPoint@@QBEHUtagPOINT@@@Z 0042aba0 f   atlsd:atltypes.obj
 0001:00029be0       ??YCPoint@@QAEXUtagSIZE@@@Z 0042abe0 f   atlsd:atltypes.obj
 0001:00029c10       ??ZCPoint@@QAEXUtagSIZE@@@Z 0042ac10 f   atlsd:atltypes.obj
 0001:00029c40       ??YCPoint@@QAEXUtagPOINT@@@Z 0042ac40 f   atlsd:atltypes.obj
 0001:00029c70       ??ZCPoint@@QAEXUtagPOINT@@@Z 0042ac70 f   atlsd:atltypes.obj
 0001:00029ca0       ??HCPoint@@QBE?AV0@UtagSIZE@@@Z 0042aca0 f   atlsd:atltypes.obj
 0001:00029cd0       ??GCPoint@@QBE?AV0@UtagSIZE@@@Z 0042acd0 f   atlsd:atltypes.obj
 0001:00029d00       ??GCPoint@@QBE?AV0@XZ      0042ad00 f   atlsd:atltypes.obj
 0001:00029d30       ??HCPoint@@QBE?AV0@UtagPOINT@@@Z 0042ad30 f   atlsd:atltypes.obj
 0001:00029d60       ??GCPoint@@QBE?AVCSize@@UtagPOINT@@@Z 0042ad60 f   atlsd:atltypes.obj
 0001:00029d90       ??HCPoint@@QBE?AVCRect@@PBUtagRECT@@@Z 0042ad90 f   atlsd:atltypes.obj
 0001:00029df0       ??GCPoint@@QBE?AVCRect@@PBUtagRECT@@@Z 0042adf0 f   atlsd:atltypes.obj
 0001:00029e50       ??0CRect@@QAE@XZ           0042ae50 f   atlsd:atltypes.obj
 0001:00029e90       ??0CRect@@QAE@HHHH@Z       0042ae90 f   atlsd:atltypes.obj
 0001:00029ed0       ??0CRect@@QAE@ABUtagRECT@@@Z 0042aed0 f   atlsd:atltypes.obj
 0001:00029ef0       ??0CRect@@QAE@PBUtagRECT@@@Z 0042aef0 f   atlsd:atltypes.obj
 0001:00029f10       ??0CRect@@QAE@UtagPOINT@@UtagSIZE@@@Z 0042af10 f   atlsd:atltypes.obj
 0001:00029f50       ??0CRect@@QAE@UtagPOINT@@0@Z 0042af50 f   atlsd:atltypes.obj
 0001:00029f90       ?Width@CRect@@QBEHXZ       0042af90 f   atlsd:atltypes.obj
 0001:00029fb0       ?Height@CRect@@QBEHXZ      0042afb0 f   atlsd:atltypes.obj
 0001:00029fd0       ?Size@CRect@@QBE?AVCSize@@XZ 0042afd0 f   atlsd:atltypes.obj
 0001:0002a010       ?TopLeft@CRect@@QAEAAVCPoint@@XZ 0042b010 f   atlsd:atltypes.obj
 0001:0002a020       ?BottomRight@CRect@@QAEAAVCPoint@@XZ 0042b020 f   atlsd:atltypes.obj
 0001:0002a040       ?TopLeft@CRect@@QBEABVCPoint@@XZ 0042b040 f   atlsd:atltypes.obj
 0001:0002a050       ?BottomRight@CRect@@QBEABVCPoint@@XZ 0042b050 f   atlsd:atltypes.obj
 0001:0002a070       ?CenterPoint@CRect@@QBE?AVCPoint@@XZ 0042b070 f   atlsd:atltypes.obj
 0001:0002a0b0       ?SwapLeftRight@CRect@@QAEXXZ 0042b0b0 f   atlsd:atltypes.obj
 0001:0002a0d0       ?SwapLeftRight@CRect@@SGXPAUtagRECT@@@Z 0042b0d0 f   atlsd:atltypes.obj
 0001:0002a100       ??BCRect@@QAEPAUtagRECT@@XZ 0042b100 f   atlsd:atltypes.obj
 0001:0002a110       ??BCRect@@QBEPBUtagRECT@@XZ 0042b110 f   atlsd:atltypes.obj
 0001:0002a120       ?IsRectEmpty@CRect@@QBEHXZ 0042b120 f   atlsd:atltypes.obj
 0001:0002a140       ?IsRectNull@CRect@@QBEHXZ  0042b140 f   atlsd:atltypes.obj
 0001:0002a190       ?PtInRect@CRect@@QBEHUtagPOINT@@@Z 0042b190 f   atlsd:atltypes.obj
 0001:0002a1c0       ?SetRect@CRect@@QAEXHHHH@Z 0042b1c0 f   atlsd:atltypes.obj
 0001:0002a1f0       ?SetRect@CRect@@QAEXUtagPOINT@@0@Z 0042b1f0 f   atlsd:atltypes.obj
 0001:0002a220       ?SetRectEmpty@CRect@@QAEXXZ 0042b220 f   atlsd:atltypes.obj
 0001:0002a240       ?CopyRect@CRect@@QAEXPBUtagRECT@@@Z 0042b240 f   atlsd:atltypes.obj
 0001:0002a260       ?EqualRect@CRect@@QBEHPBUtagRECT@@@Z 0042b260 f   atlsd:atltypes.obj
 0001:0002a280       ?InflateRect@CRect@@QAEXHH@Z 0042b280 f   atlsd:atltypes.obj
 0001:0002a2b0       ?InflateRect@CRect@@QAEXUtagSIZE@@@Z 0042b2b0 f   atlsd:atltypes.obj
 0001:0002a2e0       ?DeflateRect@CRect@@QAEXHH@Z 0042b2e0 f   atlsd:atltypes.obj
 0001:0002a310       ?DeflateRect@CRect@@QAEXUtagSIZE@@@Z 0042b310 f   atlsd:atltypes.obj
 0001:0002a340       ?OffsetRect@CRect@@QAEXHH@Z 0042b340 f   atlsd:atltypes.obj
 0001:0002a370       ?OffsetRect@CRect@@QAEXUtagPOINT@@@Z 0042b370 f   atlsd:atltypes.obj
 0001:0002a3a0       ?OffsetRect@CRect@@QAEXUtagSIZE@@@Z 0042b3a0 f   atlsd:atltypes.obj
 0001:0002a3d0       ?MoveToY@CRect@@QAEXH@Z    0042b3d0 f   atlsd:atltypes.obj
 0001:0002a400       ?MoveToX@CRect@@QAEXH@Z    0042b400 f   atlsd:atltypes.obj
 0001:0002a430       ?MoveToXY@CRect@@QAEXHH@Z  0042b430 f   atlsd:atltypes.obj
 0001:0002a460       ?MoveToXY@CRect@@QAEXUtagPOINT@@@Z 0042b460 f   atlsd:atltypes.obj
 0001:0002a490       ?IntersectRect@CRect@@QAEHPBUtagRECT@@0@Z 0042b490 f   atlsd:atltypes.obj
 0001:0002a4c0       ?UnionRect@CRect@@QAEHPBUtagRECT@@0@Z 0042b4c0 f   atlsd:atltypes.obj
 0001:0002a4f0       ??4CRect@@QAEXABUtagRECT@@@Z 0042b4f0 f   atlsd:atltypes.obj
 0001:0002a510       ??8CRect@@QBEHABUtagRECT@@@Z 0042b510 f   atlsd:atltypes.obj
 0001:0002a530       ??9CRect@@QBEHABUtagRECT@@@Z 0042b530 f   atlsd:atltypes.obj
 0001:0002a560       ??YCRect@@QAEXUtagPOINT@@@Z 0042b560 f   atlsd:atltypes.obj
 0001:0002a590       ??YCRect@@QAEXUtagSIZE@@@Z 0042b590 f   atlsd:atltypes.obj
 0001:0002a5c0       ??YCRect@@QAEXPBUtagRECT@@@Z 0042b5c0 f   atlsd:atltypes.obj
 0001:0002a5e0       ??ZCRect@@QAEXUtagPOINT@@@Z 0042b5e0 f   atlsd:atltypes.obj
 0001:0002a610       ??ZCRect@@QAEXUtagSIZE@@@Z 0042b610 f   atlsd:atltypes.obj
 0001:0002a640       ??ZCRect@@QAEXPBUtagRECT@@@Z 0042b640 f   atlsd:atltypes.obj
 0001:0002a660       ??_4CRect@@QAEXABUtagRECT@@@Z 0042b660 f   atlsd:atltypes.obj
 0001:0002a690       ??_5CRect@@QAEXABUtagRECT@@@Z 0042b690 f   atlsd:atltypes.obj
 0001:0002a6c0       ??HCRect@@QBE?AV0@UtagPOINT@@@Z 0042b6c0 f   atlsd:atltypes.obj
 0001:0002a730       ??GCRect@@QBE?AV0@UtagPOINT@@@Z 0042b730 f   atlsd:atltypes.obj
 0001:0002a7b0       ??HCRect@@QBE?AV0@UtagSIZE@@@Z 0042b7b0 f   atlsd:atltypes.obj
 0001:0002a820       ??GCRect@@QBE?AV0@UtagSIZE@@@Z 0042b820 f   atlsd:atltypes.obj
 0001:0002a8a0       ??HCRect@@QBE?AV0@PBUtagRECT@@@Z 0042b8a0 f   atlsd:atltypes.obj
 0001:0002a900       ??GCRect@@QBE?AV0@PBUtagRECT@@@Z 0042b900 f   atlsd:atltypes.obj
 0001:0002a960       ??ICRect@@QBE?AV0@ABUtagRECT@@@Z 0042b960 f   atlsd:atltypes.obj
 0001:0002a9c0       ??UCRect@@QBE?AV0@ABUtagRECT@@@Z 0042b9c0 f   atlsd:atltypes.obj
 0001:0002aa20       ?SubtractRect@CRect@@QAEHPBUtagRECT@@0@Z 0042ba20 f   atlsd:atltypes.obj
 0001:0002aa50       ?NormalizeRect@CRect@@QAEXXZ 0042ba50 f   atlsd:atltypes.obj
 0001:0002aac0       ?InflateRect@CRect@@QAEXPBUtagRECT@@@Z 0042bac0 f   atlsd:atltypes.obj
 0001:0002ab20       ?InflateRect@CRect@@QAEXHHHH@Z 0042bb20 f   atlsd:atltypes.obj
 0001:0002ab70       ?DeflateRect@CRect@@QAEXPBUtagRECT@@@Z 0042bb70 f   atlsd:atltypes.obj
 0001:0002abd0       ?DeflateRect@CRect@@QAEXHHHH@Z 0042bbd0 f   atlsd:atltypes.obj
 0001:0002ac20       ?MulDiv@CRect@@QBE?AV1@HH@Z 0042bc20 f   atlsd:atltypes.obj
 0001:0002aca0       ??0CTimeSpan@ATL@@QAE@XZ   0042bca0 f   atlsd:atltime.obj
 0001:0002acc0       ??0CTimeSpan@ATL@@QAE@_J@Z 0042bcc0 f   atlsd:atltime.obj
 0001:0002ace0       ??0CTimeSpan@ATL@@QAE@JHHH@Z 0042bce0 f   atlsd:atltime.obj
 0001:0002ad60       ?GetDays@CTimeSpan@ATL@@QBE_JXZ 0042bd60 f   atlsd:atltime.obj
 0001:0002ad90       ?GetTotalHours@CTimeSpan@ATL@@QBE_JXZ 0042bd90 f   atlsd:atltime.obj
 0001:0002adc0       ?GetHours@CTimeSpan@ATL@@QBEJXZ 0042bdc0 f   atlsd:atltime.obj
 0001:0002ae00       ?GetTotalMinutes@CTimeSpan@ATL@@QBE_JXZ 0042be00 f   atlsd:atltime.obj
 0001:0002ae20       ?GetMinutes@CTimeSpan@ATL@@QBEJXZ 0042be20 f   atlsd:atltime.obj
 0001:0002ae60       ?GetTotalSeconds@CTimeSpan@ATL@@QBE_JXZ 0042be60 f   atlsd:atltime.obj
 0001:0002ae80       ?GetSeconds@CTimeSpan@ATL@@QBEJXZ 0042be80 f   atlsd:atltime.obj
 0001:0002aec0       ?GetTimeSpan@CTimeSpan@ATL@@QBE_JXZ 0042bec0 f   atlsd:atltime.obj
 0001:0002aee0       ??HCTimeSpan@ATL@@QBE?AV01@V01@@Z 0042bee0 f   atlsd:atltime.obj
 0001:0002af10       ??GCTimeSpan@ATL@@QBE?AV01@V01@@Z 0042bf10 f   atlsd:atltime.obj
 0001:0002af40       ??YCTimeSpan@ATL@@QAEAAV01@V01@@Z 0042bf40 f   atlsd:atltime.obj
 0001:0002af70       ??ZCTimeSpan@ATL@@QAEAAV01@V01@@Z 0042bf70 f   atlsd:atltime.obj
 0001:0002afa0       ??8CTimeSpan@ATL@@QBE_NV01@@Z 0042bfa0 f   atlsd:atltime.obj
 0001:0002afe0       ??9CTimeSpan@ATL@@QBE_NV01@@Z 0042bfe0 f   atlsd:atltime.obj
 0001:0002b020       ??MCTimeSpan@ATL@@QBE_NV01@@Z 0042c020 f   atlsd:atltime.obj
 0001:0002b070       ??OCTimeSpan@ATL@@QBE_NV01@@Z 0042c070 f   atlsd:atltime.obj
 0001:0002b0c0       ??NCTimeSpan@ATL@@QBE_NV01@@Z 0042c0c0 f   atlsd:atltime.obj
 0001:0002b110       ??PCTimeSpan@ATL@@QBE_NV01@@Z 0042c110 f   atlsd:atltime.obj
 0001:0002b160       ?GetTickCount@CTime@ATL@@SG?AV12@XZ 0042c160 f   atlsd:atltime.obj
 0001:0002b180       ?IsValidFILETIME@CTime@ATL@@SGHABU_FILETIME@@@Z 0042c180 f   atlsd:atltime.obj
 0001:0002b1e0       ??0CTime@ATL@@QAE@XZ       0042c1e0 f   atlsd:atltime.obj
 0001:0002b200       ??0CTime@ATL@@QAE@_J@Z     0042c200 f   atlsd:atltime.obj
 0001:0002b220       ??0CTime@ATL@@QAE@HHHHHHH@Z 0042c220 f   atlsd:atltime.obj
 0001:0002b540       ??0CTime@ATL@@QAE@GGH@Z    0042c540 f   atlsd:atltime.obj
 0001:0002b640       ??0CTime@ATL@@QAE@ABU_SYSTEMTIME@@H@Z 0042c640 f   atlsd:atltime.obj
 0001:0002b6e0       ??0CTime@ATL@@QAE@ABU_FILETIME@@H@Z 0042c6e0 f   atlsd:atltime.obj
 0001:0002b790       ??4CTime@ATL@@QAEAAV01@_J@Z 0042c790 f   atlsd:atltime.obj
 0001:0002b7b0       ??YCTime@ATL@@QAEAAV01@VCTimeSpan@1@@Z 0042c7b0 f   atlsd:atltime.obj
 0001:0002b7e0       ??ZCTime@ATL@@QAEAAV01@VCTimeSpan@1@@Z 0042c7e0 f   atlsd:atltime.obj
 0001:0002b810       ??GCTime@ATL@@QBE?AVCTimeSpan@1@V01@@Z 0042c810 f   atlsd:atltime.obj
 0001:0002b840       ??GCTime@ATL@@QBE?AV01@VCTimeSpan@1@@Z 0042c840 f   atlsd:atltime.obj
 0001:0002b880       ??HCTime@ATL@@QBE?AV01@VCTimeSpan@1@@Z 0042c880 f   atlsd:atltime.obj
 0001:0002b8b0       ??8CTime@ATL@@QBE_NV01@@Z  0042c8b0 f   atlsd:atltime.obj
 0001:0002b8f0       ??9CTime@ATL@@QBE_NV01@@Z  0042c8f0 f   atlsd:atltime.obj
 0001:0002b930       ??MCTime@ATL@@QBE_NV01@@Z  0042c930 f   atlsd:atltime.obj
 0001:0002b980       ??OCTime@ATL@@QBE_NV01@@Z  0042c980 f   atlsd:atltime.obj
 0001:0002b9d0       ??NCTime@ATL@@QBE_NV01@@Z  0042c9d0 f   atlsd:atltime.obj
 0001:0002ba20       ??PCTime@ATL@@QBE_NV01@@Z  0042ca20 f   atlsd:atltime.obj
 0001:0002ba70       ?GetGmtTm@CTime@ATL@@QBEPAUtm@@PAU3@@Z 0042ca70 f   atlsd:atltime.obj
 0001:0002bb20       ?GetLocalTm@CTime@ATL@@QBEPAUtm@@PAU3@@Z 0042cb20 f   atlsd:atltime.obj
 0001:0002bbd0       ?GetAsSystemTime@CTime@ATL@@QBE_NAAU_SYSTEMTIME@@@Z 0042cbd0 f   atlsd:atltime.obj
 0001:0002bc80       ?GetTime@CTime@ATL@@QBE_JXZ 0042cc80 f   atlsd:atltime.obj
 0001:0002bca0       ?GetYear@CTime@ATL@@QBEHXZ 0042cca0 f   atlsd:atltime.obj
 0001:0002bd00       ?GetMonth@CTime@ATL@@QBEHXZ 0042cd00 f   atlsd:atltime.obj
 0001:0002bd50       ?GetDay@CTime@ATL@@QBEHXZ  0042cd50 f   atlsd:atltime.obj
 0001:0002bda0       ?GetHour@CTime@ATL@@QBEHXZ 0042cda0 f   atlsd:atltime.obj
 0001:0002bdf0       ?GetMinute@CTime@ATL@@QBEHXZ 0042cdf0 f   atlsd:atltime.obj
 0001:0002be40       ?GetSecond@CTime@ATL@@QBEHXZ 0042ce40 f   atlsd:atltime.obj
 0001:0002be90       ?GetDayOfWeek@CTime@ATL@@QBEHXZ 0042ce90 f   atlsd:atltime.obj
 0001:0002bee0       ??0CFileTimeSpan@ATL@@QAE@XZ 0042cee0 f   atlsd:atltime.obj
 0001:0002bf00       ??0CFileTimeSpan@ATL@@QAE@ABV01@@Z 0042cf00 f   atlsd:atltime.obj
 0001:0002bf30       ??0CFileTimeSpan@ATL@@QAE@_J@Z 0042cf30 f   atlsd:atltime.obj
 0001:0002bf50       ??4CFileTimeSpan@ATL@@QAEAAV01@ABV01@@Z 0042cf50 f   atlsd:atltime.obj
 0001:0002bf80       ??YCFileTimeSpan@ATL@@QAEAAV01@V01@@Z 0042cf80 f   atlsd:atltime.obj
 0001:0002bfb0       ??ZCFileTimeSpan@ATL@@QAEAAV01@V01@@Z 0042cfb0 f   atlsd:atltime.obj
 0001:0002bfe0       ??HCFileTimeSpan@ATL@@QBE?AV01@V01@@Z 0042cfe0 f   atlsd:atltime.obj
 0001:0002c010       ??GCFileTimeSpan@ATL@@QBE?AV01@V01@@Z 0042d010 f   atlsd:atltime.obj
 0001:0002c040       ??8CFileTimeSpan@ATL@@QBE_NV01@@Z 0042d040 f   atlsd:atltime.obj
 0001:0002c080       ??9CFileTimeSpan@ATL@@QBE_NV01@@Z 0042d080 f   atlsd:atltime.obj
 0001:0002c0c0       ??MCFileTimeSpan@ATL@@QBE_NV01@@Z 0042d0c0 f   atlsd:atltime.obj
 0001:0002c110       ??OCFileTimeSpan@ATL@@QBE_NV01@@Z 0042d110 f   atlsd:atltime.obj
 0001:0002c160       ??NCFileTimeSpan@ATL@@QBE_NV01@@Z 0042d160 f   atlsd:atltime.obj
 0001:0002c1b0       ??PCFileTimeSpan@ATL@@QBE_NV01@@Z 0042d1b0 f   atlsd:atltime.obj
 0001:0002c200       ?GetTimeSpan@CFileTimeSpan@ATL@@QBE_JXZ 0042d200 f   atlsd:atltime.obj
 0001:0002c220       ?SetTimeSpan@CFileTimeSpan@ATL@@QAEX_J@Z 0042d220 f   atlsd:atltime.obj
 0001:0002c240       ??0CFileTime@ATL@@QAE@XZ   0042d240 f   atlsd:atltime.obj
 0001:0002c270       ??0CFileTime@ATL@@QAE@ABU_FILETIME@@@Z 0042d270 f   atlsd:atltime.obj
 0001:0002c2a0       ??0CFileTime@ATL@@QAE@_K@Z 0042d2a0 f   atlsd:atltime.obj
 0001:0002c2d0       ??4CFileTime@ATL@@QAEAAV01@ABU_FILETIME@@@Z 0042d2d0 f   atlsd:atltime.obj
 0001:0002c300       ?GetTickCount@CFileTime@ATL@@SG?AV12@XZ 0042d300 f   atlsd:atltime.obj
 0001:0002c340       ??YCFileTime@ATL@@QAEAAV01@VCFileTimeSpan@1@@Z 0042d340 f   atlsd:atltime.obj
 0001:0002c380       ??ZCFileTime@ATL@@QAEAAV01@VCFileTimeSpan@1@@Z 0042d380 f   atlsd:atltime.obj
 0001:0002c3c0       ??HCFileTime@ATL@@QBE?AV01@VCFileTimeSpan@1@@Z 0042d3c0 f   atlsd:atltime.obj
 0001:0002c400       ??GCFileTime@ATL@@QBE?AV01@VCFileTimeSpan@1@@Z 0042d400 f   atlsd:atltime.obj
 0001:0002c440       ??GCFileTime@ATL@@QBE?AVCFileTimeSpan@1@V01@@Z 0042d440 f   atlsd:atltime.obj
 0001:0002c480       ??8CFileTime@ATL@@QBE_NV01@@Z 0042d480 f   atlsd:atltime.obj
 0001:0002c4e0       ??9CFileTime@ATL@@QBE_NV01@@Z 0042d4e0 f   atlsd:atltime.obj
 0001:0002c540       ??MCFileTime@ATL@@QBE_NV01@@Z 0042d540 f   atlsd:atltime.obj
 0001:0002c5a0       ??OCFileTime@ATL@@QBE_NV01@@Z 0042d5a0 f   atlsd:atltime.obj
 0001:0002c600       ??NCFileTime@ATL@@QBE_NV01@@Z 0042d600 f   atlsd:atltime.obj
 0001:0002c660       ??PCFileTime@ATL@@QBE_NV01@@Z 0042d660 f   atlsd:atltime.obj
 0001:0002c6c0       ?GetTime@CFileTime@ATL@@QBE_KXZ 0042d6c0 f   atlsd:atltime.obj
 0001:0002c6f0       ?SetTime@CFileTime@ATL@@QAEX_K@Z 0042d6f0 f   atlsd:atltime.obj
 0001:0002c720       ?UTCToLocal@CFileTime@ATL@@QBE?AV12@XZ 0042d720 f   atlsd:atltime.obj
 0001:0002c760       ?LocalToUTC@CFileTime@ATL@@QBE?AV12@XZ 0042d760 f   atlsd:atltime.obj
 0001:0002c7a0       ?Init@CAtlAllocator@@QAE_NPBDK@Z 0042d7a0 f   atlsd:Allocate.obj
 0001:0002cad0       ?IncRef@CAtlTraceProcess@@QAEIXZ 0042dad0 f i atlsd:Allocate.obj
 0001:0002cb00       ?Base@CAtlTraceProcess@@QBEPAXXZ 0042db00 f i atlsd:Allocate.obj
 0001:0002cb20       ?Open@CAtlAllocator@@QAE_NPBD@Z 0042db20 f   atlsd:Allocate.obj
 0001:0002cc60       ?Close@CAtlAllocator@@QAEX_N@Z 0042dc60 f   atlsd:Allocate.obj
 0001:0002ccd0       ?DecRef@CAtlTraceProcess@@QAEIXZ 0042dcd0 f i atlsd:Allocate.obj
 0001:0002cd00       ?GetModule@CAtlAllocator@@QBEPAVCAtlTraceModule@@H@Z 0042dd00 f   atlsd:Allocate.obj
 0001:0002cd90       ?ModuleCount@CAtlTraceProcess@@QBEHXZ 0042dd90 f i atlsd:Allocate.obj
 0001:0002cdb0       ?GetCategory@CAtlAllocator@@QBEPAVCAtlTraceCategory@@H@Z 0042ddb0 f   atlsd:Allocate.obj
 0001:0002ce60       ?MaxSize@CAtlTraceProcess@@QBEKXZ 0042de60 f i atlsd:Allocate.obj
 0001:0002ce80       ?CategoryCount@CAtlTraceProcess@@QBEHXZ 0042de80 f i atlsd:Allocate.obj
 0001:0002cea0       ?GetCategoryCount@CAtlAllocator@@QBEHH@Z 0042dea0 f   atlsd:Allocate.obj
 0001:0002cf20       ?GetCategoryCount@CAtlAllocator@@QBEHABVCAtlTraceModule@@@Z 0042df20 f   atlsd:Allocate.obj
 0001:0002cf90       ?GetModuleCount@CAtlAllocator@@QBEHXZ 0042df90 f   atlsd:Allocate.obj
 0001:0002cff0       ?FindModule@CAtlAllocator@@QBE_NPB_WPAI@Z 0042dff0 f   atlsd:Allocate.obj
 0001:0002d070       ?AddModule@CAtlAllocator@@QAEHPAUHINSTANCE__@@@Z 0042e070 f   atlsd:Allocate.obj
 0001:0002d240       ?TryAllocate@CAtlTraceSettings@@QAE_NXZ 0042e240 f i atlsd:Allocate.obj
 0001:0002d280       ?MarkValid@CAtlTraceSettings@@QAEXJ@Z 0042e280 f i atlsd:Allocate.obj
 0001:0002d2c0       ?IncModuleCount@CAtlTraceProcess@@QAEXI@Z 0042e2c0 f i atlsd:Allocate.obj
 0001:0002d2f0       ?AddCategory@CAtlAllocator@@QAEHHPB_W@Z 0042e2f0 f   atlsd:Allocate.obj
 0001:0002d520       ?TryAddRef@CAtlTraceSettings@@QAE_NXZ 0042e520 f i atlsd:Allocate.obj
 0001:0002d560       ?Release@CAtlTraceSettings@@QAEXXZ 0042e560 f i atlsd:Allocate.obj
 0001:0002d590       ?IncCategoryCount@CAtlTraceProcess@@QAEXI@Z 0042e590 f i atlsd:Allocate.obj
 0001:0002d5c0       ?RemoveModule@CAtlAllocator@@QAE_NH@Z 0042e5c0 f   atlsd:Allocate.obj
 0001:0002d670       ?CleanUp@CAtlAllocator@@QAEXXZ 0042e670 f   atlsd:Allocate.obj
 0001:0002d690       ?TakeSnapshot@CAtlAllocator@@QAEXXZ 0042e690 f   atlsd:Allocate.obj
 0001:0002d880       ?ReleaseSnapshot@CAtlAllocator@@QAEXXZ 0042e880 f   atlsd:Allocate.obj
 0001:0002d960       ?Add@?$CSimpleArray@UCModuleInfo@CTraceSnapshot@@V?$CSimpleArrayEqualHelper@UCModuleInfo@CTraceSnapshot@@@ATL@@@ATL@@QAEHABUCModuleInfo@CTraceSnapshot@@@Z 0042e960 f i atlsd:Allocate.obj
 0001:0002da90       ?GetSize@?$CSimpleArray@KV?$CSimpleArrayEqualHelper@K@ATL@@@ATL@@QBEHXZ 0042ea90 f i atlsd:Allocate.obj
 0001:0002dab0       ?Add@?$CSimpleArray@KV?$CSimpleArrayEqualHelper@K@ATL@@@ATL@@QAEHABK@Z 0042eab0 f i atlsd:Allocate.obj
 0001:0002dbe0       ?RemoveAt@?$CSimpleArray@KV?$CSimpleArrayEqualHelper@K@ATL@@@ATL@@QAEHH@Z 0042ebe0 f i atlsd:Allocate.obj
 0001:0002dca0       ??A?$CSimpleArray@KV?$CSimpleArrayEqualHelper@K@ATL@@@ATL@@QAEAAKH@Z 0042eca0 f i atlsd:Allocate.obj
 0001:0002dd10       ?InternalSetAtIndex@?$CSimpleArray@UCModuleInfo@CTraceSnapshot@@V?$CSimpleArrayEqualHelper@UCModuleInfo@CTraceSnapshot@@@ATL@@@ATL@@QAEXHABUCModuleInfo@CTraceSnapshot@@@Z 0042ed10 f i atlsd:Allocate.obj
 0001:0002dd60       ?InternalSetAtIndex@?$CSimpleArray@KV?$CSimpleArrayEqualHelper@K@ATL@@@ATL@@QAEXHABK@Z 0042ed60 f i atlsd:Allocate.obj
 0001:0002ddb0       ??0Wrapper@?$CSimpleArray@UCModuleInfo@CTraceSnapshot@@V?$CSimpleArrayEqualHelper@UCModuleInfo@CTraceSnapshot@@@ATL@@@ATL@@QAE@ABUCModuleInfo@CTraceSnapshot@@@Z 0042edb0 f i atlsd:Allocate.obj
 0001:0002dde0       ??0Wrapper@?$CSimpleArray@KV?$CSimpleArrayEqualHelper@K@ATL@@@ATL@@QAE@ABK@Z 0042ede0 f i atlsd:Allocate.obj
 0001:0002de00       ??$?2UCModuleInfo@CTraceSnapshot@@@Wrapper@?$CSimpleArray@UCModuleInfo@CTraceSnapshot@@V?$CSimpleArrayEqualHelper@UCModuleInfo@CTraceSnapshot@@@ATL@@@ATL@@SAPAXIPAUCModuleInfo@CTraceSnapshot@@@Z 0042ee00 f i atlsd:Allocate.obj
 0001:0002de10       ??$?2K@Wrapper@?$CSimpleArray@KV?$CSimpleArrayEqualHelper@K@ATL@@@ATL@@SAPAXIPAK@Z 0042ee10 f i atlsd:Allocate.obj
 0001:0002de20       ?memmove_s@Checked@ATL@@YAXPAXIPBXI@Z 0042ee20 f i atlsd:Allocate.obj
 0001:0002de50       ??2@YAPAXIPAX@Z            0042ee50 f i atlsd:Allocate.obj
 0001:0002de60       ??0CAtlTraceModuleInfo@@QAE@XZ 0042ee60 f   atlsd:AtlTraceModuleManager.obj
 0001:0002deb0       ?Reset@CAtlTraceModuleInfo@@QAEXPAUHINSTANCE__@@@Z 0042eeb0 f   atlsd:AtlTraceModuleManager.obj
 0001:0002dff0       ??0CAtlTraceCategory@@QAE@XZ 0042eff0 f   atlsd:AtlTraceModuleManager.obj
 0001:0002e030       ??0CAtlTraceSettings@@QAE@XZ 0042f030 f i atlsd:AtlTraceModuleManager.obj
 0001:0002e070       ?Reset@CAtlTraceCategory@@QAEXPB_WJ@Z 0042f070 f   atlsd:AtlTraceModuleManager.obj
 0001:0002e0c0       ??0CAtlTraceModule@@QAE@XZ 0042f0c0 f   atlsd:AtlTraceModuleManager.obj
 0001:0002e100       ?CrtDbgReport@CAtlTraceModule@@QAEXP6AHHPBDH00ZZ@Z 0042f100 f   atlsd:AtlTraceModuleManager.obj
 0001:0002e140       ??0CAtlTraceProcess@@QAE@K@Z 0042f140 f   atlsd:AtlTraceModuleManager.obj
 0001:0002e210       ?GetNextCookie@CAtlTraceProcess@@QAEJXZ 0042f210 f   atlsd:AtlTraceModuleManager.obj
 0001:0002e22c       _SysFreeString@4           0042f22c f   oleaut32:OLEAUT32.dll
 0001:0002e232       __snprintf_s               0042f232 f   MSVCRT:MSVCR100.dll
 0001:0002e238       __errno                    0042f238 f   MSVCRT:MSVCR100.dll
 0001:0002e23e       __CxxThrowException@8      0042f23e f   MSVCRT:MSVCR100.dll
 0001:0002e244       _strcpy                    0042f244 f   MSVCRT:MSVCR100.dll
 0001:0002e24a       _wcscpy                    0042f24a f   MSVCRT:MSVCR100.dll
 0001:0002e250       __vsnprintf_s              0042f250 f   MSVCRT:MSVCR100.dll
 0001:0002e256       _memset                    0042f256 f   MSVCRT:MSVCR100.dll
 0001:0002e25c       __vsnwprintf_s             0042f25c f   MSVCRT:MSVCR100.dll
 0001:0002e262       __snwprintf_s              0042f262 f   MSVCRT:MSVCR100.dll
 0001:0002e268       _wcscpy_s                  0042f268 f   MSVCRT:MSVCR100.dll
 0001:0002e26e       _wcsncpy_s                 0042f26e f   MSVCRT:MSVCR100.dll
 0001:0002e274       _strcpy_s                  0042f274 f   MSVCRT:MSVCR100.dll
 0001:0002e27a       _calloc                    0042f27a f   MSVCRT:MSVCR100.dll
 0001:0002e280       __recalloc                 0042f280 f   MSVCRT:MSVCR100.dll
 0001:0002e290       __allmul                   0042f290 f   MSVCRT:llmul.obj
 0001:0002e2d0       __alldiv                   0042f2d0 f   MSVCRT:lldiv.obj
 0001:0002e37a       __time64                   0042f37a f   MSVCRT:MSVCR100.dll
 0001:0002e380       __mktime64                 0042f380 f   MSVCRT:MSVCR100.dll
 0001:0002e386       __gmtime64_s               0042f386 f   MSVCRT:MSVCR100.dll
 0001:0002e390       __aullshr                  0042f390 f   MSVCRT:ullshr.obj
 0001:0002e3b0       __allshl                   0042f3b0 f   MSVCRT:llshl.obj
 0001:0002e3d0       _memcmp                    0042f3d0 f   MSVCRT:MSVCR100.dll
 0001:0002e3d6       __wcsicmp                  0042f3d6 f   MSVCRT:MSVCR100.dll
 0001:0002e3dc       _memmove_s                 0042f3dc f   MSVCRT:MSVCR100.dll
 0001:0002e3e2       _wcslen                    0042f3e2 f   MSVCRT:MSVCR100.dll
 0001:0002e3f0       _sgemm_                    0042f3f0 f   blas:sgemm.obj
 0001:0002eeb0       _dgemm_                    0042feb0 f   blas:dgemm.obj
 0001:0002f900       _xerbla_                   00430900 f   blas:xerbla.obj
 0001:0002f920       _lsame_                    00430920 f   blas:lsame.obj
 0001:0002f960       _sgesvd_                   00430960 f   lapack:sgesvd.obj
 0001:000375d0       _spotf2_                   004385d0 f   lapack:spotf2.obj
 0001:00037950       _dgesvd_                   00438950 f   lapack:dgesvd.obj
 0001:0003f5b0       _dpotf2_                   004405b0 f   lapack:dpotf2.obj
 0001:0003f940       _dtrtrs_                   00440940 f   lapack:dtrtrs.obj
 0001:0003fb60       _dorgqr_                   00440b60 f   lapack:dorgqr.obj
 0001:00040050       _dgeqrf_                   00441050 f   lapack:dgeqrf.obj
 0001:00040460       _dpotrs_                   00441460 f   lapack:dpotrs.obj
 0001:00040630       _dpotrf_                   00441630 f   lapack:dpotrf.obj
 0001:00040aa0       _dgetrs_                   00441aa0 f   lapack:dgetrs.obj
 0001:00040d10       _dgetrf_                   00441d10 f   lapack:dgetrf.obj
 0001:00041080       _dsytrs_                   00442080 f   lapack:dsytrs.obj
 0001:00041a60       _dsytrf_                   00442a60 f   lapack:dsytrf.obj
 0001:00041e10       _strtrs_                   00442e10 f   lapack:strtrs.obj
 0001:00042030       _sorgqr_                   00443030 f   lapack:sorgqr.obj
 0001:00042540       _sgeqrf_                   00443540 f   lapack:sgeqrf.obj
 0001:00042950       _spotrs_                   00443950 f   lapack:spotrs.obj
 0001:00042b20       _spotrf_                   00443b20 f   lapack:spotrf.obj
 0001:00042f90       _sgetrs_                   00443f90 f   lapack:sgetrs.obj
 0001:00043200       _sgetrf_                   00444200 f   lapack:sgetrf.obj
 0001:00043570       _ssytrs_                   00444570 f   lapack:ssytrs.obj
 0001:00044030       _ssytrf_                   00445030 f   lapack:ssytrf.obj
 0001:000443e0       _sorglq_                   004453e0 f   lapack:sorglq.obj
 0001:000448d0       _sgelqf_                   004458d0 f   lapack:sgelqf.obj
 0001:00044d00       _sormbr_                   00445d00 f   lapack:sormbr.obj
 0001:00045390       _slacpy_                   00446390 f   lapack:slacpy.obj
 0001:00045700       _sbdsqr_                   00446700 f   lapack:sbdsqr.obj
 0001:00047650       _sorgbr_                   00448650 f   lapack:sorgbr.obj
 0001:00047b90       _sgebrd_                   00448b90 f   lapack:sgebrd.obj
 0001:00048130       _slaset_                   00449130 f   lapack:slaset.obj
 0001:00048440       _slascl_                   00449440 f   lapack:slascl.obj
 0001:00048e40       _slange_                   00449e40 f   lapack:slange.obj
 0001:000494f0       _slamc3_                   0044a4f0 f   lapack:slamch.obj
 0001:00049510       _slamc4_                   0044a510 f   lapack:slamch.obj
 0001:00049780       _slamc5_                   0044a780 f   lapack:slamch.obj
 0001:00049a70       _slamc1_                   0044aa70 f   lapack:slamch.obj
 0001:00049cb0       _slamc2_                   0044acb0 f   lapack:slamch.obj
 0001:0004a0c0       _slamch_                   0044b0c0 f   lapack:slamch.obj
 0001:0004a310       _ilaenv_                   0044b310 f   lapack:ilaenv.obj
 0001:0004b4e0       _sisnan_                   0044c4e0 f   lapack:sisnan.obj
 0001:0004b4f0       _dorglq_                   0044c4f0 f   lapack:dorglq.obj
 0001:0004b9f0       _dgelqf_                   0044c9f0 f   lapack:dgelqf.obj
 0001:0004be20       _dormbr_                   0044ce20 f   lapack:dormbr.obj
 0001:0004c4c0       _dlacpy_                   0044d4c0 f   lapack:dlacpy.obj
 0001:0004c830       _dbdsqr_                   0044d830 f   lapack:dbdsqr.obj
 0001:0004e3b0       _dorgbr_                   0044f3b0 f   lapack:dorgbr.obj
 0001:0004e8b0       _dgebrd_                   0044f8b0 f   lapack:dgebrd.obj
 0001:0004ee40       _dlaset_                   0044fe40 f   lapack:dlaset.obj
 0001:0004f160       _dlascl_                   00450160 f   lapack:dlascl.obj
 0001:0004fa90       _dlange_                   00450a90 f   lapack:dlange.obj
 0001:0004ff80       _dlamc3_                   00450f80 f   lapack:dlamch.obj
 0001:0004ff90       _dlamc4_                   00450f90 f   lapack:dlamch.obj
 0001:00050130       _dlamc5_                   00451130 f   lapack:dlamch.obj
 0001:00050350       _dlamc1_                   00451350 f   lapack:dlamch.obj
 0001:000504b0       _dlamc2_                   004514b0 f   lapack:dlamch.obj
 0001:00050860       _dlamch_                   00451860 f   lapack:dlamch.obj
 0001:00050b10       _disnan_                   00451b10 f   lapack:disnan.obj
 0001:00050b20       _dlarfb_                   00451b20 f   lapack:dlarfb.obj
 0001:000529a0       _dlarft_                   004539a0 f   lapack:dlarft.obj
 0001:00053010       _dorg2r_                   00454010 f   lapack:dorg2r.obj
 0001:000532a0       _dgeqr2_                   004542a0 f   lapack:dgeqr2.obj
 0001:00053440       _dlaswp_                   00454440 f   lapack:dlaswp.obj
 0001:000538d0       _dgetf2_                   004548d0 f   lapack:dgetf2.obj
 0001:00053b50       _dsytf2_                   00454b50 f   lapack:dsytf2.obj
 0001:00054800       _dlasyf_                   00455800 f   lapack:dlasyf.obj
 0001:000559c0       _slarfb_                   004569c0 f   lapack:slarfb.obj
 0001:00057850       _slarft_                   00458850 f   lapack:slarft.obj
 0001:00057ed0       _sorg2r_                   00458ed0 f   lapack:sorg2r.obj
 0001:00058160       _sgeqr2_                   00459160 f   lapack:sgeqr2.obj
 0001:00058300       _slaswp_                   00459300 f   lapack:slaswp.obj
 0001:00058820       _sgetf2_                   00459820 f   lapack:sgetf2.obj
 0001:00058aa0       _ssytf2_                   00459aa0 f   lapack:ssytf2.obj
 0001:00059880       _slasyf_                   0045a880 f   lapack:slasyf.obj
 0001:0005add0       _sorgl2_                   0045bdd0 f   lapack:sorgl2.obj
 0001:0005b070       _sgelq2_                   0045c070 f   lapack:sgelq2.obj
 0001:0005b210       _sormlq_                   0045c210 f   lapack:sormlq.obj
 0001:0005b8c0       _sormqr_                   0045c8c0 f   lapack:sormqr.obj
 0001:0005bf30       _slas2_                    0045cf30 f   lapack:slas2.obj
 0001:0005c1c0       _slasv2_                   0045d1c0 f   lapack:slasv2.obj
 0001:0005c6c0       _slasr_                    0045d6c0 f   lapack:slasr.obj
 0001:0005e400       _slartg_                   0045f400 f   lapack:slartg.obj
 0001:0005e7b0       _slasq1_                   0045f7b0 f   lapack:slasq1.obj
 0001:0005eaf0       _sgebd2_                   0045faf0 f   lapack:sgebd2.obj
 0001:0005efc0       _slabrd_                   0045ffc0 f   lapack:slabrd.obj
 0001:0005ff90       _slassq_                   00460f90 f   lapack:slassq.obj
 0001:00060060       _iparmq_                   00461060 f   lapack:iparmq.obj
 0001:000601a0       _ieeeck_                   004611a0 f   lapack:ieeeck.obj
 0001:00060350       _slaisnan_                 00461350 f   lapack:slaisnan.obj
 0001:00060370       _dorgl2_                   00461370 f   lapack:dorgl2.obj
 0001:00060610       _dgelq2_                   00461610 f   lapack:dgelq2.obj
 0001:000607a0       _dormlq_                   004617a0 f   lapack:dormlq.obj
 0001:00060e40       _dormqr_                   00461e40 f   lapack:dormqr.obj
 0001:000614b0       _dlas2_                    004624b0 f   lapack:dlas2.obj
 0001:00061690       _dlasv2_                   00462690 f   lapack:dlasv2.obj
 0001:00061ac0       _dlasr_                    00462ac0 f   lapack:dlasr.obj
 0001:00063520       _dlartg_                   00464520 f   lapack:dlartg.obj
 0001:00063820       _dlasq1_                   00464820 f   lapack:dlasq1.obj
 0001:00063b10       _dgebd2_                   00464b10 f   lapack:dgebd2.obj
 0001:00063fe0       _dlabrd_                   00464fe0 f   lapack:dlabrd.obj
 0001:00064fb0       _dlassq_                   00465fb0 f   lapack:dlassq.obj
 0001:00065050       _dlaisnan_                 00466050 f   lapack:dlaisnan.obj
 0001:00065070       _iladlc_                   00466070 f   lapack:iladlc.obj
 0001:00065110       _iladlr_                   00466110 f   lapack:iladlr.obj
 0001:00065220       _dlarf_                    00466220 f   lapack:dlarf.obj
 0001:00065410       _dlarfp_                   00466410 f   lapack:dlarfp.obj
 0001:00065660       _ilaslc_                   00466660 f   lapack:ilaslc.obj
 0001:00065700       _ilaslr_                   00466700 f   lapack:ilaslr.obj
 0001:00065810       _slarf_                    00466810 f   lapack:slarf.obj
 0001:00065a00       _slarfp_                   00466a00 f   lapack:slarfp.obj
 0001:00065c90       _sorml2_                   00466c90 f   lapack:sorml2.obj
 0001:00065f50       _sorm2r_                   00466f50 f   lapack:sorm2r.obj
 0001:00066210       _slasq2_                   00467210 f   lapack:slasq2.obj
 0001:00067110       _slasrt_                   00468110 f   lapack:slasrt.obj
 0001:00067570       _slarfg_                   00468570 f   lapack:slarfg.obj
 0001:00067770       _dorml2_                   00468770 f   lapack:dorml2.obj
 0001:00067a40       _dorm2r_                   00468a40 f   lapack:dorm2r.obj
 0001:00067d20       _dlasq2_                   00468d20 f   lapack:dlasq2.obj
 0001:00068ac0       _dlasrt_                   00469ac0 f   lapack:dlasrt.obj
 0001:00068ee0       _dlarfg_                   00469ee0 f   lapack:dlarfg.obj
 0001:000690b0       _dlapy2_                   0046a0b0 f   lapack:dlapy2.obj
 0001:00069130       _slapy2_                   0046a130 f   lapack:slapy2.obj
 0001:000691e0       _slasq3_                   0046a1e0 f   lapack:slasq3.obj
 0001:00069960       _dlasq3_                   0046a960 f   lapack:dlasq3.obj
 0001:00069f60       _slasq6_                   0046af60 f   lapack:slasq6.obj
 0001:0006a3b0       _slasq5_                   0046b3b0 f   lapack:slasq5.obj
 0001:0006a8c0       _slasq4_                   0046b8c0 f   lapack:slasq4.obj
 0001:0006b470       _dlasq6_                   0046c470 f   lapack:dlasq6.obj
 0001:0006b7b0       _dlasq5_                   0046c7b0 f   lapack:dlasq5.obj
 0001:0006bb50       _dlasq4_                   0046cb50 f   lapack:dlasq4.obj
 0001:0006c500       _s_cat                     0046d500 f   libf2c:s_cat.obj
 0001:0006c620       _r_sign                    0046d620 f   libf2c:r_sign.obj
 0001:0006c650       _pow_dd                    0046d650 f   libf2c:pow_dd.obj
 0001:0006c670       _e_rsfe                    0046d670 f   libf2c:sfe.obj
 0001:0006c680       _c_sfe                     0046d680 f   libf2c:sfe.obj
 0001:0006c760       _e_wsfe                    0046d760 f   libf2c:sfe.obj
 0001:0006d0b0       _do_fio                    0046e0b0 f   libf2c:fmt.obj
 0001:0006d410       _en_fio                    0046e410 f   libf2c:fmt.obj
 0001:0006d430       _fmt_bg                    0046e430 f   libf2c:fmt.obj
 0001:0006d4d0       _pars_f                    0046e4d0 f   libf2c:fmt.obj
 0001:0006d500       _x_wSL                     0046e500 f   libf2c:wsfe.obj
 0001:0006d5d0       _s_wsfe                    0046e5d0 f   libf2c:wsfe.obj
 0001:0006d730       _pow_ri                    0046e730 f   libf2c:pow_ri.obj
 0001:0006d770       _s_cmp                     0046e770 f   libf2c:s_cmp.obj
 0001:0006d800       _s_copy                    0046e800 f   libf2c:s_copy.obj
 0001:0006d8a0       _d_sign                    0046e8a0 f   libf2c:d_sign.obj
 0001:0006d8d0       _pow_di                    0046e8d0 f   libf2c:pow_di.obj
 0001:0006d910       _i_nint                    0046e910 f   libf2c:i_nint.obj
 0001:0006d960       _F77_aloc                  0046e960 f   libf2c:f77_aloc.obj
 0001:0006d9b0       _f__canseek                0046e9b0 f   libf2c:err.obj
 0001:0006d9c0       _f__fatal                  0046e9c0 f   libf2c:err.obj
 0001:0006db40       _f_init                    0046eb40 f   libf2c:err.obj
 0001:0006dbc0       _f__nowreading             0046ebc0 f   libf2c:err.obj
 0001:0006dc70       _f__nowwriting             0046ec70 f   libf2c:err.obj
 0001:0006dd50       _err__fl                   0046ed50 f   libf2c:err.obj
 0001:0006de20       _f__putbuf                 0046ee20 f   libf2c:open.obj
 0001:0006ded0       _x_putc                    0046eed0 f   libf2c:open.obj
 0001:0006df60       _f_open                    0046ef60 f   libf2c:open.obj
 0001:0006e460       _fk_open                   0046f460 f   libf2c:open.obj
 0001:0006e520       _sig_die                   0046f520 f   libf2c:sig_die.obj
 0001:0006eb20       _wrt_L                     0046fb20 f   libf2c:wrtfmt.obj
 0001:0006ed10       _w_ed                      0046fd10 f   libf2c:wrtfmt.obj
 0001:0006ef00       _w_ned                     0046ff00 f   libf2c:wrtfmt.obj
 0001:0006efd0       _exit_                     0046ffd0 f   libf2c:exit_.obj
 0001:0006efe0       _g_char                    0046ffe0 f   libf2c:util.obj
 0001:0006f020       _b_char                    00470020 f   libf2c:util.obj
 0001:0006f060       _f_clos                    00470060 f   libf2c:close.obj
 0001:0006f100       _f_exit                    00470100 f   libf2c:close.obj
 0001:0006f140       _flush_                    00470140 f   libf2c:close.obj
 0001:0006f180       _f__icvt                   00470180 f   libf2c:fmtlib.obj
 0001:0006f200       _wrt_E                     00470200 f   libf2c:wref.obj
 0001:0006f610       _wrt_F                     00470610 f   libf2c:wref.obj
 0001:0006f860       _t_runc                    00470860 f   libf2c:endfile.obj
 0001:0006fa60       _f_end                     00470a60 f   libf2c:endfile.obj
 0001:0006fb50       _WinMain@16                00470b50 f   mfcs100d:appmodul.obj
 0001:0006fb70       ?AfxInitialize@@YGHHK@Z    00470b70 f   mfcs100d:appmodul.obj
 0001:0006fbc6       __CrtDbgReport             00470bc6 f   msvcrtd:MSVCR100D.dll
 0001:0006fbcc       _printf                    00470bcc f   msvcrtd:MSVCR100D.dll
 0001:0006fbe0       __chkstk                   00470be0 f   msvcrtd:chkstk.obj
 0001:0006fbe0       __alloca_probe             00470be0     msvcrtd:chkstk.obj
 0001:0006fc0c       __CIlog                    00470c0c f   msvcrtd:MSVCR100D.dll
 0001:0006fc12       __CIpow                    00470c12 f   msvcrtd:MSVCR100D.dll
 0001:0006fc18       _floor                     00470c18 f   msvcrtd:MSVCR100D.dll
 0001:0006fc1e       _perror                    00470c1e f   msvcrtd:MSVCR100D.dll
 0001:0006fc24       _fseek                     00470c24 f   msvcrtd:MSVCR100D.dll
 0001:0006fc2a       _freopen                   00470c2a f   msvcrtd:MSVCR100D.dll
 0001:0006fc30       _ftell                     00470c30 f   msvcrtd:MSVCR100D.dll
 0001:0006fc36       _putc                      00470c36 f   msvcrtd:MSVCR100D.dll
 0001:0006fc3c       _fputs                     00470c3c f   msvcrtd:MSVCR100D.dll
 0001:0006fc42       _rewind                    00470c42 f   msvcrtd:MSVCR100D.dll
 0001:0006fc48       _tmpfile                   00470c48 f   msvcrtd:MSVCR100D.dll
 0001:0006fc4e       _strncmp                   00470c4e f   msvcrtd:MSVCR100D.dll
 0001:0006fc54       _abort                     00470c54 f   msvcrtd:MSVCR100D.dll
 0001:0006fc5a       _signal                    00470c5a f   msvcrtd:MSVCR100D.dll
 0001:0006fc60       _remove                    00470c60 f   msvcrtd:MSVCR100D.dll
 0001:0006fc66       _atoi                      00470c66 f   msvcrtd:MSVCR100D.dll
 0001:0006fc6c       _fread                     00470c6c f   msvcrtd:MSVCR100D.dll
 0001:0006fc72       __setmbcp                  00470c72 f   msvcrtd:MSVCR100D.dll
 0001:0006fc78       _RaiseException@16         00470c78 f   kernel32:KERNEL32.dll
 0001:0006fc7e       _SetEvent@4                00470c7e f   kernel32:KERNEL32.dll
 0001:0006fc84       _OpenEventA@12             00470c84 f   kernel32:KERNEL32.dll
 0001:0006fc8a       _OutputDebugStringA@4      00470c8a f   kernel32:KERNEL32.dll
 0001:0006fc90       _OutputDebugStringW@4      00470c90 f   kernel32:KERNEL32.dll
 0001:0006fc96       _MultiByteToWideChar@24    00470c96 f   kernel32:KERNEL32.dll
 0001:0006fc9c       _lstrlenA@4                00470c9c f   kernel32:KERNEL32.dll
 0001:0006fca2       _MulDiv@12                 00470ca2 f   kernel32:KERNEL32.dll
 0001:0006fca8       _FileTimeToSystemTime@8    00470ca8 f   kernel32:KERNEL32.dll
 0001:0006fcae       _FileTimeToLocalFileTime@8 00470cae f   kernel32:KERNEL32.dll
 0001:0006fcb4       _LocalFileTimeToFileTime@8 00470cb4 f   kernel32:KERNEL32.dll
 0001:0006fcba       _VirtualAlloc@16           00470cba f   kernel32:KERNEL32.dll
 0001:0006fcc0       _UnmapViewOfFile@4         00470cc0 f   kernel32:KERNEL32.dll
 0001:0006fcc6       _GetSystemInfo@4           00470cc6 f   kernel32:KERNEL32.dll
 0001:0006fccc       _MapViewOfFile@20          00470ccc f   kernel32:KERNEL32.dll
 0001:0006fcd2       _CreateFileMappingA@24     00470cd2 f   kernel32:KERNEL32.dll
 0001:0006fcd8       _GetCurrentThread@0        00470cd8 f   kernel32:KERNEL32.dll
 0001:0006fcde       _OpenFileMappingA@12       00470cde f   kernel32:KERNEL32.dll
 0001:0006fce4       _GetModuleFileNameW@12     00470ce4 f   kernel32:KERNEL32.dll
 0001:0006fcea       _CopyRect@8                00470cea f   user32:USER32.dll
 0001:0006fcf0       _IsRectEmpty@4             00470cf0 f   user32:USER32.dll
 0001:0006fcf6       _PtInRect@12               00470cf6 f   user32:USER32.dll
 0001:0006fcfc       _SetRect@20                00470cfc f   user32:USER32.dll
 0001:0006fd02       _SetRectEmpty@4            00470d02 f   user32:USER32.dll
 0001:0006fd08       _EqualRect@8               00470d08 f   user32:USER32.dll
 0001:0006fd0e       _InflateRect@12            00470d0e f   user32:USER32.dll
 0001:0006fd14       _OffsetRect@12             00470d14 f   user32:USER32.dll
 0001:0006fd1a       _IntersectRect@12          00470d1a f   user32:USER32.dll
 0001:0006fd20       _UnionRect@12              00470d20 f   user32:USER32.dll
 0001:0006fd26       _SubtractRect@12           00470d26 f   user32:USER32.dll
 0001:0006fd2c       _SetThreadToken@8          00470d2c f   advapi32:ADVAPI32.dll
 0001:0006fd32       _RevertToSelf@0            00470d32 f   advapi32:ADVAPI32.dll
 0001:0006fd38       _OpenThreadToken@16        00470d38 f   advapi32:ADVAPI32.dll
 0001:0006fd3e       __access                   00470d3e f   MSVCRT:MSVCR100.dll
 0001:0006fd50       _sscal_                    00470d50 f   blas:sscal.obj
 0001:0006fe80       _sgemv_                    00470e80 f   blas:sgemv.obj
 0001:00070600       _sdot_                     00471600 f   blas:sdot.obj
 0001:00070850       _dscal_                    00471850 f   blas:dscal.obj
 0001:00070980       _dgemv_                    00471980 f   blas:dgemv.obj
 0001:000710f0       _ddot_                     004720f0 f   blas:ddot.obj
 0001:000712e0       _dtrsm_                    004722e0 f   blas:dtrsm.obj
 0001:00072600       _dsyrk_                    00473600 f   blas:dsyrk.obj
 0001:000730e0       _dger_                     004740e0 f   blas:dger.obj
 0001:00073410       _dswap_                    00474410 f   blas:dswap.obj
 0001:00073610       _strsm_                    00474610 f   blas:strsm.obj
 0001:000749f0       _ssyrk_                    004759f0 f   blas:ssyrk.obj
 0001:00075500       _sger_                     00476500 f   blas:sger.obj
 0001:00075830       _sswap_                    00476830 f   blas:sswap.obj
 0001:00075aa0       _srot_                     00476aa0 f   blas:srot.obj
 0001:00075db0       _drot_                     00476db0 f   blas:drot.obj
 0001:00076070       _dtrmm_                    00477070 f   blas:dtrmm.obj
 0001:00077120       _dcopy_                    00478120 f   blas:dcopy.obj
 0001:000772f0       _dtrmv_                    004782f0 f   blas:dtrmv.obj
 0001:00077df0       _idamax_                   00478df0 f   blas:idamax.obj
 0001:00078080       _dsyr_                     00479080 f   blas:dsyr.obj
 0001:00078630       _strmm_                    00479630 f   blas:strmm.obj
 0001:00079790       _scopy_                    0047a790 f   blas:scopy.obj
 0001:00079960       _strmv_                    0047a960 f   blas:strmv.obj
 0001:0007a520       _isamax_                   0047b520 f   blas:isamax.obj
 0001:0007a930       _ssyr_                     0047b930 f   blas:ssyr.obj
 0001:0007aeb0       _dnrm2_                    0047beb0 f   blas:dnrm2.obj
 0001:0007af90       _snrm2_                    0047bf90 f   blas:snrm2.obj
 0001:0007b0ba       ?AfxWinMain@@YGHPAUHINSTANCE__@@0PADH@Z 0047c0ba f   mfc100d:mfc100d.dll
 0001:0007b0c0       ?AfxGetModuleState@@YGPAVAFX_MODULE_STATE@@XZ 0047c0c0 f   mfc100d:mfc100d.dll
 0002:00000000       ___xc_a                    0049a000     msvcrtd:cinitexe.obj
 0002:000005bc       ___xc_z                    0049a5bc     msvcrtd:cinitexe.obj
 0002:000006c0       ___xi_a                    0049a6c0     msvcrtd:cinitexe.obj
 0002:00000ad0       ___xi_z                    0049aad0     msvcrtd:cinitexe.obj
 0002:000022a0       ?_Min@?$AtlLimits@H@ATL@@2HB 0049c2a0     APTMotor.obj
 0002:000022a4       ?_Max@?$AtlLimits@H@ATL@@2HB 0049c2a4     APTMotor.obj
 0002:000022a8       ?_Min@?$AtlLimits@I@ATL@@2IB 0049c2a8     APTMotor.obj
 0002:000022ac       ?_Max@?$AtlLimits@I@ATL@@2IB 0049c2ac     APTMotor.obj
 0002:000022b0       ?_Min@?$AtlLimits@J@ATL@@2JB 0049c2b0     APTMotor.obj
 0002:000022b4       ?_Max@?$AtlLimits@J@ATL@@2JB 0049c2b4     APTMotor.obj
 0002:000022b8       ?_Min@?$AtlLimits@K@ATL@@2KB 0049c2b8     APTMotor.obj
 0002:000022bc       ?_Max@?$AtlLimits@K@ATL@@2KB 0049c2bc     APTMotor.obj
 0002:000022c0       ?_Min@?$AtlLimits@_J@ATL@@2_JB 0049c2c0     APTMotor.obj
 0002:000022d0       ?_Max@?$AtlLimits@_J@ATL@@2_JB 0049c2d0     APTMotor.obj
 0002:000022e0       ?_Min@?$AtlLimits@_K@ATL@@2_KB 0049c2e0     APTMotor.obj
 0002:000022f0       ?_Max@?$AtlLimits@_K@ATL@@2_KB 0049c2f0     APTMotor.obj
 0002:000022fc       ?VT@?$_CVarTypeInfo@D@ATL@@2GB 0049c2fc     APTMotor.obj
 0002:00002300       ?pmField@?$_CVarTypeInfo@D@ATL@@2QQtagVARIANT@@DQ3@ 0049c300     APTMotor.obj
 0002:00002304       ?VT@?$_CVarTypeInfo@E@ATL@@2GB 0049c304     APTMotor.obj
 0002:00002308       ?pmField@?$_CVarTypeInfo@E@ATL@@2QQtagVARIANT@@EQ3@ 0049c308     APTMotor.obj
 0002:0000230c       ?VT@?$_CVarTypeInfo@PAD@ATL@@2GB 0049c30c     APTMotor.obj
 0002:00002310       ?pmField@?$_CVarTypeInfo@PAD@ATL@@2QQtagVARIANT@@PADQ3@ 0049c310     APTMotor.obj
 0002:00002314       ?VT@?$_CVarTypeInfo@PAE@ATL@@2GB 0049c314     APTMotor.obj
 0002:00002318       ?pmField@?$_CVarTypeInfo@PAE@ATL@@2QQtagVARIANT@@PAEQ3@ 0049c318     APTMotor.obj
 0002:0000231c       ?VT@?$_CVarTypeInfo@F@ATL@@2GB 0049c31c     APTMotor.obj
 0002:00002320       ?pmField@?$_CVarTypeInfo@F@ATL@@2QQtagVARIANT@@FQ3@ 0049c320     APTMotor.obj
 0002:00002324       ?VT@?$_CVarTypeInfo@PAF@ATL@@2GB 0049c324     APTMotor.obj
 0002:00002328       ?pmField@?$_CVarTypeInfo@PAF@ATL@@2QQtagVARIANT@@PAFQ3@ 0049c328     APTMotor.obj
 0002:0000232c       ?VT@?$_CVarTypeInfo@G@ATL@@2GB 0049c32c     APTMotor.obj
 0002:00002330       ?pmField@?$_CVarTypeInfo@G@ATL@@2QQtagVARIANT@@GQ3@ 0049c330     APTMotor.obj
 0002:00002334       ?VT@?$_CVarTypeInfo@PAG@ATL@@2GB 0049c334     APTMotor.obj
 0002:00002338       ?pmField@?$_CVarTypeInfo@PAG@ATL@@2QQtagVARIANT@@PAGQ3@ 0049c338     APTMotor.obj
 0002:0000233c       ?VT@?$_CVarTypeInfo@H@ATL@@2GB 0049c33c     APTMotor.obj
 0002:00002340       ?pmField@?$_CVarTypeInfo@H@ATL@@2QQtagVARIANT@@HQ3@ 0049c340     APTMotor.obj
 0002:00002344       ?VT@?$_CVarTypeInfo@PAH@ATL@@2GB 0049c344     APTMotor.obj
 0002:00002348       ?pmField@?$_CVarTypeInfo@PAH@ATL@@2QQtagVARIANT@@PAHQ3@ 0049c348     APTMotor.obj
 0002:0000234c       ?VT@?$_CVarTypeInfo@I@ATL@@2GB 0049c34c     APTMotor.obj
 0002:00002350       ?pmField@?$_CVarTypeInfo@I@ATL@@2QQtagVARIANT@@IQ3@ 0049c350     APTMotor.obj
 0002:00002354       ?VT@?$_CVarTypeInfo@PAI@ATL@@2GB 0049c354     APTMotor.obj
 0002:00002358       ?pmField@?$_CVarTypeInfo@PAI@ATL@@2QQtagVARIANT@@PAIQ3@ 0049c358     APTMotor.obj
 0002:0000235c       ?VT@?$_CVarTypeInfo@J@ATL@@2GB 0049c35c     APTMotor.obj
 0002:00002360       ?pmField@?$_CVarTypeInfo@J@ATL@@2QQtagVARIANT@@JQ3@ 0049c360     APTMotor.obj
 0002:00002364       ?VT@?$_CVarTypeInfo@PAJ@ATL@@2GB 0049c364     APTMotor.obj
 0002:00002368       ?pmField@?$_CVarTypeInfo@PAJ@ATL@@2QQtagVARIANT@@PAJQ3@ 0049c368     APTMotor.obj
 0002:0000236c       ?VT@?$_CVarTypeInfo@K@ATL@@2GB 0049c36c     APTMotor.obj
 0002:00002370       ?pmField@?$_CVarTypeInfo@K@ATL@@2QQtagVARIANT@@KQ3@ 0049c370     APTMotor.obj
 0002:00002374       ?VT@?$_CVarTypeInfo@PAK@ATL@@2GB 0049c374     APTMotor.obj
 0002:00002378       ?pmField@?$_CVarTypeInfo@PAK@ATL@@2QQtagVARIANT@@PAKQ3@ 0049c378     APTMotor.obj
 0002:0000237c       ?VT@?$_CVarTypeInfo@_J@ATL@@2GB 0049c37c     APTMotor.obj
 0002:00002380       ?pmField@?$_CVarTypeInfo@_J@ATL@@2QQtagVARIANT@@_JQ3@ 0049c380     APTMotor.obj
 0002:00002384       ?VT@?$_CVarTypeInfo@PA_J@ATL@@2GB 0049c384     APTMotor.obj
 0002:00002388       ?pmField@?$_CVarTypeInfo@PA_J@ATL@@2QQtagVARIANT@@PA_JQ3@ 0049c388     APTMotor.obj
 0002:0000238c       ?VT@?$_CVarTypeInfo@_K@ATL@@2GB 0049c38c     APTMotor.obj
 0002:00002390       ?pmField@?$_CVarTypeInfo@_K@ATL@@2QQtagVARIANT@@_KQ3@ 0049c390     APTMotor.obj
 0002:00002394       ?VT@?$_CVarTypeInfo@PA_K@ATL@@2GB 0049c394     APTMotor.obj
 0002:00002398       ?pmField@?$_CVarTypeInfo@PA_K@ATL@@2QQtagVARIANT@@PA_KQ3@ 0049c398     APTMotor.obj
 0002:0000239c       ?VT@?$_CVarTypeInfo@M@ATL@@2GB 0049c39c     APTMotor.obj
 0002:000023a0       ?pmField@?$_CVarTypeInfo@M@ATL@@2QQtagVARIANT@@MQ3@ 0049c3a0     APTMotor.obj
 0002:000023a4       ?VT@?$_CVarTypeInfo@PAM@ATL@@2GB 0049c3a4     APTMotor.obj
 0002:000023a8       ?pmField@?$_CVarTypeInfo@PAM@ATL@@2QQtagVARIANT@@PAMQ3@ 0049c3a8     APTMotor.obj
 0002:000023ac       ?VT@?$_CVarTypeInfo@N@ATL@@2GB 0049c3ac     APTMotor.obj
 0002:000023b0       ?pmField@?$_CVarTypeInfo@N@ATL@@2QQtagVARIANT@@NQ3@ 0049c3b0     APTMotor.obj
 0002:000023b4       ?VT@?$_CVarTypeInfo@PAN@ATL@@2GB 0049c3b4     APTMotor.obj
 0002:000023b8       ?pmField@?$_CVarTypeInfo@PAN@ATL@@2QQtagVARIANT@@PANQ3@ 0049c3b8     APTMotor.obj
 0002:000023bc       ?VT@?$_CVarTypeInfo@PAUtagVARIANT@@@ATL@@2GB 0049c3bc     APTMotor.obj
 0002:000023c0       ?VT@?$_CVarTypeInfo@PA_W@ATL@@2GB 0049c3c0     APTMotor.obj
 0002:000023c4       ?pmField@?$_CVarTypeInfo@PA_W@ATL@@2QQtagVARIANT@@PA_WQ3@ 0049c3c4     APTMotor.obj
 0002:000023c8       ?VT@?$_CVarTypeInfo@PAPA_W@ATL@@2GB 0049c3c8     APTMotor.obj
 0002:000023cc       ?pmField@?$_CVarTypeInfo@PAPA_W@ATL@@2QQtagVARIANT@@PAPA_WQ3@ 0049c3cc     APTMotor.obj
 0002:000023d0       ?VT@?$_CVarTypeInfo@PAUIUnknown@@@ATL@@2GB 0049c3d0     APTMotor.obj
 0002:000023d4       ?pmField@?$_CVarTypeInfo@PAUIUnknown@@@ATL@@2QQtagVARIANT@@PAUIUnknown@@Q3@ 0049c3d4     APTMotor.obj
 0002:000023d8       ?VT@?$_CVarTypeInfo@PAPAUIUnknown@@@ATL@@2GB 0049c3d8     APTMotor.obj
 0002:000023dc       ?pmField@?$_CVarTypeInfo@PAPAUIUnknown@@@ATL@@2QQtagVARIANT@@PAPAUIUnknown@@Q3@ 0049c3dc     APTMotor.obj
 0002:000023e0       ?VT@?$_CVarTypeInfo@PAUIDispatch@@@ATL@@2GB 0049c3e0     APTMotor.obj
 0002:000023e4       ?pmField@?$_CVarTypeInfo@PAUIDispatch@@@ATL@@2QQtagVARIANT@@PAUIDispatch@@Q3@ 0049c3e4     APTMotor.obj
 0002:000023e8       ?VT@?$_CVarTypeInfo@PAPAUIDispatch@@@ATL@@2GB 0049c3e8     APTMotor.obj
 0002:000023ec       ?pmField@?$_CVarTypeInfo@PAPAUIDispatch@@@ATL@@2QQtagVARIANT@@PAPAUIDispatch@@Q3@ 0049c3ec     APTMotor.obj
 0002:000023f0       ?VT@?$_CVarTypeInfo@TtagCY@@@ATL@@2GB 0049c3f0     APTMotor.obj
 0002:000023f4       ?pmField@?$_CVarTypeInfo@TtagCY@@@ATL@@2QQtagVARIANT@@TtagCY@@Q3@ 0049c3f4     APTMotor.obj
 0002:000023f8       ?VT@?$_CVarTypeInfo@PATtagCY@@@ATL@@2GB 0049c3f8     APTMotor.obj
 0002:000023fc       ?pmField@?$_CVarTypeInfo@PATtagCY@@@ATL@@2QQtagVARIANT@@PATtagCY@@Q3@ 0049c3fc     APTMotor.obj
 0002:00002400       ?c_bIsMFCDLLTraits@?$_MFCDLLTraitsCheck@DV?$StrTraitMFC_DLL@DV?$ChTraitsCRT@D@ATL@@@@@_CSTRING_IMPL_@ATL@@2_NB 0049c400     APTMotor.obj
 0002:00002401       ?c_bIsMFCDLLTraits@?$_MFCDLLTraitsCheck@_WV?$StrTraitMFC_DLL@_WV?$ChTraitsCRT@_W@ATL@@@@@_CSTRING_IMPL_@ATL@@2_NB 0049c401     APTMotor.obj
 0002:00002404       ?generic@CArchiveException@@2HB 0049c404     APTMotor.obj
 0002:00002408       ?generic@CFileException@@2HB 0049c408     APTMotor.obj
 0002:00002410       ?Millisecond@CFileTime@ATL@@2_KB 0049c410     APTMotor.obj
 0002:00002420       ?Second@CFileTime@ATL@@2_KB 0049c420     APTMotor.obj
 0002:00002430       ?Minute@CFileTime@ATL@@2_KB 0049c430     APTMotor.obj
 0002:00002440       ?Hour@CFileTime@ATL@@2_KB  0049c440     APTMotor.obj
 0002:00002450       ?Day@CFileTime@ATL@@2_KB   0049c450     APTMotor.obj
 0002:00002460       ?Week@CFileTime@ATL@@2_KB  0049c460     APTMotor.obj
 0002:0000246c       ?szInvalidDateTime@ATL@@3QBDB 0049c46c     APTMotor.obj
 0002:00002470       ?szInvalidDateTimeSpan@ATL@@3QBDB 0049c470     APTMotor.obj
 0002:00002474       _LIBID_ATLLib              0049c474     APTMotor.obj
 0002:00002488       _CLSID_Registrar           0049c488     APTMotor.obj
 0002:0000249c       _IID_IRegistrar            0049c49c     APTMotor.obj
 0002:000024b0       _IID_IAxWinHostWindow      0049c4b0     APTMotor.obj
 0002:000024c4       _IID_IAxWinAmbientDispatch 0049c4c4     APTMotor.obj
 0002:000024d8       _IID_IInternalConnection   0049c4d8     APTMotor.obj
 0002:000024ec       _IID_IDocHostUIHandlerDispatch 0049c4ec     APTMotor.obj
 0002:00002500       _IID_IAxWinHostWindowLic   0049c500     APTMotor.obj
 0002:00002514       _IID_IAxWinAmbientDispatchEx 0049c514     APTMotor.obj
 0002:00002528       ?MAX_VALUE@CRegParser@ATL@@1HB 0049c528     APTMotor.obj
 0002:0000252c       ?MAX_TYPE@CRegParser@ATL@@1HB 0049c52c     APTMotor.obj
 0002:00002530       ?rgszNeverDelete@CRegParser@ATL@@1QBQBDB 0049c530     APTMotor.obj
 0002:0000256c       ?cbNeverDelete@CRegParser@ATL@@1HB 0049c56c     APTMotor.obj
 0002:00002570       ?c_bIsMFCDLLTraits@?$_MFCDLLTraitsCheck@DV?$StrTraitATL@DV?$ChTraitsCRT@D@ATL@@@ATL@@@_CSTRING_IMPL_@ATL@@2_NB 0049c570     APTMotor.obj
 0002:00002571       ?c_bIsMFCDLLTraits@?$_MFCDLLTraitsCheck@_WV?$StrTraitATL@_WV?$ChTraitsCRT@_W@ATL@@@ATL@@@_CSTRING_IMPL_@ATL@@2_NB 0049c571     APTMotor.obj
 0002:00002574       ?sc_redShift@ColorF@D2D1@@0IB 0049c574     APTMotor.obj
 0002:00002578       ?sc_greenShift@ColorF@D2D1@@0IB 0049c578     APTMotor.obj
 0002:0000257c       ?sc_blueShift@ColorF@D2D1@@0IB 0049c57c     APTMotor.obj
 0002:00002580       ?sc_redMask@ColorF@D2D1@@0IB 0049c580     APTMotor.obj
 0002:00002584       ?sc_greenMask@ColorF@D2D1@@0IB 0049c584     APTMotor.obj
 0002:00002588       ?sc_blueMask@ColorF@D2D1@@0IB 0049c588     APTMotor.obj
 0002:0000258c       ?CLSID_WinFormsControl@@3U_GUID@@B 0049c58c     APTMotor.obj
 0002:000025a0       ?classCMgmotorctrl1@CMgmotorctrl1@@2UCRuntimeClass@@B 0049c5a0     APTMotor.obj
 0002:000025cc       ??_7CMgmotorctrl1@@6B@     0049c5cc     APTMotor.obj
 0002:0000277c       ?clsid@?1??GetClsid@CMgmotorctrl1@@QAEABU_GUID@@XZ@4U3@B 0049c77c     APTMotor.obj
 0002:00002794       ??_7Thank_you@Define_the_symbol__ATL_MIXED@@6B@ 0049c794     APTMotor.obj
 0002:00003e34       ?classAPT_system@APT_system@@2UCRuntimeClass@@B 0049de34     APTSystem.obj
 0002:00003e5c       ??_7APT_system@@6B@        0049de5c     APTSystem.obj
 0002:0000400c       ?clsid@?1??GetClsid@APT_system@@QAEABU_GUID@@XZ@4U3@B 0049e00c     APTSystem.obj
 0002:00006d50       ?classDisplayDialog@DisplayDialog@@2UCRuntimeClass@@B 004a0d50     DisplayDialog.obj
 0002:00006d7c       ??_7DisplayDialog@@6B@     004a0d7c     DisplayDialog.obj
 0002:0000861c       ?classCMainFrame@CMainFrame@@2UCRuntimeClass@@B 004a261c     MainFrm.obj
 0002:00008644       ??_7CMainFrame@@6B@        004a2644     MainFrm.obj
 0002:00009ef4       ??_7COctopusApp@@6B@       004a3ef4     Octopus.obj
 0002:0000ba40       __real@0000000000000000    004a5a40     OctopusXCite.obj
 0002:0000ba54       ??_7COctopusXCite@@6B@     004a5a54     OctopusXCite.obj
 0002:0000c030       __real@4059000000000000    004a6030     OctopusXCite.obj
 0002:0000c040       __real@40cd4c0000000000    004a6040     OctopusXCite.obj
 0002:0000c050       __real@4024000000000000    004a6050     OctopusXCite.obj
 0002:0000d86c       __real@00000000            004a786c     Octopus_LED.obj
 0002:0000d874       ??_7Octopus_LED@@6B@       004a7874     Octopus_LED.obj
 0002:0000dbf8       __real@4090000000000000    004a7bf8     Octopus_LED.obj
 0002:0000f502       ?value@?$integral_constant@_N$0A@@tr1@std@@2_NB 004a9502     OctopusCameraDisplay.obj
 0002:0000f503       ?value@?$integral_constant@_N$00@tr1@std@@2_NB 004a9503     OctopusCameraDisplay.obj
 0002:0000f504       ?value@?$integral_constant@I$0A@@tr1@std@@2IB 004a9504     OctopusCameraDisplay.obj
 0002:0000f508       ?_Rank@?$_Arithmetic_traits@_N@std@@2HB 004a9508     OctopusCameraDisplay.obj
 0002:0000f50c       ?_Rank@?$_Arithmetic_traits@D@std@@2HB 004a950c     OctopusCameraDisplay.obj
 0002:0000f510       ?_Rank@?$_Arithmetic_traits@C@std@@2HB 004a9510     OctopusCameraDisplay.obj
 0002:0000f514       ?_Rank@?$_Arithmetic_traits@E@std@@2HB 004a9514     OctopusCameraDisplay.obj
 0002:0000f518       ?_Rank@?$_Arithmetic_traits@F@std@@2HB 004a9518     OctopusCameraDisplay.obj
 0002:0000f51c       ?_Rank@?$_Arithmetic_traits@G@std@@2HB 004a951c     OctopusCameraDisplay.obj
 0002:0000f520       ?_Rank@?$_Arithmetic_traits@H@std@@2HB 004a9520     OctopusCameraDisplay.obj
 0002:0000f524       ?_Rank@?$_Arithmetic_traits@I@std@@2HB 004a9524     OctopusCameraDisplay.obj
 0002:0000f528       ?_Rank@?$_Arithmetic_traits@J@std@@2HB 004a9528     OctopusCameraDisplay.obj
 0002:0000f52c       ?_Rank@?$_Arithmetic_traits@K@std@@2HB 004a952c     OctopusCameraDisplay.obj
 0002:0000f530       ?_Rank@?$_Arithmetic_traits@_J@std@@2HB 004a9530     OctopusCameraDisplay.obj
 0002:0000f534       ?_Rank@?$_Arithmetic_traits@_K@std@@2HB 004a9534     OctopusCameraDisplay.obj
 0002:0000f538       ?_Rank@?$_Arithmetic_traits@M@std@@2HB 004a9538     OctopusCameraDisplay.obj
 0002:0000f53c       ?_Rank@?$_Arithmetic_traits@N@std@@2HB 004a953c     OctopusCameraDisplay.obj
 0002:0000f540       ?_Rank@?$_Arithmetic_traits@O@std@@2HB 004a9540     OctopusCameraDisplay.obj
 0002:0000f544       ?collate@?$_Locbase@H@std@@2HB 004a9544     OctopusCameraDisplay.obj
 0002:0000f548       ?ctype@?$_Locbase@H@std@@2HB 004a9548     OctopusCameraDisplay.obj
 0002:0000f54c       ?monetary@?$_Locbase@H@std@@2HB 004a954c     OctopusCameraDisplay.obj
 0002:0000f550       ?numeric@?$_Locbase@H@std@@2HB 004a9550     OctopusCameraDisplay.obj
 0002:0000f554       ?time@?$_Locbase@H@std@@2HB 004a9554     OctopusCameraDisplay.obj
 0002:0000f558       ?messages@?$_Locbase@H@std@@2HB 004a9558     OctopusCameraDisplay.obj
 0002:0000f55c       ?all@?$_Locbase@H@std@@2HB 004a955c     OctopusCameraDisplay.obj
 0002:0000f560       ?none@?$_Locbase@H@std@@2HB 004a9560     OctopusCameraDisplay.obj
 0002:0000f564       ?skipws@?$_Iosb@H@std@@2W4_Fmtflags@12@B 004a9564     OctopusCameraDisplay.obj
 0002:0000f568       ?unitbuf@?$_Iosb@H@std@@2W4_Fmtflags@12@B 004a9568     OctopusCameraDisplay.obj
 0002:0000f56c       ?uppercase@?$_Iosb@H@std@@2W4_Fmtflags@12@B 004a956c     OctopusCameraDisplay.obj
 0002:0000f570       ?showbase@?$_Iosb@H@std@@2W4_Fmtflags@12@B 004a9570     OctopusCameraDisplay.obj
 0002:0000f574       ?showpoint@?$_Iosb@H@std@@2W4_Fmtflags@12@B 004a9574     OctopusCameraDisplay.obj
 0002:0000f578       ?showpos@?$_Iosb@H@std@@2W4_Fmtflags@12@B 004a9578     OctopusCameraDisplay.obj
 0002:0000f57c       ?left@?$_Iosb@H@std@@2W4_Fmtflags@12@B 004a957c     OctopusCameraDisplay.obj
 0002:0000f580       ?right@?$_Iosb@H@std@@2W4_Fmtflags@12@B 004a9580     OctopusCameraDisplay.obj
 0002:0000f584       ?internal@?$_Iosb@H@std@@2W4_Fmtflags@12@B 004a9584     OctopusCameraDisplay.obj
 0002:0000f588       ?dec@?$_Iosb@H@std@@2W4_Fmtflags@12@B 004a9588     OctopusCameraDisplay.obj
 0002:0000f58c       ?oct@?$_Iosb@H@std@@2W4_Fmtflags@12@B 004a958c     OctopusCameraDisplay.obj
 0002:0000f590       ?hex@?$_Iosb@H@std@@2W4_Fmtflags@12@B 004a9590     OctopusCameraDisplay.obj
 0002:0000f594       ?scientific@?$_Iosb@H@std@@2W4_Fmtflags@12@B 004a9594     OctopusCameraDisplay.obj
 0002:0000f598       ?fixed@?$_Iosb@H@std@@2W4_Fmtflags@12@B 004a9598     OctopusCameraDisplay.obj
 0002:0000f59c       ?hexfloat@?$_Iosb@H@std@@2W4_Fmtflags@12@B 004a959c     OctopusCameraDisplay.obj
 0002:0000f5a0       ?boolalpha@?$_Iosb@H@std@@2W4_Fmtflags@12@B 004a95a0     OctopusCameraDisplay.obj
 0002:0000f5a4       ?_Stdio@?$_Iosb@H@std@@2W4_Fmtflags@12@B 004a95a4     OctopusCameraDisplay.obj
 0002:0000f5a8       ?adjustfield@?$_Iosb@H@std@@2W4_Fmtflags@12@B 004a95a8     OctopusCameraDisplay.obj
 0002:0000f5ac       ?basefield@?$_Iosb@H@std@@2W4_Fmtflags@12@B 004a95ac     OctopusCameraDisplay.obj
 0002:0000f5b0       ?floatfield@?$_Iosb@H@std@@2W4_Fmtflags@12@B 004a95b0     OctopusCameraDisplay.obj
 0002:0000f5b4       ?goodbit@?$_Iosb@H@std@@2W4_Iostate@12@B 004a95b4     OctopusCameraDisplay.obj
 0002:0000f5b8       ?eofbit@?$_Iosb@H@std@@2W4_Iostate@12@B 004a95b8     OctopusCameraDisplay.obj
 0002:0000f5bc       ?failbit@?$_Iosb@H@std@@2W4_Iostate@12@B 004a95bc     OctopusCameraDisplay.obj
 0002:0000f5c0       ?badbit@?$_Iosb@H@std@@2W4_Iostate@12@B 004a95c0     OctopusCameraDisplay.obj
 0002:0000f5c4       ?_Hardfail@?$_Iosb@H@std@@2W4_Iostate@12@B 004a95c4     OctopusCameraDisplay.obj
 0002:0000f5c8       ?in@?$_Iosb@H@std@@2W4_Openmode@12@B 004a95c8     OctopusCameraDisplay.obj
 0002:0000f5cc       ?out@?$_Iosb@H@std@@2W4_Openmode@12@B 004a95cc     OctopusCameraDisplay.obj
 0002:0000f5d0       ?ate@?$_Iosb@H@std@@2W4_Openmode@12@B 004a95d0     OctopusCameraDisplay.obj
 0002:0000f5d4       ?app@?$_Iosb@H@std@@2W4_Openmode@12@B 004a95d4     OctopusCameraDisplay.obj
 0002:0000f5d8       ?trunc@?$_Iosb@H@std@@2W4_Openmode@12@B 004a95d8     OctopusCameraDisplay.obj
 0002:0000f5dc       ?_Nocreate@?$_Iosb@H@std@@2W4_Openmode@12@B 004a95dc     OctopusCameraDisplay.obj
 0002:0000f5e0       ?_Noreplace@?$_Iosb@H@std@@2W4_Openmode@12@B 004a95e0     OctopusCameraDisplay.obj
 0002:0000f5e4       ?binary@?$_Iosb@H@std@@2W4_Openmode@12@B 004a95e4     OctopusCameraDisplay.obj
 0002:0000f5e8       ?beg@?$_Iosb@H@std@@2W4_Seekdir@12@B 004a95e8     OctopusCameraDisplay.obj
 0002:0000f5ec       ?cur@?$_Iosb@H@std@@2W4_Seekdir@12@B 004a95ec     OctopusCameraDisplay.obj
 0002:0000f5f0       ?end@?$_Iosb@H@std@@2W4_Seekdir@12@B 004a95f0     OctopusCameraDisplay.obj
 0002:0000f5f8       __real@3ff0000000000000    004a95f8     OctopusCameraDisplay.obj
 0002:0000f608       __real@40efffe000000000    004a9608     OctopusCameraDisplay.obj
 0002:0000f618       __real@3fa999999999999a    004a9618     OctopusCameraDisplay.obj
 0002:0000f62c       ??_7COctopusPictureDisplay@@6B@ 004a962c     OctopusCameraDisplay.obj
 0002:0000f8a8       __real@402e000000000000    004a98a8     OctopusCameraDisplay.obj
 0002:0000f8b8       __real@4018000000000000    004a98b8     OctopusCameraDisplay.obj
 0002:0000f8c8       __real@3f50624dd2f1a9fc    004a98c8     OctopusCameraDisplay.obj
 0002:0000f8d8       __real@406fe00000000000    004a98d8     OctopusCameraDisplay.obj
 0002:0000f8e8       __real@41dfffffffc00000    004a98e8     OctopusCameraDisplay.obj
 0002:0000f8f8       __real@3fef5c28f5c28f5c    004a98f8     OctopusCameraDisplay.obj
 0002:0000f908       __real@3fb999999999999a    004a9908     OctopusCameraDisplay.obj
 0002:0000f918       __real@4014000000000000    004a9918     OctopusCameraDisplay.obj
 0002:0000f928       __real@bfb999999999999a    004a9928     OctopusCameraDisplay.obj
 0002:0000f938       __real@4034000000000000    004a9938     OctopusCameraDisplay.obj
 0002:0000f948       __real@4002d4fdf3b645a2    004a9948     OctopusCameraDisplay.obj
 0002:0000f958       __real@4004000000000000    004a9958     OctopusCameraDisplay.obj
 0002:0000f968       __real@4000000000000000    004a9968     OctopusCameraDisplay.obj
 0002:0000f978       __real@3eb0c6f7a0b5ed8d    004a9978     OctopusCameraDisplay.obj
 0002:0000f988       __real@3bc79ca10c924223    004a9988     OctopusCameraDisplay.obj
 0002:0000f998       __real@3cd203af9ee75616    004a9998     OctopusCameraDisplay.obj
 0002:0000f9a8       __real@40191eb851eb851f    004a99a8     OctopusCameraDisplay.obj
 0002:0000f9b8       __real@c000000000000000    004a99b8     OctopusCameraDisplay.obj
 0002:0000f9c8       __real@40dfffc000000000    004a99c8     OctopusCameraDisplay.obj
 0002:0000f9d8       __real@bfe0000000000000    004a99d8     OctopusCameraDisplay.obj
 0002:00011574       ??_7COctopusCamera@@6B@    004ab574     OctopusCameraDlg.obj
 0002:00011758       __real@3f1a36e2eb1c432d    004ab758     OctopusCameraDlg.obj
 0002:00011af0       __real@c014000000000000    004abaf0     OctopusCameraDlg.obj
 0002:00013190       ??_7COctopusGoodClock@@6B@ 004ad190     OctopusClock.obj
 0002:00013198       __real@408f400000000000    004ad198     OctopusClock.obj
 0002:0001483c       ?classCOctopusDoc@COctopusDoc@@2UCRuntimeClass@@B 004ae83c     OctopusDoc.obj
 0002:00014864       ??_7COctopusDoc@@6B@       004ae864     OctopusDoc.obj
 0002:000149b8       ??_7CDocumentAdapter@CDocument@@6B@ 004ae9b8     OctopusDoc.obj
 0002:000149fc       ??_7IDocument@ATL@@6B@     004ae9fc     OctopusDoc.obj
 0002:00014a40       ??_C@_0FD@OGAKBBEJ@c?3?2Program?5Files?5?$CIx86?$CJ?2Microsoft@ 004aea40     OctopusDoc.obj
 0002:00014aa4       ??_C@_02DKCKIIND@?$CFs?$AA@ 004aeaa4     OctopusDoc.obj
 0002:00014aa8       ??_C@_0EH@JMHNMKFO@CDocumentAdapter?3?3LoadFromStream@ 004aeaa8     OctopusDoc.obj
 0002:00014b00       ??_C@_0EP@JABFNPCO@c?3?2Program?5Files?5?$CIx86?$CJ?2Microsoft@ 004aeb00     OctopusDoc.obj
 0002:00014b60       ??_C@_0FA@LMOECOHI@CDocumentAdapter?3?3InitializeSear@ 004aeb60     OctopusDoc.obj
 0002:00014bc0       ??_C@_0EH@DLNJCMOG@CDocumentAdapter?3?3ClearChunkList@ 004aebc0     OctopusDoc.obj
 0002:00014c18       ??_C@_0EG@KJPNJGOD@CDocumentAdapter?3?3SetChunkValue?5@ 004aec18     OctopusDoc.obj
 0002:00014c70       ??_C@_0EI@OACGLLFN@CDocumentAdapter?3?3BeginReadChunk@ 004aec70     OctopusDoc.obj
 0002:00014cc8       ??_C@_0EL@JFJHODOO@CDocumentAdapter?3?3ReadNextChunkV@ 004aecc8     OctopusDoc.obj
 0002:00014d28       ??_C@_0EE@DGBLNKAJ@CDocumentAdapter?3?3RemoveChunk?5is@ 004aed28     OctopusDoc.obj
 0002:00014d80       ??_C@_0EC@LNKAMCLD@CDocumentAdapter?3?3FindChunk?5is?5c@ 004aed80     OctopusDoc.obj
 0002:00014dd0       ??_C@_0EF@JFFEAAHE@CDocumentAdapter?3?3GetThumbnail?5i@ 004aedd0     OctopusDoc.obj
 0002:00014e28       ??_C@_0FE@IDJJLJDH@Override?5this?5method?5in?5a?5derive@ 004aee28     OctopusDoc.obj
 0002:00016b6c       ??_7COctopusFocus@@6B@     004b0b6c     OctopusFocus.obj
 0002:00016d50       __real@4067c00000000000    004b0d50     OctopusFocus.obj
 0002:0001866c       ??_7OctopusLaser@@6B@      004b266c     OctopusLaser.obj
 0002:000188cc       __real@44800000            004b28cc     OctopusLaser.obj
 0002:00019f94       ??_7COctopusLasers@@6B@    004b3f94     OctopusLasers.obj
 0002:0001b8e0       ??_C@_0FC@JMCEKLDJ@c?3?2Program?5Files?5?$CIx86?$CJ?2Microsoft@ 004b58e0     OctopusLog.obj
 0002:0001b944       ??_C@_0BF@IAAKIJDJ@AtlThrow?3?5hr?5?$DN?50x?$CFx?6?$AA@ 004b5944     OctopusLog.obj
 0002:0001d1e8       __real@4069000000000000    004b71e8     OctopusObjectivePiezo.obj
 0002:0001d1f8       __real@4045000000000000    004b71f8     OctopusObjectivePiezo.obj
 0002:0001d20c       ??_7COctopusObjectivePiezo@@6B@ 004b720c     OctopusObjectivePiezo.obj
 0002:0001d3f0       __real@3f747ae147ae147b    004b73f0     OctopusObjectivePiezo.obj
 0002:0001d400       __real@3fe0000000000000    004b7400     OctopusObjectivePiezo.obj
 0002:0001ef8c       ??_7COctopusScope@@6B@     004b8f8c     OctopusScope.obj
 0002:000210a4       ??_7COctopusScript@@6B@    004bb0a4     OctopusScript.obj
 0002:00021320       __real@4039000000000000    004bb320     OctopusScript.obj
 0002:0002132c       __real@bf800000            004bb32c     OctopusScript.obj
 0002:00021330       __real@bff0000000000000    004bb330     OctopusScript.obj
 0002:0002133c       __real@3f800000            004bb33c     OctopusScript.obj
 0002:00021340       __real@41a00000            004bb340     OctopusScript.obj
 0002:00021344       __real@c1a00000            004bb344     OctopusScript.obj
 0002:00021348       __real@c034000000000000    004bb348     OctopusScript.obj
 0002:00021354       __real@40800000            004bb354     OctopusScript.obj
 0002:00022ca4       ??_7COctopusShutterAndWheel@@6B@ 004bcca4     OctopusShutter.obj
 0002:00022f60       __real@4062000000000000    004bcf60     OctopusShutter.obj
 0002:00022f70       __real@3ff70a3d70a3d70a    004bcf70     OctopusShutter.obj
 0002:000248e4       ??_7COctopusStage545@@6B@  004be8e4     OctopusStage545.obj
 0002:00024ac8       __real@4038f9999999999a    004beac8     OctopusStage545.obj
 0002:00024ad8       __real@4028000000000000    004bead8     OctopusStage545.obj
 0002:00024ae8       __real@40d86a0000000000    004beae8     OctopusStage545.obj
 0002:00024cf0       __real@3f847ae147ae147b    004becf0     OctopusStage545.obj
 0002:00024d00       __real@3fd0000000000000    004bed00     OctopusStage545.obj
 0002:00026674       ?classCOctopusView@COctopusView@@2UCRuntimeClass@@B 004c0674     OctopusView.obj
 0002:000267cc       ??_7COctopusView@@6B@      004c07cc     OctopusView.obj
 0002:00028074       __real@3eaaaaab            004c2074     levmar:lm.obj
 0002:00028078       __real@3af357c2a0000000    004c2078     levmar:lm.obj
 0002:00028080       __real@ff7fffff            004c2080     levmar:lm.obj
 0002:00028084       ??_C@_0DB@IBGMFDOM@slevmar_der?$CI?$CJ?3?5memory?5allocation@ 004c2084     levmar:lm.obj
 0002:000280b8       __real@0704ec3c            004c20b8     levmar:lm.obj
 0002:000280bc       __real@233877aa            004c20bc     levmar:lm.obj
 0002:000280c0       __real@3a83126f            004c20c0     levmar:lm.obj
 0002:000280c8       ??_C@_0JC@OFJLFOLC@No?5function?5specified?5for?5comput@ 004c20c8     levmar:lm.obj
 0002:00028160       ??_C@_0FH@NCHMBDLE@slevmar_der?$CI?$CJ?3?5cannot?5solve?5a?5pr@ 004c2160     levmar:lm.obj
 0002:000281b8       __real@7f7fffff            004c21b8     levmar:lm.obj
 0002:000281bc       ??_C@_0DB@PJHNBGDP@slevmar_dif?$CI?$CJ?3?5memory?5allocation@ 004c21bc     levmar:lm.obj
 0002:000281f0       __real@358637bd            004c21f0     levmar:lm.obj
 0002:000281f8       ??_C@_0FH@LHPFGAP@slevmar_dif?$CI?$CJ?3?5cannot?5solve?5a?5pr@ 004c21f8     levmar:lm.obj
 0002:00028250       __real@3fd555555567a895    004c2250     levmar:lm.obj
 0002:00028258       __real@3af357c299a88ea7    004c2258     levmar:lm.obj
 0002:00028260       __real@ffefffffffffffff    004c2260     levmar:lm.obj
 0002:00028268       ??_C@_0DB@DLJEOGK@dlevmar_der?$CI?$CJ?3?5memory?5allocation@ 004c2268     levmar:lm.obj
 0002:000282a0       __real@38e09d8792fb4c4a    004c22a0     levmar:lm.obj
 0002:000282a8       __real@3c670ef54646d497    004c22a8     levmar:lm.obj
 0002:000282b0       ??_C@_0JC@IHDJELPJ@No?5function?5specified?5for?5comput@ 004c22b0     levmar:lm.obj
 0002:00028348       ??_C@_0FH@PKBAEKLE@dlevmar_der?$CI?$CJ?3?5cannot?5solve?5a?5pr@ 004c2348     levmar:lm.obj
 0002:000283a0       __real@7fefffffffffffff    004c23a0     levmar:lm.obj
 0002:000283a8       ??_C@_0DB@HLKIALLJ@dlevmar_dif?$CI?$CJ?3?5memory?5allocation@ 004c23a8     levmar:lm.obj
 0002:000283e0       ??_C@_0FH@CDBDAPAP@dlevmar_dif?$CI?$CJ?3?5cannot?5solve?5a?5pr@ 004c23e0     levmar:lm.obj
 0002:00028438       ??_C@_01NANMIPIL@N?$AA@    004c2438     levmar:misc.obj
 0002:0002843c       ??_C@_01GAPBHFFA@T?$AA@    004c243c     levmar:misc.obj
 0002:00028440       __real@3f1a36e2e0000000    004c2440     levmar:misc.obj
 0002:00028448       __real@34000000            004c2448     levmar:misc.obj
 0002:00028450       __real@3ee9000000000000    004c2450     levmar:misc.obj
 0002:00028458       ??_C@_0DE@GALELFEI@slevmar_chkjac?$CI?$CJ?3?5memory?5allocat@ 004c2458     levmar:misc.obj
 0002:00028490       __real@3e80000000000000    004c2490     levmar:misc.obj
 0002:00028498       ??_C@_0GH@JGAJGJGB@LAPACK?5error?3?5dgesdd?5?$CIdbdsdc?$CJ?1dg@ 004c2498     levmar:misc.obj
 0002:00028500       ??_C@_0FO@CEMBLKOM@LAPACK?5error?3?5illegal?5value?5for?5@ 004c2500     levmar:misc.obj
 0002:00028560       ??_C@_01FHEEJDEE@A?$AA@    004c2560     levmar:misc.obj
 0002:00028564       ??_C@_0DG@MLACHCEN@memory?5allocation?5in?5slevmar_pse@ 004c2564     levmar:misc.obj
 0002:0002859c       ??_C@_0DC@HGBEPPLN@memory?5allocation?5request?5failed@ 004c259c     levmar:misc.obj
 0002:000285d0       ??_C@_0EM@GKNBNKCK@LAPACK?5error?3?5the?5leading?5minor?5@ 004c25d0     levmar:misc.obj
 0002:00028620       ??_C@_0EG@JJJOIGJI@and?5the?5Cholesky?5factorization?5c@ 004c2620     levmar:misc.obj
 0002:00028668       ??_C@_0DN@BOKGPFAO@LAPACK?5error?3?5illegal?5value?5for?5@ 004c2668     levmar:misc.obj
 0002:000286a8       ??_C@_0P@PAMLFKAD@slevmar_chol?$CI?$CJ?$AA@ 004c26a8     levmar:misc.obj
 0002:000286b8       ??_C@_01OCOKONAJ@L?$AA@    004c26b8     levmar:misc.obj
 0002:000286c0       __real@3d19000000000000    004c26c0     levmar:misc.obj
 0002:000286c8       ??_C@_0DE@IMNJJILP@dlevmar_chkjac?$CI?$CJ?3?5memory?5allocat@ 004c26c8     levmar:misc.obj
 0002:00028700       __real@3cb0000000000000    004c2700     levmar:misc.obj
 0002:00028708       ??_C@_0GH@NKLKEAJB@LAPACK?5error?3?5dgesdd?5?$CIdbdsdc?$CJ?1dg@ 004c2708     levmar:misc.obj
 0002:00028770       ??_C@_0FO@OLEMLPHA@LAPACK?5error?3?5illegal?5value?5for?5@ 004c2770     levmar:misc.obj
 0002:000287d0       ??_C@_0DG@JCBEIDCG@memory?5allocation?5in?5dlevmar_pse@ 004c27d0     levmar:misc.obj
 0002:00028808       ??_C@_0DC@HFGLGJBB@memory?5allocation?5request?5failed@ 004c2808     levmar:misc.obj
 0002:00028840       ??_C@_0EG@FAOKCGBK@and?5the?5Cholesky?5factorization?5c@ 004c2840     levmar:misc.obj
 0002:00028888       ??_C@_0P@CPKIMKFG@dlevmar_chol?$CI?$CJ?$AA@ 004c2888     levmar:misc.obj
 0002:00028898       ??_C@_0FK@PBCCIJBO@LAPACK?5error?3?5the?5?$CFd?9th?5diagonal@ 004c2898     levmar:Axb.obj
 0002:000288f8       ??_C@_0EJ@NGMJAJGE@LAPACK?5error?3?5illegal?5value?5for?5@ 004c28f8     levmar:Axb.obj
 0002:00028944       ??_C@_01HJOKEEBB@U?$AA@    004c2944     levmar:Axb.obj
 0002:00028948       ??_C@_0CM@JHNLNMOH@Unknown?5LAPACK?5error?5?$CI?$CFd?$CJ?5in?5dAx@ 004c2948     levmar:Axb.obj
 0002:00028978       ??_C@_0EJ@EGANJKEB@LAPACK?5error?3?5illegal?5value?5for?5@ 004c2978     levmar:Axb.obj
 0002:000289c4       ??_C@_0DG@IPEEPJOP@Unknown?5LAPACK?5error?5?$CFd?5for?5dgeq@ 004c29c4     levmar:Axb.obj
 0002:00028a00       ??_C@_0EJ@KIKIAOJN@LAPACK?5error?3?5illegal?5value?5for?5@ 004c2a00     levmar:Axb.obj
 0002:00028a4c       ??_C@_0CM@IHOMHELB@memory?5allocation?5in?5dAx_eq_b_QR@ 004c2a4c     levmar:Axb.obj
 0002:00028a78       ??_C@_0FM@KHGKLCAL@LAPACK?5error?3?5the?5?$CFd?9th?5diagonal@ 004c2a78     levmar:Axb.obj
 0002:00028ad8       ??_C@_0EL@JPACIHLM@LAPACK?5error?3?5illegal?5value?5for?5@ 004c2ad8     levmar:Axb.obj
 0002:00028b24       ??_C@_0DI@PKMIGNKN@Unknown?5LAPACK?5error?5?$CFd?5for?5dgeq@ 004c2b24     levmar:Axb.obj
 0002:00028b60       ??_C@_0EL@MEBIDGIK@LAPACK?5error?3?5illegal?5value?5for?5@ 004c2b60     levmar:Axb.obj
 0002:00028bac       ??_C@_0CO@FHANMIBE@memory?5allocation?5in?5dAx_eq_b_QR@ 004c2bac     levmar:Axb.obj
 0002:00028be0       ??_C@_0IF@LHKMNCPK@Normal?5equations?5require?5that?5th@ 004c2be0     levmar:Axb.obj
 0002:00028c68       ??_C@_0EL@FMHFDOPB@LAPACK?5error?3?5illegal?5value?5for?5@ 004c2c68     levmar:Axb.obj
 0002:00028cb8       ??_C@_0JH@CBEJKAGG@LAPACK?5error?3?5the?5leading?5minor?5@ 004c2cb8     levmar:Axb.obj
 0002:00028d50       ??_C@_0FD@KCPLLOOD@LAPACK?5error?3?5illegal?5value?5for?5@ 004c2d50     levmar:Axb.obj
 0002:00028da4       ??_C@_0CO@MCOGKDH@memory?5allocation?5in?5dAx_eq_b_Ch@ 004c2da4     levmar:Axb.obj
 0002:00028dd4       ??_C@_0CM@KOAKHMJD@unknown?5error?5for?5dgetrs_?5in?5dAx@ 004c2dd4     levmar:Axb.obj
 0002:00028e00       ??_C@_0DB@ECMCDJMA@argument?5?$CFd?5of?5dgetrs_?5illegal?5i@ 004c2e00     levmar:Axb.obj
 0002:00028e34       ??_C@_0DA@NILOBIKP@singular?5matrix?5A?5for?5dgetrf_?5in@ 004c2e34     levmar:Axb.obj
 0002:00028e64       ??_C@_0DB@PAGDAPDA@argument?5?$CFd?5of?5dgetrf_?5illegal?5i@ 004c2e64     levmar:Axb.obj
 0002:00028e98       ??_C@_0CM@CLNHDONO@memory?5allocation?5in?5dAx_eq_b_LU@ 004c2e98     levmar:Axb.obj
 0002:00028ec8       ??_C@_0FO@KABOHMPK@LAPACK?5error?3?5dgesdd?5?$CIdbdsdc?$CJ?1dg@ 004c2ec8     levmar:Axb.obj
 0002:00028f28       ??_C@_0FF@OMHJDCBF@LAPACK?5error?3?5illegal?5value?5for?5@ 004c2f28     levmar:Axb.obj
 0002:00028f80       ??_C@_0CN@HHCAPPGL@memory?5allocation?5in?5dAx_eq_b_SV@ 004c2f80     levmar:Axb.obj
 0002:00028fb0       ??_C@_0EJ@HKDIOFJM@LAPACK?5error?3?5illegal?5value?5for?5@ 004c2fb0     levmar:Axb.obj
 0002:00029000       ??_C@_0GA@FPBHOMHI@LAPACK?5error?3?5singular?5block?5dia@ 004c3000     levmar:Axb.obj
 0002:00029060       ??_C@_0EJ@LMPPHAFF@LAPACK?5error?3?5illegal?5value?5for?5@ 004c3060     levmar:Axb.obj
 0002:000290ac       ??_C@_0CM@KOKNMBDE@memory?5allocation?5in?5dAx_eq_b_BK@ 004c30ac     levmar:Axb.obj
 0002:000290d8       ??_C@_0FK@COEBBJEL@LAPACK?5error?3?5the?5?$CFd?9th?5diagonal@ 004c30d8     levmar:Axb.obj
 0002:00029138       ??_C@_0EJ@HLDLLJGP@LAPACK?5error?3?5illegal?5value?5for?5@ 004c3138     levmar:Axb.obj
 0002:00029184       ??_C@_0CM@EILIEMLC@Unknown?5LAPACK?5error?5?$CI?$CFd?$CJ?5in?5sAx@ 004c3184     levmar:Axb.obj
 0002:000291b0       ??_C@_0EJ@OLPPCKEK@LAPACK?5error?3?5illegal?5value?5for?5@ 004c31b0     levmar:Axb.obj
 0002:000291fc       ??_C@_0DG@CCLGEJOE@Unknown?5LAPACK?5error?5?$CFd?5for?5sgeq@ 004c31fc     levmar:Axb.obj
 0002:00029238       ??_C@_0EJ@FFKLOJG@LAPACK?5error?3?5illegal?5value?5for?5@ 004c3238     levmar:Axb.obj
 0002:00029284       ??_C@_0CM@PACHGKFD@memory?5allocation?5in?5sAx_eq_b_QR@ 004c3284     levmar:Axb.obj
 0002:000292b0       ??_C@_0FM@JAKJFHDN@LAPACK?5error?3?5the?5?$CFd?9th?5diagonal@ 004c32b0     levmar:Axb.obj
 0002:00029310       ??_C@_0EL@LHJHEAAJ@LAPACK?5error?3?5illegal?5value?5for?5@ 004c3310     levmar:Axb.obj
 0002:0002935c       ??_C@_0DI@NCFNKKBI@Unknown?5LAPACK?5error?5?$CFd?5for?5sgeq@ 004c335c     levmar:Axb.obj
 0002:00029398       ??_C@_0EL@OMINPBDP@LAPACK?5error?3?5illegal?5value?5for?5@ 004c3398     levmar:Axb.obj
 0002:000293e4       ??_C@_0CO@MBEKBDNC@memory?5allocation?5in?5sAx_eq_b_QR@ 004c33e4     levmar:Axb.obj
 0002:00029418       ??_C@_0IF@FDJHENJF@Normal?5equations?5require?5that?5th@ 004c3418     levmar:Axb.obj
 0002:000294a0       ??_C@_0EL@HEOAPJEE@LAPACK?5error?3?5illegal?5value?5for?5@ 004c34a0     levmar:Axb.obj
 0002:000294f0       ??_C@_0JH@LECNCGOG@LAPACK?5error?3?5the?5leading?5minor?5@ 004c34f0     levmar:Axb.obj
 0002:00029588       ??_C@_0FD@DHJPDIGD@LAPACK?5error?3?5illegal?5value?5for?5@ 004c3588     levmar:Axb.obj
 0002:000295dc       ??_C@_0CO@JKGJLBPB@memory?5allocation?5in?5sAx_eq_b_Ch@ 004c35dc     levmar:Axb.obj
 0002:0002960c       ??_C@_0CM@DPIMMJI@unknown?5error?5for?5sgetrs_?5in?5sAx@ 004c360c     levmar:Axb.obj
 0002:00029638       ??_C@_0DB@EHJIAHLE@argument?5?$CFd?5of?5sgetrs_?5illegal?5i@ 004c3638     levmar:Axb.obj
 0002:0002966c       ??_C@_0DA@HFEMKIKE@singular?5matrix?5A?5for?5sgetrf_?5in@ 004c366c     levmar:Axb.obj
 0002:0002969c       ??_C@_0DB@PFDJDBEE@argument?5?$CFd?5of?5sgetrf_?5illegal?5i@ 004c369c     levmar:Axb.obj
 0002:000296d0       ??_C@_0CM@FMBMCADM@memory?5allocation?5in?5sAx_eq_b_LU@ 004c36d0     levmar:Axb.obj
 0002:00029700       ??_C@_0FO@NCIPFMKE@LAPACK?5error?3?5dgesdd?5?$CIdbdsdc?$CJ?1dg@ 004c3700     levmar:Axb.obj
 0002:00029760       ??_C@_0FF@NIOMBHGM@LAPACK?5error?3?5illegal?5value?5for?5@ 004c3760     levmar:Axb.obj
 0002:000297b8       ??_C@_0CN@DJFDLHCB@memory?5allocation?5in?5sAx_eq_b_SV@ 004c37b8     levmar:Axb.obj
 0002:000297e8       ??_C@_0EJ@NHMKFFJH@LAPACK?5error?3?5illegal?5value?5for?5@ 004c37e8     levmar:Axb.obj
 0002:00029838       ??_C@_0GA@CGPEKBAE@LAPACK?5error?3?5singular?5block?5dia@ 004c3838     levmar:Axb.obj
 0002:00029898       ??_C@_0EJ@BBANMAFO@LAPACK?5error?3?5illegal?5value?5for?5@ 004c3898     levmar:Axb.obj
 0002:000298e4       ??_C@_0CM@NJGGNPNG@memory?5allocation?5in?5sAx_eq_b_BK@ 004c38e4     levmar:Axb.obj
 0002:00029910       ??_C@_07KJLOKDKB@TypeLib?$AA@ 004c3910     mfcs100d:nolib.obj
 0002:00029918       ??_C@_08KEKAJNJI@Software?$AA@ 004c3918     mfcs100d:nolib.obj
 0002:00029924       ??_C@_06FDHFNJBJ@SYSTEM?$AA@ 004c3924     mfcs100d:nolib.obj
 0002:0002992c       ??_C@_08LOPHEHKG@SECURITY?$AA@ 004c392c     mfcs100d:nolib.obj
 0002:00029938       ??_C@_03DDIMFGBA@SAM?$AA@  004c3938     mfcs100d:nolib.obj
 0002:0002993c       ??_C@_04IHBFOLAC@Mime?$AA@ 004c393c     mfcs100d:nolib.obj
 0002:00029944       ??_C@_08PPIOJEA@Hardware?$AA@ 004c3944     mfcs100d:nolib.obj
 0002:00029950       ??_C@_09JKPGEJCH@Interface?$AA@ 004c3950     mfcs100d:nolib.obj
 0002:0002995c       ??_C@_08PICKODJL@FileType?$AA@ 004c395c     mfcs100d:nolib.obj
 0002:00029968       ??_C@_0BF@HDDNNDFH@Component?5Categories?$AA@ 004c3968     mfcs100d:nolib.obj
 0002:00029980       ??_C@_05GIBEAPNE@CLSID?$AA@ 004c3980     mfcs100d:nolib.obj
 0002:00029988       ??_C@_05PDIKPLII@AppID?$AA@ 004c3988     mfcs100d:nolib.obj
 0002:00029990       ??_C@_06JBKGCNBB@Delete?$AA@ 004c3990     mfcs100d:nolib.obj
 0002:00029998       ??_C@_08KAAPDIAN@NoRemove?$AA@ 004c3998     mfcs100d:nolib.obj
 0002:000299a4       ??_C@_0M@DBGDLGLL@ForceRemove?$AA@ 004c39a4     mfcs100d:nolib.obj
 0002:000299b0       ??_C@_03LAIAPFCB@Val?$AA@  004c39b0     mfcs100d:nolib.obj
 0002:000299b4       ??_C@_01HMGJMAIH@B?$AA@    004c39b4     mfcs100d:nolib.obj
 0002:000299b8       ??_C@_01CKDDGHAB@D?$AA@    004c39b8     mfcs100d:nolib.obj
 0002:000299bc       ??_C@_01PLPBNMEI@M?$AA@    004c39bc     mfcs100d:nolib.obj
 0002:000299c0       ??_C@_01CPLAODJH@S?$AA@    004c39c0     mfcs100d:nolib.obj
 0002:000299c4       ??_C@_0BF@GPPHKJFN@Invalid?5DateTimeSpan?$AA@ 004c39c4     mfcs100d:nolib.obj
 0002:000299dc       ??_C@_0BB@KEKMKJPM@Invalid?5DateTime?$AA@ 004c39dc     mfcs100d:nolib.obj
 0002:00029a34       ??_7type_info@@6B@         004c3a34     msvcrtd:ti_inst.obj
 0002:00029a38       ??_C@_1GA@EHAKPACL@?$AAf?$AA?3?$AA?2?$AAd?$AAd?$AA?2?$AAv?$AAc?$AAt?$AAo?$AAo?$AAl?$AAs?$AA?2?$AAc?$AAr?$AAt?$AA_?$AAb?$AAl?$AAd?$AA?2?$AAs?$AAe?$AAl?$AAf?$AA_?$AAx?$AA8?$AA6?$AA?2?$AAc@ 004c3a38     msvcrtd:crtexew.obj
 0002:00029a98       ??_C@_1FA@DALEHHGL@?$AA_?$AA_?$AAn?$AAa?$AAt?$AAi?$AAv?$AAe?$AA_?$AAs?$AAt?$AAa?$AAr?$AAt?$AAu?$AAp?$AA_?$AAs?$AAt?$AAa?$AAt?$AAe?$AA?5?$AA?$DN?$AA?$DN?$AA?5?$AA_?$AA_?$AAi?$AAn?$AAi?$AAt@ 004c3a98     msvcrtd:crtexew.obj
 0002:00029af0       ?ProcessDetach@NativeDll@<CrtImplementationDetails>@@0IB 004c3af0     msvcrtd:unhandld.obj
 0002:00029af4       ?ProcessAttach@NativeDll@<CrtImplementationDetails>@@0IB 004c3af4     msvcrtd:unhandld.obj
 0002:00029af8       ?ThreadAttach@NativeDll@<CrtImplementationDetails>@@0IB 004c3af8     msvcrtd:unhandld.obj
 0002:00029afc       ?ThreadDetach@NativeDll@<CrtImplementationDetails>@@0IB 004c3afc     msvcrtd:unhandld.obj
 0002:00029b00       ?ProcessVerifier@NativeDll@<CrtImplementationDetails>@@0IB 004c3b00     msvcrtd:unhandld.obj
 0002:00029b08       ??_C@_1GE@KOCFNGPB@?$AA_?$AAc?$AAo?$AAn?$AAt?$AAr?$AAo?$AAl?$AAf?$AAp?$AA_?$AAs?$AA?$CI?$AA?$CI?$AA?$CI?$AAv?$AAo?$AAi?$AAd?$AA?5?$AA?$CK?$AA?$CJ?$AA0?$AA?$CJ?$AA?0?$AA?5?$AA0?$AAx?$AA0?$AA0?$AA0?$AA1@ 004c3b08     msvcrtd:fp8.obj
 0002:00029b6c       ??_C@_1CK@JMKHCBEI@?$AA_?$AAs?$AAe?$AAt?$AAd?$AAe?$AAf?$AAa?$AAu?$AAl?$AAt?$AAp?$AAr?$AAe?$AAc?$AAi?$AAs?$AAi?$AAo?$AAn?$AA?$AA@ 004c3b6c     msvcrtd:fp8.obj
 0002:00029b98       ??_C@_1GG@PHGJJHBC@?$AAf?$AA?3?$AA?2?$AAd?$AAd?$AA?2?$AAv?$AAc?$AAt?$AAo?$AAo?$AAl?$AAs?$AA?2?$AAc?$AAr?$AAt?$AA_?$AAb?$AAl?$AAd?$AA?2?$AAs?$AAe?$AAl?$AAf?$AA_?$AAx?$AA8?$AA6?$AA?2?$AAc@ 004c3b98     msvcrtd:fp8.obj
 0002:00029c00       ??_C@_06JMICFIKN@?$CFs_?$CF0x?$AA@ 004c3c00     atlsd:Externs.obj
 0002:00029c08       ??_C@_0CM@OGPEFHLG@AtlDebugAllocator_FileMappingNam@ 004c3c08     atlsd:Externs.obj
 0002:00029c34       ??_C@_0CN@PLNFEEEE@AtlTraceModuleManager_ProcessAdd@ 004c3c34     atlsd:Externs.obj
 0002:00029c68       ??_C@_1GM@OMLOBEGL@?$AAf?$AA?3?$AA?2?$AAd?$AAd?$AA?2?$AAv?$AAc?$AAt?$AAo?$AAo?$AAl?$AAs?$AA?2?$AAv?$AAc?$AA7?$AAl?$AAi?$AAb?$AAs?$AA?2?$AAs?$AAh?$AAi?$AAp?$AA?2?$AAa?$AAt?$AAl?$AAm?$AAf@ 004c3c68     atlsd:Externs.obj
 0002:00029cd4       ??_C@_1M@HLGKFCJM@?$AAf?$AAa?$AAl?$AAs?$AAe?$AA?$AA@ 004c3cd4     atlsd:Externs.obj
 0002:00029ce0       ??_C@_0DG@BLHODJEO@f?3?2dd?2vctools?2vc7libs?2ship?2atlmf@ 004c3ce0     atlsd:Externs.obj
 0002:00029d18       ??_C@_0BA@MKMIKKJB@atlTraceGeneral?$AA@ 004c3d18     atlsd:atltrace.obj
 0002:00029d28       ??_C@_0M@DGPFJEBB@atlTraceCOM?$AA@ 004c3d28     atlsd:atltrace.obj
 0002:00029d34       ??_C@_0L@LHELAKBP@atlTraceQI?$AA@ 004c3d34     atlsd:atltrace.obj
 0002:00029d40       ??_C@_0BC@MALHFBAO@atlTraceRegistrar?$AA@ 004c3d40     atlsd:atltrace.obj
 0002:00029d54       ??_C@_0BB@ILPPDKFL@atlTraceRefcount?$AA@ 004c3d54     atlsd:atltrace.obj
 0002:00029d68       ??_C@_0BC@DGHHNKDC@atlTraceWindowing?$AA@ 004c3d68     atlsd:atltrace.obj
 0002:00029d7c       ??_C@_0BB@GHKJKKIE@atlTraceControls?$AA@ 004c3d7c     atlsd:atltrace.obj
 0002:00029d90       ??_C@_0BA@DKOAAGGM@atlTraceHosting?$AA@ 004c3d90     atlsd:atltrace.obj
 0002:00029da0       ??_C@_0BB@BEBMGMDO@atlTraceDBClient?$AA@ 004c3da0     atlsd:atltrace.obj
 0002:00029db4       ??_C@_0BD@KOADKDIA@atlTraceDBProvider?$AA@ 004c3db4     atlsd:atltrace.obj
 0002:00029dc8       ??_C@_0P@LNEGBOLO@atlTraceSnapin?$AA@ 004c3dc8     atlsd:atltrace.obj
 0002:00029dd8       ??_C@_0BA@MCBFIDIC@atlTraceNotImpl?$AA@ 004c3dd8     atlsd:atltrace.obj
 0002:00029de8       ??_C@_0BD@PJPCCAKP@atlTraceAllocation?$AA@ 004c3de8     atlsd:atltrace.obj
 0002:00029dfc       ??_C@_0BC@PGMFNIFA@atlTraceException?$AA@ 004c3dfc     atlsd:atltrace.obj
 0002:00029e10       ??_C@_0N@BNNILHBE@atlTraceTime?$AA@ 004c3e10     atlsd:atltrace.obj
 0002:00029e20       ??_C@_0O@MEOJAOKK@atlTraceCache?$AA@ 004c3e20     atlsd:atltrace.obj
 0002:00029e30       ??_C@_0BA@IDBKCKK@atlTraceStencil?$AA@ 004c3e30     atlsd:atltrace.obj
 0002:00029e40       ??_C@_0P@MBNHGHMI@atlTraceString?$AA@ 004c3e40     atlsd:atltrace.obj
 0002:00029e50       ??_C@_0M@IOBBMAHG@atlTraceMap?$AA@ 004c3e50     atlsd:atltrace.obj
 0002:00029e5c       ??_C@_0N@FEAAACHD@atlTraceUtil?$AA@ 004c3e5c     atlsd:atltrace.obj
 0002:00029e6c       ??_C@_0BB@DNJDADMG@atlTraceSecurity?$AA@ 004c3e6c     atlsd:atltrace.obj
 0002:00029e80       ??_C@_0N@KLPNCFEE@atlTraceSync?$AA@ 004c3e80     atlsd:atltrace.obj
 0002:00029e90       ??_C@_0O@KHOBHOBJ@atlTraceISAPI?$AA@ 004c3e90     atlsd:atltrace.obj
 0002:00029ea0       ??_C@_0N@BEIMPMHB@atlTraceUser?$AA@ 004c3ea0     atlsd:atltrace.obj
 0002:00029eb0       ??_C@_0O@MKGGJJCH@atlTraceUser2?$AA@ 004c3eb0     atlsd:atltrace.obj
 0002:00029ec0       ??_C@_0O@NDHNKIGG@atlTraceUser3?$AA@ 004c3ec0     atlsd:atltrace.obj
 0002:00029ed0       ??_C@_0O@JMDMDOKB@atlTraceUser4?$AA@ 004c3ed0     atlsd:atltrace.obj
 0002:00029ee0       ??_C@_1HO@MNFHLCLF@?$AAf?$AA?3?$AA?2?$AAd?$AAd?$AA?2?$AAv?$AAc?$AAt?$AAo?$AAo?$AAl?$AAs?$AA?2?$AAv?$AAc?$AA7?$AAl?$AAi?$AAb?$AAs?$AA?2?$AAs?$AAh?$AAi?$AAp?$AA?2?$AAa?$AAt?$AAl?$AAm?$AAf@ 004c3ee0     atlsd:AtlDebugAPI.obj
 0002:00029f60       ??_C@_1BK@LIHAAANN@?$AAp?$AAM?$AAo?$AAd?$AAu?$AAl?$AAe?$AA?5?$AA?$CB?$AA?$DN?$AA?5?$AA0?$AA?$AA@ 004c3f60     atlsd:AtlDebugAPI.obj
 0002:00029f7c       ??_C@_1BM@DFEBCPM@?$AAp?$AAP?$AAr?$AAo?$AAc?$AAe?$AAs?$AAs?$AA?5?$AA?$CB?$AA?$DN?$AA?5?$AA0?$AA?$AA@ 004c3f7c     atlsd:AtlDebugAPI.obj
 0002:00029f98       ??_C@_1BM@GBBOFEAE@?$AA_?$AA_?$AAa?$AAt?$AAl?$AA_?$AAc?$AAo?$AAn?$AAd?$AAV?$AAa?$AAl?$AA?$AA@ 004c3f98     atlsd:AtlDebugAPI.obj
 0002:00029fb4       ??_C@_04FFDMEMDO@?$CFS?3?5?$AA@ 004c3fb4     atlsd:AtlDebugAPI.obj
 0002:00029fbc       ??_C@_09IIMHCEDG@?$CFs?$CI?$CFd?$CJ?5?3?5?$AA@ 004c3fbc     atlsd:AtlDebugAPI.obj
 0002:00029fc8       ??_C@_02KPKOKMHB@?$CFS?$AA@ 004c3fc8     atlsd:AtlDebugAPI.obj
 0002:00029fcc       ??_C@_19JCANECJL@?$AA?$CF?$AAs?$AA?3?$AA?5?$AA?$AA@ 004c3fcc     atlsd:AtlDebugAPI.obj
 0002:00029fd8       ??_C@_1BE@PGKGHBDF@?$AA?$CF?$AAS?$AA?$CI?$AA?$CF?$AAd?$AA?$CJ?$AA?5?$AA?3?$AA?5?$AA?$AA@ 004c3fd8     atlsd:AtlDebugAPI.obj
 0002:00029fec       ??_C@_1DA@NMHCLMEJ@?$AAp?$AAA?$AAl?$AAl?$AAo?$AAc?$AAa?$AAt?$AAo?$AAr?$AA?9?$AA?$DO?$AAm?$AA_?$AAb?$AAS?$AAn?$AAa?$AAp?$AAs?$AAh?$AAo?$AAt?$AA?$AA@ 004c3fec     atlsd:AtlDebugAPI.obj
 0002:0002a01c       ??_C@_1CE@NDBHOLMF@?$AAp?$AAP?$AAr?$AAo?$AAc?$AAe?$AAs?$AAs?$AAI?$AAn?$AAf?$AAo?$AA?5?$AA?$CB?$AA?$DN?$AA?5?$AA0?$AA?$AA@ 004c401c     atlsd:AtlDebugAPI.obj
 0002:0002a040       ??_C@_1CC@ONKAHKMP@?$AAp?$AAM?$AAo?$AAd?$AAu?$AAl?$AAe?$AAI?$AAn?$AAf?$AAo?$AA?5?$AA?$CB?$AA?$DN?$AA?5?$AA0?$AA?$AA@ 004c4040     atlsd:AtlDebugAPI.obj
 0002:0002a064       ??_C@_1CG@BANGGBIE@?$AAp?$AAC?$AAa?$AAt?$AAe?$AAg?$AAo?$AAr?$AAy?$AAI?$AAn?$AAf?$AAo?$AA?5?$AA?$CB?$AA?$DN?$AA?5?$AA0?$AA?$AA@ 004c4064     atlsd:AtlDebugAPI.obj
 0002:0002a08c       ??_C@_1BC@JOPFIJLO@?$AAp?$AAP?$AAr?$AAo?$AAc?$AAe?$AAs?$AAs?$AA?$AA@ 004c408c     atlsd:AtlDebugAPI.obj
 0002:0002a0a0       ??_C@_1DM@CECLCIOA@?$AAp?$AAp?$AAC?$AAa?$AAt?$AAe?$AAg?$AAo?$AAr?$AAy?$AA?5?$AA?$CG?$AA?$CG?$AA?5?$AAp?$AAf?$AAn?$AAC?$AAr?$AAt?$AAD?$AAb?$AAg?$AAR?$AAe?$AAp?$AAo?$AAr?$AAt?$AA?$AA@ 004c40a0     atlsd:AtlDebugAPI.obj
 0002:0002a0e0       ??_C@_1HA@EFGOBFOA@?$AAf?$AA?3?$AA?2?$AAd?$AAd?$AA?2?$AAv?$AAc?$AAt?$AAo?$AAo?$AAl?$AAs?$AA?2?$AAv?$AAc?$AA7?$AAl?$AAi?$AAb?$AAs?$AA?2?$AAs?$AAh?$AAi?$AAp?$AA?2?$AAa?$AAt?$AAl?$AAm?$AAf@ 004c40e0     atlsd:AtlDebugAPI.obj
 0002:0002a150       ??_C@_1EA@JHMKKLFC@?$AAn?$AAI?$AAn?$AAd?$AAe?$AAx?$AA?5?$AA?$DO?$AA?$DN?$AA?5?$AA0?$AA?5?$AA?$CG?$AA?$CG?$AA?5?$AAn?$AAI?$AAn?$AAd?$AAe?$AAx?$AA?5?$AA?$DM?$AA?5?$AAm?$AA_?$AAn?$AAS?$AAi?$AAz?$AAe?$AA?$AA@ 004c4150     atlsd:AtlDebugAPI.obj
 0002:0002a190       ??_C@_1GI@CLJCGCPP@?$AAf?$AA?3?$AA?2?$AAd?$AAd?$AA?2?$AAv?$AAc?$AAt?$AAo?$AAo?$AAl?$AAs?$AA?2?$AAv?$AAc?$AA7?$AAl?$AAi?$AAb?$AAs?$AA?2?$AAs?$AAh?$AAi?$AAp?$AA?2?$AAa?$AAt?$AAl?$AAm?$AAf@ 004c4190     atlsd:AtlDebugAPI.obj
 0002:0002a1f8       ??_C@_1BK@NHHHCKNA@?$AAm?$AA_?$AAt?$AAi?$AAm?$AAe?$AA?5?$AA?$CB?$AA?$DN?$AA?5?$AA?9?$AA1?$AA?$AA@ 004c41f8     atlsd:atltime.obj
 0002:0002a218       ??_C@_1GM@GOMCALCH@?$AAf?$AA?3?$AA?2?$AAd?$AAd?$AA?2?$AAv?$AAc?$AAt?$AAo?$AAo?$AAl?$AAs?$AA?2?$AAv?$AAc?$AA7?$AAl?$AAi?$AAb?$AAs?$AA?2?$AAs?$AAh?$AAi?$AAp?$AA?2?$AAa?$AAt?$AAl?$AAm?$AAf@ 004c4218     atlsd:atltime.obj
 0002:0002a284       ??_C@_1BC@PMINONJG@?$AAb?$AAS?$AAu?$AAc?$AAc?$AAe?$AAs?$AAs?$AA?$AA@ 004c4284     atlsd:Allocate.obj
 0002:0002a298       ??_C@_1HI@MDMANKNC@?$AAf?$AA?3?$AA?2?$AAd?$AAd?$AA?2?$AAv?$AAc?$AAt?$AAo?$AAo?$AAl?$AAs?$AA?2?$AAv?$AAc?$AA7?$AAl?$AAi?$AAb?$AAs?$AA?2?$AAs?$AAh?$AAi?$AAp?$AA?2?$AAa?$AAt?$AAl?$AAm?$AAf@ 004c4298     atlsd:Allocate.obj
 0002:0002a310       ??_C@_1DG@LHMNHOH@?$AA?$CB?$AAm?$AA_?$AAh?$AAM?$AAa?$AAp?$AA?5?$AA?$CG?$AA?$CG?$AA?5?$AA?$CB?$AAm?$AA_?$AAp?$AAB?$AAu?$AAf?$AAf?$AAe?$AAr?$AAS?$AAt?$AAa?$AAr?$AAt?$AA?$AA@ 004c4310     atlsd:Allocate.obj
 0002:0002a348       ??_C@_1CC@JCNIBNON@?$AAi?$AAM?$AAo?$AAd?$AAu?$AAl?$AAe?$AA?5?$AA?$DM?$AA?5?$AAm?$AAo?$AAd?$AAc?$AAn?$AAt?$AA?$AA@ 004c4348     atlsd:Allocate.obj
 0002:0002a370       ??_C@_1HO@KONLCGL@?$AA?$CI?$AAi?$AAC?$AAa?$AAt?$AAe?$AAg?$AAo?$AAr?$AAy?$AA?5?$AA?$DM?$AA?5?$AAm?$AA_?$AAp?$AAP?$AAr?$AAo?$AAc?$AAe?$AAs?$AAs?$AA?9?$AA?$DO?$AAC?$AAa?$AAt?$AAe?$AAg?$AAo?$AAr@ 004c4370     atlsd:Allocate.obj
 0002:0002a3f0       ??_C@_1BG@EIHNOMMF@?$AAm?$AA_?$AAp?$AAP?$AAr?$AAo?$AAc?$AAe?$AAs?$AAs?$AA?$AA@ 004c43f0     atlsd:Allocate.obj
 0002:0002a408       ??_C@_1IO@GJLKCBCE@?$AAf?$AA?3?$AA?2?$AAd?$AAd?$AA?2?$AAv?$AAc?$AAt?$AAo?$AAo?$AAl?$AAs?$AA?2?$AAv?$AAc?$AA7?$AAl?$AAi?$AAb?$AAs?$AA?2?$AAs?$AAh?$AAi?$AAp?$AA?2?$AAa?$AAt?$AAl?$AAm?$AAf@ 004c4408     atlsd:Allocate.obj
 0002:0002a498       ??_C@_1BK@GFEAMNLJ@?$AAn?$AAC?$AAo?$AAo?$AAk?$AAi?$AAe?$AA?5?$AA?$CB?$AA?$DN?$AA?5?$AA0?$AA?$AA@ 004c4498     atlsd:Allocate.obj
 0002:0002a4b4       ??_C@_1BO@OAGIAJOK@?$AAp?$AAC?$AAa?$AAt?$AAe?$AAg?$AAo?$AAr?$AAy?$AA?5?$AA?$CB?$AA?$DN?$AA?5?$AA0?$AA?$AA@ 004c44b4     atlsd:Allocate.obj
 0002:0002a4d4       ??_C@_11LOCGONAA@?$AA?$AA@ 004c44d4     atlsd:AtlTraceModuleManager.obj
 0002:0002a4d8       ??_C@_06HGFIIEJH@SGEMM?5?$AA@ 004c44d8     blas:sgemm.obj
 0002:0002a4e0       ??_C@_01GFHCPBMG@C?$AA@    004c44e0     blas:sgemm.obj
 0002:0002a4e4       ??_C@_06NECBCGNH@DGEMM?5?$AA@ 004c44e4     blas:dgemm.obj
 0002:0002a4ec       ??_C@_0DP@OFDGIAEO@?$CK?$CK?5On?5entry?5to?5?$CF6s?0?5parameter?5nu@ 004c44ec     blas:xerbla.obj
 0002:0002a52c       ??_C@_01DGKLNCNG@R?$AA@    004c452c     lapack:sgesvd.obj
 0002:0002a530       ??_C@_01BIAFAFID@F?$AA@    004c4530     lapack:sgesvd.obj
 0002:0002a534       ??_C@_01BBODEMC@G?$AA@     004c4534     lapack:sgesvd.obj
 0002:0002a538       ??_C@_06BAJAIPIM@SORGLQ?$AA@ 004c4538     lapack:sgesvd.obj
 0002:0002a540       ??_C@_06OIHPHFMH@SGELQF?$AA@ 004c4540     lapack:sgesvd.obj
 0002:0002a548       ??_C@_01BNIGIBBF@Q?$AA@    004c4548     lapack:sgesvd.obj
 0002:0002a54c       ??_C@_06CPEDOMGM@SORGQR?$AA@ 004c454c     lapack:sgesvd.obj
 0002:0002a554       ??_C@_06DBCDPBEF@SORGBR?$AA@ 004c4554     lapack:sgesvd.obj
 0002:0002a55c       ??_C@_01EJNLAFE@P?$AA@     004c455c     lapack:sgesvd.obj
 0002:0002a560       ??_C@_06DINANOCP@SGEBRD?$AA@ 004c4560     lapack:sgesvd.obj
 0002:0002a568       ??_C@_06EIEKEENM@SGEQRF?$AA@ 004c4568     lapack:sgesvd.obj
 0002:0002a570       ??_C@_01CLKCMJKC@?5?$AA@   004c4570     lapack:sgesvd.obj
 0002:0002a574       ??_C@_06NHHMEGAJ@SGESVD?$AA@ 004c4574     lapack:sgesvd.obj
 0002:0002a57c       ??_C@_01MJMHLOMK@O?$AA@    004c457c     lapack:sgesvd.obj
 0002:0002a580       ??_C@_0N@NEJJDAPK@No?5transpose?$AA@ 004c4580     lapack:spotf2.obj
 0002:0002a590       ??_C@_09OMALPMGL@Transpose?$AA@ 004c4590     lapack:spotf2.obj
 0002:0002a59c       ??_C@_06HLILCJDC@SPOTF2?$AA@ 004c459c     lapack:spotf2.obj
 0002:0002a5a4       ??_C@_06LCOJCNMM@DORGLQ?$AA@ 004c45a4     lapack:dgesvd.obj
 0002:0002a5ac       ??_C@_06EKAGNHIH@DGELQF?$AA@ 004c45ac     lapack:dgesvd.obj
 0002:0002a5b4       ??_C@_06INDKEOCM@DORGQR?$AA@ 004c45b4     lapack:dgesvd.obj
 0002:0002a5bc       ??_C@_06JDFKFDAF@DORGBR?$AA@ 004c45bc     lapack:dgesvd.obj
 0002:0002a5c4       ??_C@_06JKKJHMGP@DGEBRD?$AA@ 004c45c4     lapack:dgesvd.obj
 0002:0002a5cc       ??_C@_06OKDDOGJM@DGEQRF?$AA@ 004c45cc     lapack:dgesvd.obj
 0002:0002a5d4       ??_C@_06HFAFOEEJ@DGESVD?$AA@ 004c45d4     lapack:dgesvd.obj
 0002:0002a5dc       ??_C@_06NJPCILHC@DPOTF2?$AA@ 004c45dc     lapack:dpotf2.obj
 0002:0002a5e4       ??_C@_04KPCPLBPL@Left?$AA@ 004c45e4     lapack:dtrtrs.obj
 0002:0002a5ec       ??_C@_06LNNKMLBN@DTRTRS?$AA@ 004c45ec     lapack:dtrtrs.obj
 0002:0002a5f4       ??_C@_07NALHMFBO@Forward?$AA@ 004c45f4     lapack:dorgqr.obj
 0002:0002a5fc       ??_C@_0L@DOKHANPG@Columnwise?$AA@ 004c45fc     lapack:dorgqr.obj
 0002:0002a608       ??_C@_05IIDIPOEN@Lower?$AA@ 004c4608     lapack:dpotrs.obj
 0002:0002a610       ??_C@_05NDIGJFPE@Upper?$AA@ 004c4610     lapack:dpotrs.obj
 0002:0002a618       ??_C@_08IAEIADFB@Non?9unit?$AA@ 004c4618     lapack:dpotrs.obj
 0002:0002a624       ??_C@_06LODLNKDI@DPOTRS?$AA@ 004c4624     lapack:dpotrs.obj
 0002:0002a62c       ??_C@_05DADPALEM@Right?$AA@ 004c462c     lapack:dpotrf.obj
 0002:0002a634       ??_C@_06IJIODMCM@DPOTRF?$AA@ 004c4634     lapack:dpotrf.obj
 0002:0002a63c       ??_C@_04BOICIEDE@Unit?$AA@ 004c463c     lapack:dgetrs.obj
 0002:0002a644       ??_C@_06OKFIPALK@DGETRS?$AA@ 004c4644     lapack:dgetrs.obj
 0002:0002a64c       ??_C@_06NNONBGKO@DGETRF?$AA@ 004c464c     lapack:dgetrf.obj
 0002:0002a654       ??_C@_06NHAPMKLE@DSYTRS?$AA@ 004c4654     lapack:dsytrs.obj
 0002:0002a65c       ??_C@_06OALKCMKA@DSYTRF?$AA@ 004c465c     lapack:dsytrf.obj
 0002:0002a664       ??_C@_06BPKDGJFN@STRTRS?$AA@ 004c4664     lapack:strtrs.obj
 0002:0002a66c       ??_C@_06BMECHIHI@SPOTRS?$AA@ 004c466c     lapack:spotrs.obj
 0002:0002a674       ??_C@_06CLPHJOGM@SPOTRF?$AA@ 004c4674     lapack:spotrf.obj
 0002:0002a67c       ??_C@_06EICBFCPK@SGETRS?$AA@ 004c467c     lapack:sgetrs.obj
 0002:0002a684       ??_C@_06HPJELEOO@SGETRF?$AA@ 004c4684     lapack:sgetrf.obj
 0002:0002a68c       ??_C@_06HFHGGIPE@SSYTRS?$AA@ 004c468c     lapack:ssytrs.obj
 0002:0002a694       ??_C@_06ECMDIOOA@SSYTRF?$AA@ 004c4694     lapack:ssytrf.obj
 0002:0002a69c       ??_C@_07KFOGBIOF@Rowwise?$AA@ 004c469c     lapack:sorglq.obj
 0002:0002a6a4       ??_C@_06FOJOBBCB@SORMBR?$AA@ 004c46a4     lapack:sormbr.obj
 0002:0002a6ac       ??_C@_06HPCNGPOI@SORMLQ?$AA@ 004c46ac     lapack:sormbr.obj
 0002:0002a6b4       ??_C@_06EAPOAMAI@SORMQR?$AA@ 004c46b4     lapack:sormbr.obj
 0002:0002a6c0       __real@3f847ae140000000    004c46c0     lapack:sbdsqr.obj
 0002:0002a6c8       __real@41200000            004c46c8     lapack:sbdsqr.obj
 0002:0002a6cc       __real@42c80000            004c46cc     lapack:sbdsqr.obj
 0002:0002a6d0       ??_C@_01FCMHBHNC@V?$AA@    004c46d0     lapack:sbdsqr.obj
 0002:0002a6d4       ??_C@_0N@ECFLIEIM@Safe?5minimum?$AA@ 004c46d4     lapack:sbdsqr.obj
 0002:0002a6e4       ??_C@_07MHFJNEOI@Epsilon?$AA@ 004c46e4     lapack:sbdsqr.obj
 0002:0002a6ec       ??_C@_06KDAGFNFI@SBDSQR?$AA@ 004c46ec     lapack:sbdsqr.obj
 0002:0002a6f4       ??_C@_06JKAPPLJJ@SLASCL?$AA@ 004c46f4     lapack:slascl.obj
 0002:0002a6fc       ??_C@_01POHCFINO@Z?$AA@    004c46fc     lapack:slascl.obj
 0002:0002a700       ??_C@_01IGIGCIAN@H?$AA@    004c4700     lapack:slascl.obj
 0002:0002a704       ??_C@_01DDCIFGEA@E?$AA@    004c4704     lapack:slange.obj
 0002:0002a708       ??_C@_01JPJNBJEM@I?$AA@    004c4708     lapack:slange.obj
 0002:0002a710       __real@4040000000000000    004c4710     lapack:slamch.obj
 0002:0002a718       __real@3e70000000000000    004c4718     lapack:slamch.obj
 0002:0002a720       __real@33800000            004c4720     lapack:slamch.obj
 0002:0002a728       __real@3ff99999a0000000    004c4728     lapack:ilaenv.obj
 0002:0002a730       ??_C@_03EBDLGEJM@EBZ?$AA@  004c4730     lapack:ilaenv.obj
 0002:0002a734       ??_C@_02LAJDCOFE@ST?$AA@   004c4734     lapack:ilaenv.obj
 0002:0002a738       ??_C@_03NMIACGA@UUM?$AA@   004c4738     lapack:ilaenv.obj
 0002:0002a73c       ??_C@_02JAFMCMAN@LA?$AA@   004c473c     lapack:ilaenv.obj
 0002:0002a740       ??_C@_02KOENCFNK@PB?$AA@   004c4740     lapack:ilaenv.obj
 0002:0002a744       ??_C@_02LHCEJACP@GB?$AA@   004c4744     lapack:ilaenv.obj
 0002:0002a748       ??_C@_03GIFFEINO@GST?$AA@  004c4748     lapack:ilaenv.obj
 0002:0002a74c       ??_C@_02BLODFLJH@PO?$AA@   004c474c     lapack:ilaenv.obj
 0002:0002a750       ??_C@_03FDMPKKEL@TRF?$AA@  004c4750     lapack:ilaenv.obj
 0002:0002a754       ??_C@_03NEFHLGIE@TRI?$AA@  004c4754     lapack:ilaenv.obj
 0002:0002a758       ??_C@_02EDDKIDN@UN?$AA@    004c4758     lapack:ilaenv.obj
 0002:0002a75c       ??_C@_02PLCNEAJF@BR?$AA@   004c475c     lapack:ilaenv.obj
 0002:0002a760       ??_C@_02ODIGJPFH@TR?$AA@   004c4760     lapack:ilaenv.obj
 0002:0002a764       ??_C@_02PGLKMFED@HR?$AA@   004c4764     lapack:ilaenv.obj
 0002:0002a768       ??_C@_02DBAMGCGD@QL?$AA@   004c4768     lapack:ilaenv.obj
 0002:0002a76c       ??_C@_02NKJODOFM@LQ?$AA@   004c476c     lapack:ilaenv.obj
 0002:0002a770       ??_C@_02MMCGLACG@RQ?$AA@   004c4770     lapack:ilaenv.obj
 0002:0002a774       ??_C@_02OFENFNLM@QR?$AA@   004c4774     lapack:ilaenv.obj
 0002:0002a778       ??_C@_02PDPFNDMG@OR?$AA@   004c4778     lapack:ilaenv.obj
 0002:0002a77c       ??_C@_02PDDJEBNF@HE?$AA@   004c477c     lapack:ilaenv.obj
 0002:0002a780       ??_C@_03GBPJMIMJ@TRD?$AA@  004c4780     lapack:ilaenv.obj
 0002:0002a784       ??_C@_02FDNFABJ@SY?$AA@    004c4784     lapack:ilaenv.obj
 0002:0002a788       ??_C@_03BEILMAIK@BRD?$AA@  004c4788     lapack:ilaenv.obj
 0002:0002a78c       ??_C@_03HLDGCAOO@HRD?$AA@  004c478c     lapack:ilaenv.obj
 0002:0002a790       ??_C@_03HCKJNEAD@QLF?$AA@  004c4790     lapack:ilaenv.obj
 0002:0002a794       ??_C@_03MECEGLGC@LQF?$AA@  004c4794     lapack:ilaenv.obj
 0002:0002a798       ??_C@_03HEOCELMO@RQF?$AA@  004c4798     lapack:ilaenv.obj
 0002:0002a79c       ??_C@_03GEBBFKHJ@QRF?$AA@  004c479c     lapack:ilaenv.obj
 0002:0002a7a0       ??_C@_02PIGFAGOI@GE?$AA@   004c47a0     lapack:ilaenv.obj
 0002:0002a7a4       ??_C@_06PMOHLDGB@DORMBR?$AA@ 004c47a4     lapack:dormbr.obj
 0002:0002a7ac       ??_C@_06NNFEMNKI@DORMLQ?$AA@ 004c47ac     lapack:dormbr.obj
 0002:0002a7b4       ??_C@_06OCIHKOEI@DORMQR?$AA@ 004c47b4     lapack:dormbr.obj
 0002:0002a7bc       ??_C@_06BHPPPBI@DBDSQR?$AA@ 004c47bc     lapack:dbdsqr.obj
 0002:0002a7c4       ??_C@_06DIHGFJNJ@DLASCL?$AA@ 004c47c4     lapack:dlascl.obj
 0002:0002a7d0       __real@c059000000000000    004c47d0     lapack:dlamch.obj
 0002:0002a7d8       __real@3ca0000000000000    004c47d8     lapack:dlamch.obj
 0002:0002a7e0       ??_C@_06MHKLDLFF@DORG2R?$AA@ 004c47e0     lapack:dorg2r.obj
 0002:0002a7e8       ??_C@_06KBGAFKGO@DGEQR2?$AA@ 004c47e8     lapack:dgeqr2.obj
 0002:0002a7f0       ??_C@_06INJBKBPA@DGETF2?$AA@ 004c47f0     lapack:dgetf2.obj
 0002:0002a7f8       __real@3fc0000000000000    004c47f8     lapack:dsytf2.obj
 0002:0002a800       __real@4031000000000000    004c4800     lapack:dsytf2.obj
 0002:0002a808       ??_C@_06LAMGJLPO@DSYTF2?$AA@ 004c4808     lapack:dsytf2.obj
 0002:0002a810       ??_C@_06GFNCJJBF@SORG2R?$AA@ 004c4810     lapack:sorg2r.obj
 0002:0002a818       ??_C@_06DBJPICO@SGEQR2?$AA@ 004c4818     lapack:sgeqr2.obj
 0002:0002a820       ??_C@_06CPOIADLA@SGETF2?$AA@ 004c4820     lapack:sgetf2.obj
 0002:0002a828       ??_C@_06BCLPDJLO@SSYTF2?$AA@ 004c4828     lapack:ssytf2.obj
 0002:0002a830       ??_C@_06FOEALHOI@SORGL2?$AA@ 004c4830     lapack:sorgl2.obj
 0002:0002a838       ??_C@_06KDCMMJDF@SGELQ2?$AA@ 004c4838     lapack:sgelq2.obj
 0002:0002a840       __real@4010000000000000    004c4840     lapack:slasv2.obj
 0002:0002a848       ??_C@_03IPFLKIML@EPS?$AA@  004c4848     lapack:slasv2.obj
 0002:0002a84c       ??_C@_06EOKDBGHF@SLASR?5?$AA@ 004c484c     lapack:slasr.obj
 0002:0002a854       ??_C@_09DGDDLEAF@Precision?$AA@ 004c4854     lapack:slasq1.obj
 0002:0002a860       ??_C@_06BPDMILDM@SLASQ1?$AA@ 004c4860     lapack:slasq1.obj
 0002:0002a868       ??_C@_06FJBONPJN@SGEBD2?$AA@ 004c4868     lapack:sgebd2.obj
 0002:0002a870       ??_C@_06PMDJBFKI@DORGL2?$AA@ 004c4870     lapack:dorgl2.obj
 0002:0002a878       ??_C@_06BFFGLHF@DGELQ2?$AA@ 004c4878     lapack:dgelq2.obj
 0002:0002a880       ??_C@_06OMNKLEDF@DLASR?5?$AA@ 004c4880     lapack:dlasr.obj
 0002:0002a888       ??_C@_06LNEFCJHM@DLASQ1?$AA@ 004c4888     lapack:dlasq1.obj
 0002:0002a890       ??_C@_06PLGHHNNN@DGEBD2?$AA@ 004c4890     lapack:dgebd2.obj
 0002:0002a898       __real@40000000            004c4898     lapack:slarfp.obj
 0002:0002a89c       ??_C@_06DBPNFHIM@SORML2?$AA@ 004c489c     lapack:sorml2.obj
 0002:0002a8a4       ??_C@_06KGPHJHB@SORM2R?$AA@ 004c48a4     lapack:sorm2r.obj
 0002:0002a8ac       __real@80000000            004c48ac     lapack:slasq2.obj
 0002:0002a8b0       __real@3ff8000000000000    004c48b0     lapack:slasq2.obj
 0002:0002a8b8       ??_C@_06DEBBNIPP@SLASQ2?$AA@ 004c48b8     lapack:slasq2.obj
 0002:0002a8c0       ??_C@_06FPAKKIH@SLASRT?$AA@ 004c48c0     lapack:slasrt.obj
 0002:0002a8c8       ??_C@_06JDIEPFMM@DORML2?$AA@ 004c48c8     lapack:dorml2.obj
 0002:0002a8d0       ??_C@_06KIBGNLDB@DORM2R?$AA@ 004c48d0     lapack:dorm2r.obj
 0002:0002a8d8       __real@8000000000000000    004c48d8     lapack:dlasq2.obj
 0002:0002a8e0       ??_C@_06JGGIHKLP@DLASQ2?$AA@ 004c48e0     lapack:dlasq2.obj
 0002:0002a8e8       ??_C@_06KHIJAIMH@DLASRT?$AA@ 004c48e8     lapack:dlasrt.obj
 0002:0002a8f0       __real@3ff028f5c0000000    004c48f0     lapack:slasq4.obj
 0002:0002a8f8       __real@3f1020c5            004c48f8     lapack:slasq4.obj
 0002:0002a900       __real@3ff0ccccc0000000    004c4900     lapack:slasq4.obj
 0002:0002a908       __real@3e800000            004c4908     lapack:slasq4.obj
 0002:0002a90c       __real@3daa7efa            004c490c     lapack:slasq4.obj
 0002:0002a910       __real@3fd54fdf40000000    004c4910     lapack:slasq4.obj
 0002:0002a918       __real@3fe20418a0000000    004c4918     lapack:slasq4.obj
 0002:0002a920       __real@3ff028f5c28f5c29    004c4920     lapack:dlasq4.obj
 0002:0002a928       __real@3fb54fdf3b645a1d    004c4928     lapack:dlasq4.obj
 0002:0002a930       __real@3fd54fdf3b645a1d    004c4930     lapack:dlasq4.obj
 0002:0002a938       __real@3ff0cccccccccccd    004c4938     lapack:dlasq4.obj
 0002:0002a940       __real@3fe204189374bc6a    004c4940     lapack:dlasq4.obj
 0002:0002a948       ??_C@_05FCBNDMCB@s_cat?$AA@ 004c4948     libf2c:s_cat.obj
 0002:0002a950       ??_C@_07KBKBJNIB@startio?$AA@ 004c4950     libf2c:sfe.obj
 0002:0002a958       ??_C@_03PDOBAHOB@sfe?$AA@  004c4958     libf2c:sfe.obj
 0002:0002a95c       ??_C@_0L@LKOGCJFH@bad?5string?$AA@ 004c495c     libf2c:fmt.obj
 0002:0002a968       ??_C@_0BJ@HKNOEPLO@format?5too?5complicated?3?6?$AA@ 004c4968     libf2c:fmt.obj
 0002:0002a984       ??_C@_06OFKFICPK@do_fio?$AA@ 004c4984     libf2c:fmt.obj
 0002:0002a98c       ??_C@_0BP@DLJCNNMN@unknown?5code?5in?5do_fio?3?5?$CFd?6?$CFs?6?$AA@ 004c498c     libf2c:fmt.obj
 0002:0002a9ac       ??_C@_03MLKKGMLN@fmt?$AA@  004c49ac     libf2c:fmt.obj
 0002:0002a9b0       ??_C@_0M@LLOFDJDD@write?5start?$AA@ 004c49b0     libf2c:wsfe.obj
 0002:0002a9bc       ??_C@_0BK@LENELDJB@malloc?$CI?$CFu?$CJ?5failure?5in?5?$CFs?6?$AA@ 004c49bc     libf2c:f77_aloc.obj
 0002:0002a9d8       ??_C@_0BA@MIHHOIHP@nmLbuf?5overflow?$AA@ 004c49d8     libf2c:err.obj
 0002:0002a9e8       ??_C@_0BL@PMBCONLF@non?9positive?5record?5number?$AA@ 004c49e8     libf2c:err.obj
 0002:0002aa04       ??_C@_0BF@LHBGFHAN@can?8t?5append?5to?5file?$AA@ 004c4a04     libf2c:err.obj
 0002:0002aa1c       ??_C@_0BC@JPMNAOLL@?8new?8?5file?5exists?$AA@ 004c4a1c     libf2c:err.obj
 0002:0002aa30       ??_C@_0BB@MOJIBHEM@can?8t?5write?5file?$AA@ 004c4a30     libf2c:err.obj
 0002:0002aa44       ??_C@_0BA@FJNEHKOF@can?8t?5read?5file?$AA@ 004c4a44     libf2c:err.obj
 0002:0002aa54       ??_C@_0BI@BLHFDIEO@subscript?5out?5of?5bounds?$AA@ 004c4a54     libf2c:err.obj
 0002:0002aa6c       ??_C@_0BI@IDGNNOHP@substring?5out?5of?5bounds?$AA@ 004c4a6c     libf2c:err.obj
 0002:0002aa84       ??_C@_0BG@ONJFPJFJ@invalid?5array?5section?$AA@ 004c4a84     libf2c:err.obj
 0002:0002aa9c       ??_C@_0BO@OADDECON@subscript?5for?5scalar?5variable?$AA@ 004c4a9c     libf2c:err.obj
 0002:0002aabc       ??_C@_0BJ@KAHCHPBK@variable?5count?5incorrect?$AA@ 004c4abc     libf2c:err.obj
 0002:0002aad8       ??_C@_0O@IGBJJDPL@no?5end?5record?$AA@ 004c4ad8     libf2c:err.obj
 0002:0002aae8       ??_C@_0BJ@EFDDKCOD@variable?5not?5in?5namelist?$AA@ 004c4ae8     libf2c:err.obj
 0002:0002ab04       ??_C@_0BC@BDACFEPL@bad?5namelist?5name?$AA@ 004c4b04     libf2c:err.obj
 0002:0002ab18       ??_C@_0BC@IKOFPHAL@bad?5variable?5type?$AA@ 004c4b18     libf2c:err.obj
 0002:0002ab2c       ??_C@_0BI@GMMOALCN@bad?5logical?5input?5field?$AA@ 004c4b2c     libf2c:err.obj
 0002:0002ab44       ??_C@_0BK@BGEIJAOF@read?5unexpected?5character?$AA@ 004c4b44     libf2c:err.obj
 0002:0002ab60       ??_C@_0BC@FIMMOFPK@out?5of?5free?5space?$AA@ 004c4b60     libf2c:err.obj
 0002:0002ab74       ??_C@_0BM@HIINPENA@incomprehensible?5list?5input?$AA@ 004c4b74     libf2c:err.obj
 0002:0002ab90       ??_C@_0BN@IFCHIACI@truncation?5failed?5in?5endfile?$AA@ 004c4b90     libf2c:err.obj
 0002:0002abb0       ??_C@_0BC@NACJOLEA@off?5end?5of?5record?$AA@ 004c4bb0     libf2c:err.obj
 0002:0002abc4       ??_C@_0BD@EJBIEFGI@unit?5not?5connected?$AA@ 004c4bc4     libf2c:err.obj
 0002:0002abd8       ??_C@_0BA@GKHDNLCH@can?8t?5stat?5file?$AA@ 004c4bd8     libf2c:err.obj
 0002:0002abe8       ??_C@_0P@FOGCLPMO@null?5file?5name?$AA@ 004c4be8     libf2c:err.obj
 0002:0002abf8       ??_C@_0BF@ONOKCBAC@can?8t?5backspace?5file?$AA@ 004c4bf8     libf2c:err.obj
 0002:0002ac10       ??_C@_0BK@HGBOIIHM@sequential?5io?5not?5allowed?$AA@ 004c4c10     libf2c:err.obj
 0002:0002ac2c       ??_C@_0BG@GCGCPNFA@direct?5io?5not?5allowed?$AA@ 004c4c2c     libf2c:err.obj
 0002:0002ac44       ??_C@_0BL@NMABKBDD@unformatted?5io?5not?5allowed?$AA@ 004c4c44     libf2c:err.obj
 0002:0002ac60       ??_C@_0BJ@EBLPPMHO@formatted?5io?5not?5allowed?$AA@ 004c4c60     libf2c:err.obj
 0002:0002ac7c       ??_C@_0BE@BOPLOGPO@illegal?5unit?5number?$AA@ 004c4c7c     libf2c:err.obj
 0002:0002ac90       ??_C@_0BA@ILBADFCH@error?5in?5format?$AA@ 004c4c90     libf2c:err.obj
 0002:0002aca0       ??_C@_03HGCDGKFI@?5IO?$AA@ 004c4ca0     libf2c:err.obj
 0002:0002aca4       ??_C@_0BD@PMLNGMPD@lately?5?$CFs?5?$CFs?5?$CFs?5?$CFs?$AA@ 004c4ca4     libf2c:err.obj
 0002:0002acb8       ??_C@_07EKMNMCED@writing?$AA@ 004c4cb8     libf2c:err.obj
 0002:0002acc0       ??_C@_07CMOHHLII@reading?$AA@ 004c4cc0     libf2c:err.obj
 0002:0002acc8       ??_C@_06LMLJGLPA@direct?$AA@ 004c4cc8     libf2c:err.obj
 0002:0002acd0       ??_C@_0L@OGEPILOF@sequential?$AA@ 004c4cd0     libf2c:err.obj
 0002:0002acdc       ??_C@_0M@FHMPJJD@unformatted?$AA@ 004c4cdc     libf2c:err.obj
 0002:0002ace8       ??_C@_09CDGIBMFA@formatted?$AA@ 004c4ce8     libf2c:err.obj
 0002:0002acf4       ??_C@_08LEPPLCNF@internal?$AA@ 004c4cf4     libf2c:err.obj
 0002:0002ad00       ??_C@_08OIBPHJGN@external?$AA@ 004c4d00     libf2c:err.obj
 0002:0002ad0c       ??_C@_0BB@BAHJEMGI@last?5format?3?5?$CFs?6?$AA@ 004c4d0c     libf2c:err.obj
 0002:0002ad20       ??_C@_0BO@NCJPLEGG@apparent?5state?3?5internal?5I?1O?6?$AA@ 004c4d20     libf2c:err.obj
 0002:0002ad40       ??_C@_0L@FIMJNALL@?$CIunnamed?$CJ?6?$AA@ 004c4d40     libf2c:err.obj
 0002:0002ad4c       ??_C@_09GDDDODEC@named?5?$CFs?6?$AA@ 004c4d4c     libf2c:err.obj
 0002:0002ad58       ??_C@_0BJ@MOKPKBLA@apparent?5state?3?5unit?5?$CFd?5?$AA@ 004c4d58     libf2c:err.obj
 0002:0002ad74       ??_C@_0BN@GHNALNBA@?$CFs?3?5illegal?5error?5number?5?$CFd?6?$AA@ 004c4d74     libf2c:err.obj
 0002:0002ad94       ??_C@_07KJFPOMFC@?$CFs?3?5?$CFs?6?$AA@ 004c4d94     libf2c:err.obj
 0002:0002ad9c       ??_C@_0BB@NEPPMNKF@?$CFs?3?5end?5of?5file?6?$AA@ 004c4d9c     libf2c:err.obj
 0002:0002adb0       ??_C@_02CBLLGHLK@r?$CL?$AA@ 004c4db0     libf2c:open.obj
 0002:0002adb4       ??_C@_03HMFOOINA@r?$CLb?$AA@ 004c4db4     libf2c:open.obj
 0002:0002adb8       ??_C@_01NOFIACDB@w?$AA@    004c4db8     libf2c:open.obj
 0002:0002adbc       ??_C@_02GMLFBBN@wb?$AA@    004c4dbc     libf2c:open.obj
 0002:0002adc0       ??_C@_01KDCPPGHE@r?$AA@    004c4dc0     libf2c:open.obj
 0002:0002adc4       ??_C@_02JDPG@rb?$AA@       004c4dc4     libf2c:open.obj
 0002:0002adc8       ??_C@_0P@BOLAOBGL@malloc?5failure?$AA@ 004c4dc8     libf2c:open.obj
 0002:0002add8       ??_C@_08OOMENPLB@no?5space?$AA@ 004c4dd8     libf2c:open.obj
 0002:0002ade4       ??_C@_08HNEBHNDD@fort?4?$CFld?$AA@ 004c4de4     libf2c:open.obj
 0002:0002adf0       ??_C@_04PMOCAHAA@open?$AA@ 004c4df0     libf2c:open.obj
 0002:0002adf8       ??_C@_01OMGOGALD@u?$AA@    004c4df8     libf2c:open.obj
 0002:0002adfc       ??_C@_01INIBCBCB@f?$AA@    004c4dfc     libf2c:open.obj
 0002:0002ae00       ??_C@_01LPLHEDKD@d?$AA@    004c4e00     libf2c:open.obj
 0002:0002ae04       ??_C@_01LKDEMHDF@s?$AA@    004c4e04     libf2c:open.obj
 0002:0002ae08       ??_C@_03OFAPEBGM@?$CFs?6?$AA@ 004c4e08     libf2c:sig_die.obj
 0002:0002ae0c       ??_C@_06NAOPDNEP@recend?$AA@ 004c4e0c     libf2c:wrtfmt.obj
 0002:0002ae14       ??_C@_08JOAGLCNE@left?5off?$AA@ 004c4e14     libf2c:wrtfmt.obj
 0002:0002ae20       ??_C@_0BL@KJGHIKGM@w_ed?0?5unexpected?5code?3?5?$CFd?6?$AA@ 004c4e20     libf2c:wrtfmt.obj
 0002:0002ae3c       ??_C@_0BM@MLAKKECL@w_ned?0?5unexpected?5code?3?5?$CFd?6?$AA@ 004c4e3c     libf2c:wrtfmt.obj
 0002:0002ae58       ??_C@_05MJNOJDJM@?$CF?$CL?42d?$AA@ 004c4e58     libf2c:wref.obj
 0002:0002ae60       ??_C@_05GHAEDPHG@?$CF?$CD?4?$CKE?$AA@ 004c4e60     libf2c:wref.obj
 0002:0002ae68       ??_C@_05NJKNEIBH@?$CF?$CD?4?$CKf?$AA@ 004c4e68     libf2c:wref.obj
 0002:0002ae70       ??_C@_07EDCBGDHP@endfile?$AA@ 004c4e70     libf2c:endfile.obj
 0002:0002ae98       ??_C@_0DH@EMOHNEGB@f?3?2dd?2vctools?2vc7libs?2ship?2atlmf@ 004c4e98     mfcs100d:appmodul.obj
 0002:0002aed0       ??_C@_06GGCLMIAG@SGEMV?5?$AA@ 004c4ed0     blas:sgemv.obj
 0002:0002aed8       ??_C@_06MEFCGKEG@DGEMV?5?$AA@ 004c4ed8     blas:dgemv.obj
 0002:0002aee0       ??_C@_06DDGFDNNM@DTRSM?5?$AA@ 004c4ee0     blas:dtrsm.obj
 0002:0002aee8       ??_C@_06OFIBCHKC@DSYRK?5?$AA@ 004c4ee8     blas:dsyrk.obj
 0002:0002aef0       ??_C@_06JMFEDJGN@DGER?5?5?$AA@ 004c4ef0     blas:dger.obj
 0002:0002aef8       ??_C@_06JBBMJPJM@STRSM?5?$AA@ 004c4ef8     blas:strsm.obj
 0002:0002af00       ??_C@_06EHPIIFOC@SSYRK?5?$AA@ 004c4f00     blas:ssyrk.obj
 0002:0002af08       ??_C@_06DOCNJLCN@SGER?5?5?$AA@ 004c4f08     blas:sger.obj
 0002:0002af10       ??_C@_06IDKDBNHA@DTRMM?5?$AA@ 004c4f10     blas:dtrmm.obj
 0002:0002af18       ??_C@_06JDNAFBOB@DTRMV?5?$AA@ 004c4f18     blas:dtrmv.obj
 0002:0002af20       ??_C@_06KBADADGD@DSYR?5?5?$AA@ 004c4f20     blas:dsyr.obj
 0002:0002af28       ??_C@_06CBNKLPDA@STRMM?5?$AA@ 004c4f28     blas:strmm.obj
 0002:0002af30       ??_C@_06DBKJPDKB@STRMV?5?$AA@ 004c4f30     blas:strmv.obj
 0002:0002af38       ??_C@_06DHKKBCD@SSYR?5?5?$AA@ 004c4f38     blas:ssyr.obj
 0002:0002af40       __load_config_used         004c4f40     msvcrtd:loadcfg.obj
 0002:0002bcc0       ??_R4CMgmotorctrl1@@6B@    004c5cc0     APTMotor.obj
 0002:0002bcd8       ??_R3CMgmotorctrl1@@8      004c5cd8     APTMotor.obj
 0002:0002bcec       ??_R2CMgmotorctrl1@@8      004c5cec     APTMotor.obj
 0002:0002bd00       ??_R1A@?0A@EA@CMgmotorctrl1@@8 004c5d00     APTMotor.obj
 0002:0002bd24       ??_R1A@?0A@EA@CWnd@@8      004c5d24     APTMotor.obj
 0002:0002bd48       ??_R3CWnd@@8               004c5d48     APTMotor.obj
 0002:0002bd5c       ??_R2CWnd@@8               004c5d5c     APTMotor.obj
 0002:0002bd6c       ??_R1A@?0A@EA@CCmdTarget@@8 004c5d6c     APTMotor.obj
 0002:0002bd90       ??_R3CCmdTarget@@8         004c5d90     APTMotor.obj
 0002:0002bda4       ??_R2CCmdTarget@@8         004c5da4     APTMotor.obj
 0002:0002bdb0       ??_R1A@?0A@EA@CObject@@8   004c5db0     APTMotor.obj
 0002:0002bdd4       ??_R3CObject@@8            004c5dd4     APTMotor.obj
 0002:0002bde8       ??_R2CObject@@8            004c5de8     APTMotor.obj
 0002:0002bdf0       ??_R4Thank_you@Define_the_symbol__ATL_MIXED@@6B@ 004c5df0     APTMotor.obj
 0002:0002be08       ??_R3Thank_you@Define_the_symbol__ATL_MIXED@@8 004c5e08     APTMotor.obj
 0002:0002be1c       ??_R2Thank_you@Define_the_symbol__ATL_MIXED@@8 004c5e1c     APTMotor.obj
 0002:0002be24       ??_R1A@?0A@EA@Thank_you@Define_the_symbol__ATL_MIXED@@8 004c5e24     APTMotor.obj
 0002:0002be48       ??_R4APT_system@@6B@       004c5e48     APTSystem.obj
 0002:0002be60       ??_R3APT_system@@8         004c5e60     APTSystem.obj
 0002:0002be74       ??_R2APT_system@@8         004c5e74     APTSystem.obj
 0002:0002be88       ??_R1A@?0A@EA@APT_system@@8 004c5e88     APTSystem.obj
 0002:0002beac       ??_R4DisplayDialog@@6B@    004c5eac     DisplayDialog.obj
 0002:0002bec4       ??_R3DisplayDialog@@8      004c5ec4     DisplayDialog.obj
 0002:0002bed8       ??_R2DisplayDialog@@8      004c5ed8     DisplayDialog.obj
 0002:0002bef4       ??_R1A@?0A@EA@DisplayDialog@@8 004c5ef4     DisplayDialog.obj
 0002:0002bf18       ??_R1A@?0A@EA@CDialog@@8   004c5f18     DisplayDialog.obj
 0002:0002bf3c       ??_R3CDialog@@8            004c5f3c     DisplayDialog.obj
 0002:0002bf50       ??_R2CDialog@@8            004c5f50     DisplayDialog.obj
 0002:0002bf64       ??_R4CMainFrame@@6B@       004c5f64     MainFrm.obj
 0002:0002bf7c       ??_R3CMainFrame@@8         004c5f7c     MainFrm.obj
 0002:0002bf90       ??_R2CMainFrame@@8         004c5f90     MainFrm.obj
 0002:0002bfac       ??_R1A@?0A@EA@CMainFrame@@8 004c5fac     MainFrm.obj
 0002:0002bfd0       ??_R1A@?0A@EA@CFrameWnd@@8 004c5fd0     MainFrm.obj
 0002:0002bff4       ??_R3CFrameWnd@@8          004c5ff4     MainFrm.obj
 0002:0002c008       ??_R2CFrameWnd@@8          004c6008     MainFrm.obj
 0002:0002c01c       ??_R4COctopusApp@@6B@      004c601c     Octopus.obj
 0002:0002c034       ??_R3COctopusApp@@8        004c6034     Octopus.obj
 0002:0002c048       ??_R2COctopusApp@@8        004c6048     Octopus.obj
 0002:0002c064       ??_R1A@?0A@EA@COctopusApp@@8 004c6064     Octopus.obj
 0002:0002c088       ??_R1A@?0A@EA@CWinApp@@8   004c6088     Octopus.obj
 0002:0002c0ac       ??_R3CWinApp@@8            004c60ac     Octopus.obj
 0002:0002c0c0       ??_R2CWinApp@@8            004c60c0     Octopus.obj
 0002:0002c0d4       ??_R1A@?0A@EA@CWinThread@@8 004c60d4     Octopus.obj
 0002:0002c0f8       ??_R3CWinThread@@8         004c60f8     Octopus.obj
 0002:0002c10c       ??_R2CWinThread@@8         004c610c     Octopus.obj
 0002:0002c11c       ??_R4COctopusXCite@@6B@    004c611c     OctopusXCite.obj
 0002:0002c134       ??_R3COctopusXCite@@8      004c6134     OctopusXCite.obj
 0002:0002c148       ??_R2COctopusXCite@@8      004c6148     OctopusXCite.obj
 0002:0002c164       ??_R1A@?0A@EA@COctopusXCite@@8 004c6164     OctopusXCite.obj
 0002:0002c188       ??_R4Octopus_LED@@6B@      004c6188     Octopus_LED.obj
 0002:0002c1a0       ??_R3Octopus_LED@@8        004c61a0     Octopus_LED.obj
 0002:0002c1b4       ??_R2Octopus_LED@@8        004c61b4     Octopus_LED.obj
 0002:0002c1d0       ??_R1A@?0A@EA@Octopus_LED@@8 004c61d0     Octopus_LED.obj
 0002:0002c1f4       ??_R4COctopusPictureDisplay@@6B@ 004c61f4     OctopusCameraDisplay.obj
 0002:0002c20c       ??_R3COctopusPictureDisplay@@8 004c620c     OctopusCameraDisplay.obj
 0002:0002c220       ??_R2COctopusPictureDisplay@@8 004c6220     OctopusCameraDisplay.obj
 0002:0002c23c       ??_R1A@?0A@EA@COctopusPictureDisplay@@8 004c623c     OctopusCameraDisplay.obj
 0002:0002c260       ??_R4COctopusCamera@@6B@   004c6260     OctopusCameraDlg.obj
 0002:0002c278       ??_R3COctopusCamera@@8     004c6278     OctopusCameraDlg.obj
 0002:0002c28c       ??_R2COctopusCamera@@8     004c628c     OctopusCameraDlg.obj
 0002:0002c2a8       ??_R1A@?0A@EA@COctopusCamera@@8 004c62a8     OctopusCameraDlg.obj
 0002:0002c2cc       ??_R4COctopusGoodClock@@6B@ 004c62cc     OctopusClock.obj
 0002:0002c2e4       ??_R3COctopusGoodClock@@8  004c62e4     OctopusClock.obj
 0002:0002c2f8       ??_R2COctopusGoodClock@@8  004c62f8     OctopusClock.obj
 0002:0002c300       ??_R1A@?0A@EA@COctopusGoodClock@@8 004c6300     OctopusClock.obj
 0002:0002c324       ??_R4COctopusDoc@@6B@      004c6324     OctopusDoc.obj
 0002:0002c33c       ??_R3COctopusDoc@@8        004c633c     OctopusDoc.obj
 0002:0002c350       ??_R2COctopusDoc@@8        004c6350     OctopusDoc.obj
 0002:0002c364       ??_R1A@?0A@EA@COctopusDoc@@8 004c6364     OctopusDoc.obj
 0002:0002c388       ??_R1A@?0A@EA@CDocument@@8 004c6388     OctopusDoc.obj
 0002:0002c3ac       ??_R3CDocument@@8          004c63ac     OctopusDoc.obj
 0002:0002c3c0       ??_R2CDocument@@8          004c63c0     OctopusDoc.obj
 0002:0002c3d0       ??_R4CDocumentAdapter@CDocument@@6B@ 004c63d0     OctopusDoc.obj
 0002:0002c3e8       ??_R3CDocumentAdapter@CDocument@@8 004c63e8     OctopusDoc.obj
 0002:0002c3fc       ??_R2CDocumentAdapter@CDocument@@8 004c63fc     OctopusDoc.obj
 0002:0002c408       ??_R1A@?0A@EA@CDocumentAdapter@CDocument@@8 004c6408     OctopusDoc.obj
 0002:0002c42c       ??_R1A@?0A@EA@IDocument@ATL@@8 004c642c     OctopusDoc.obj
 0002:0002c450       ??_R3IDocument@ATL@@8      004c6450     OctopusDoc.obj
 0002:0002c464       ??_R2IDocument@ATL@@8      004c6464     OctopusDoc.obj
 0002:0002c46c       ??_R4IDocument@ATL@@6B@    004c646c     OctopusDoc.obj
 0002:0002c484       ??_R4COctopusFocus@@6B@    004c6484     OctopusFocus.obj
 0002:0002c49c       ??_R3COctopusFocus@@8      004c649c     OctopusFocus.obj
 0002:0002c4b0       ??_R2COctopusFocus@@8      004c64b0     OctopusFocus.obj
 0002:0002c4cc       ??_R1A@?0A@EA@COctopusFocus@@8 004c64cc     OctopusFocus.obj
 0002:0002c4f0       ??_R4OctopusLaser@@6B@     004c64f0     OctopusLaser.obj
 0002:0002c508       ??_R3OctopusLaser@@8       004c6508     OctopusLaser.obj
 0002:0002c51c       ??_R2OctopusLaser@@8       004c651c     OctopusLaser.obj
 0002:0002c538       ??_R1A@?0A@EA@OctopusLaser@@8 004c6538     OctopusLaser.obj
 0002:0002c55c       ??_R4COctopusLasers@@6B@   004c655c     OctopusLasers.obj
 0002:0002c574       ??_R3COctopusLasers@@8     004c6574     OctopusLasers.obj
 0002:0002c588       ??_R2COctopusLasers@@8     004c6588     OctopusLasers.obj
 0002:0002c5a4       ??_R1A@?0A@EA@COctopusLasers@@8 004c65a4     OctopusLasers.obj
 0002:0002c5c8       ??_R4COctopusObjectivePiezo@@6B@ 004c65c8     OctopusObjectivePiezo.obj
 0002:0002c5e0       ??_R3COctopusObjectivePiezo@@8 004c65e0     OctopusObjectivePiezo.obj
 0002:0002c5f4       ??_R2COctopusObjectivePiezo@@8 004c65f4     OctopusObjectivePiezo.obj
 0002:0002c610       ??_R1A@?0A@EA@COctopusObjectivePiezo@@8 004c6610     OctopusObjectivePiezo.obj
 0002:0002c634       ??_R4COctopusScope@@6B@    004c6634     OctopusScope.obj
 0002:0002c64c       ??_R3COctopusScope@@8      004c664c     OctopusScope.obj
 0002:0002c660       ??_R2COctopusScope@@8      004c6660     OctopusScope.obj
 0002:0002c67c       ??_R1A@?0A@EA@COctopusScope@@8 004c667c     OctopusScope.obj
 0002:0002c6a0       ??_R4COctopusScript@@6B@   004c66a0     OctopusScript.obj
 0002:0002c6b8       ??_R3COctopusScript@@8     004c66b8     OctopusScript.obj
 0002:0002c6cc       ??_R2COctopusScript@@8     004c66cc     OctopusScript.obj
 0002:0002c6e8       ??_R1A@?0A@EA@COctopusScript@@8 004c66e8     OctopusScript.obj
 0002:0002c70c       ??_R4COctopusShutterAndWheel@@6B@ 004c670c     OctopusShutter.obj
 0002:0002c724       ??_R3COctopusShutterAndWheel@@8 004c6724     OctopusShutter.obj
 0002:0002c738       ??_R2COctopusShutterAndWheel@@8 004c6738     OctopusShutter.obj
 0002:0002c754       ??_R1A@?0A@EA@COctopusShutterAndWheel@@8 004c6754     OctopusShutter.obj
 0002:0002c778       ??_R4COctopusStage545@@6B@ 004c6778     OctopusStage545.obj
 0002:0002c790       ??_R3COctopusStage545@@8   004c6790     OctopusStage545.obj
 0002:0002c7a4       ??_R2COctopusStage545@@8   004c67a4     OctopusStage545.obj
 0002:0002c7c0       ??_R1A@?0A@EA@COctopusStage545@@8 004c67c0     OctopusStage545.obj
 0002:0002c7e4       ??_R4COctopusView@@6B@     004c67e4     OctopusView.obj
 0002:0002c7fc       ??_R3COctopusView@@8       004c67fc     OctopusView.obj
 0002:0002c810       ??_R2COctopusView@@8       004c6810     OctopusView.obj
 0002:0002c834       ??_R1A@?0A@EA@COctopusView@@8 004c6834     OctopusView.obj
 0002:0002c858       ??_R1A@?0A@EA@CFormView@@8 004c6858     OctopusView.obj
 0002:0002c87c       ??_R3CFormView@@8          004c687c     OctopusView.obj
 0002:0002c890       ??_R2CFormView@@8          004c6890     OctopusView.obj
 0002:0002c8b0       ??_R1A@?0A@EA@CScrollView@@8 004c68b0     OctopusView.obj
 0002:0002c8d4       ??_R3CScrollView@@8        004c68d4     OctopusView.obj
 0002:0002c8e8       ??_R2CScrollView@@8        004c68e8     OctopusView.obj
 0002:0002c904       ??_R1A@?0A@EA@CView@@8     004c6904     OctopusView.obj
 0002:0002c928       ??_R3CView@@8              004c6928     OctopusView.obj
 0002:0002c93c       ??_R2CView@@8              004c693c     OctopusView.obj
 0002:0002c950       ??_R4type_info@@6B@        004c6950     msvcrtd:ti_inst.obj
 0002:0002c964       ??_R3type_info@@8          004c6964     msvcrtd:ti_inst.obj
 0002:0002c974       ??_R2type_info@@8          004c6974     msvcrtd:ti_inst.obj
 0002:0002c97c       ??_R1A@?0A@EA@type_info@@8 004c697c     msvcrtd:ti_inst.obj
 0002:0002cb00       ___safe_se_handler_table   004c6b00     <linker-defined>
 0002:0002ce08       ___rtc_iaa                 004c6e08     msvcrtd:_initsect_.obj
 0002:0002cf0c       ___rtc_izz                 004c6f0c     msvcrtd:_initsect_.obj
 0002:0002d010       ___rtc_taa                 004c7010     msvcrtd:_initsect_.obj
 0002:0002d114       ___rtc_tzz                 004c7114     msvcrtd:_initsect_.obj
 0002:0002ed64       __TI1?AVCAtlException@ATL@@ 004c8d64     atlsd:Externs.obj
 0002:0002ed74       __CTA1?AVCAtlException@ATL@@ 004c8d74     atlsd:Externs.obj
 0002:0002ed7c       __CT??_R0?AVCAtlException@ATL@@@84 004c8d7c     atlsd:Externs.obj
 0002:0002f184       ___pobjMapEntryFirst       004c9184     APTMotor.obj
 0002:0002f288       ___pobjMapEntryLast        004c9288     APTMotor.obj
 0003:00000000       __pIncludeInitManaged      004ca000     APTMotor.obj
 0003:00000004       ??_R0?AVCMgmotorctrl1@@@8  004ca004     APTMotor.obj
 0003:00000028       ??_R0?AVCWnd@@@8           004ca028     APTMotor.obj
 0003:00000040       ??_R0?AVCCmdTarget@@@8     004ca040     APTMotor.obj
 0003:00000060       ??_R0?AVCObject@@@8        004ca060     APTMotor.obj
 0003:0000007c       ??_R0?AUThank_you@Define_the_symbol__ATL_MIXED@@@8 004ca07c     APTMotor.obj
 0003:000000bc       ??_R0?AVAPT_system@@@8     004ca0bc     APTSystem.obj
 0003:000000dc       ??_R0?AVDisplayDialog@@@8  004ca0dc     DisplayDialog.obj
 0003:00000100       ??_R0?AVCDialog@@@8        004ca100     DisplayDialog.obj
 0003:0000011c       ??_R0?AVCMainFrame@@@8     004ca11c     MainFrm.obj
 0003:0000013c       ??_R0?AVCFrameWnd@@@8      004ca13c     MainFrm.obj
 0003:00000158       ??_R0?AVCOctopusApp@@@8    004ca158     Octopus.obj
 0003:00000178       ??_R0?AVCWinApp@@@8        004ca178     Octopus.obj
 0003:00000194       ??_R0?AVCWinThread@@@8     004ca194     Octopus.obj
 0003:000001b4       ??_R0?AVCOctopusXCite@@@8  004ca1b4     OctopusXCite.obj
 0003:000001d8       ??_R0?AVOctopus_LED@@@8    004ca1d8     Octopus_LED.obj
 0003:000001f8       ??_R0?AVCOctopusPictureDisplay@@@8 004ca1f8     OctopusCameraDisplay.obj
 0003:00000224       ??_R0?AVCOctopusCamera@@@8 004ca224     OctopusCameraDlg.obj
 0003:00000248       ??_R0?AVCOctopusGoodClock@@@8 004ca248     OctopusClock.obj
 0003:00000270       ??_R0?AVCOctopusDoc@@@8    004ca270     OctopusDoc.obj
 0003:00000290       ??_R0?AVCDocument@@@8      004ca290     OctopusDoc.obj
 0003:000002ac       ??_R0PAVCException@@@8     004ca2ac     OctopusDoc.obj
 0003:000002cc       ??_R0?AVCDocumentAdapter@CDocument@@@8 004ca2cc     OctopusDoc.obj
 0003:00000300       ??_R0?AUIDocument@ATL@@@8  004ca300     OctopusDoc.obj
 0003:00000324       ??_R0?AVCOctopusFocus@@@8  004ca324     OctopusFocus.obj
 0003:00000348       ??_R0?AVOctopusLaser@@@8   004ca348     OctopusLaser.obj
 0003:00000368       ??_R0?AVCOctopusLasers@@@8 004ca368     OctopusLasers.obj
 0003:0000038c       ?parms@?1??SC_Enable@CMgmotorctrl1@@QAEJJ@Z@4PAEA 004ca38c     OctopusLasers.obj
 0003:00000390       ?parms@?1??SC_Disable@CMgmotorctrl1@@QAEJJ@Z@4PAEA 004ca390     OctopusLasers.obj
 0003:00000394       ?parms@?1??SC_SetOperatingMode@CMgmotorctrl1@@QAEJJJ@Z@4PAEA 004ca394     OctopusLasers.obj
 0003:00000398       ??_R0?AVCOctopusObjectivePiezo@@@8 004ca398     OctopusObjectivePiezo.obj
 0003:000003c4       ??_R0?AVCOctopusScope@@@8  004ca3c4     OctopusScope.obj
 0003:000003e8       ??_R0?AVCOctopusScript@@@8 004ca3e8     OctopusScript.obj
 0003:0000040c       ??_R0?AVCOctopusShutterAndWheel@@@8 004ca40c     OctopusShutter.obj
 0003:0000043c       ??_R0?AVCOctopusStage545@@@8 004ca43c     OctopusStage545.obj
 0003:00000464       ?glob_m_pGoodClock@@3PAVCOctopusGoodClock@@A 004ca464     OctopusView.obj
 0003:00000468       ?glob_m_pLog@@3PAVCOctopusLog@@A 004ca468     OctopusView.obj
 0003:00000470       ??_R0?AVCOctopusView@@@8   004ca470     OctopusView.obj
 0003:00000490       ??_R0?AVCFormView@@@8      004ca490     OctopusView.obj
 0003:000004ac       ??_R0?AVCScrollView@@@8    004ca4ac     OctopusView.obj
 0003:000004cc       ??_R0?AVCView@@@8          004ca4cc     OctopusView.obj
 0003:00000504       ___security_cookie         004ca504     msvcrtd:gs_cookie.obj
 0003:00000508       ___security_cookie_complement 004ca508     msvcrtd:gs_cookie.obj
 0003:0000050c       ??_R0?AVtype_info@@@8      004ca50c     msvcrtd:ti_inst.obj
 0003:00000530       ___globallocalestatus      004ca530     msvcrtd:xthdloc.obj
 0003:00000534       ___defaultmatherr          004ca534     msvcrtd:merr.obj
 0003:00000538       ___native_dllmain_reason   004ca538     msvcrtd:natstart.obj
 0003:0000053c       ___native_vcclrit_reason   004ca53c     msvcrtd:natstart.obj
 0003:00000540       ?g_pszUpdateEventName@@3PBDB 004ca540     atlsd:Externs.obj
 0003:00000544       ?g_pszAllocFileMapName@@3PBDB 004ca544     atlsd:Externs.obj
 0003:00000548       ?g_pszKernelObjFmt@@3PBDB  004ca548     atlsd:Externs.obj
 0003:0000054c       ??_R0?AVCAtlException@ATL@@@8 004ca54c     atlsd:Externs.obj
 0003:00000bb8       _F_err                     004cabb8     libf2c:err.obj
 0003:00000c38       _f__r_mode                 004cac38     libf2c:open.obj
 0003:00000c40       _f__w_mode                 004cac40     libf2c:open.obj
 0003:00000c54       _f__buflen                 004cac54     libf2c:open.obj
 0003:00000c70       _My_ctype                  004cac70     libf2c:ctype.obj
 0003:00001060       ?_pAtlAutoThreadModule@ATL@@3PAUIAtlAutoThreadModule@1@A 004cb060     APTMotor.obj
 0003:00001064       ?s_pfnPrevHook@CNoUIAssertHook@ATL@@0P6AHHPADPAH@ZA 004cb064     APTMotor.obj
 0003:00001068       ?m_bInitFailed@CAtlBaseModule@ATL@@2_NA 004cb068     APTMotor.obj
 0003:0000106c       ?s_pLog@CFixedStringMgr@ATL@@2PAVIFixedStringLog@2@A 004cb06c     APTMotor.obj
 0003:00001070       ?_pPerfRegFunc@ATL@@3P6AJPAUHINSTANCE__@@@ZA 004cb070     APTMotor.obj
 0003:00001074       ?_pPerfUnRegFunc@ATL@@3P6AJXZA 004cb074     APTMotor.obj
 0003:00001078       ?_AtlRegisterPerUser@ATL@@3_NA 004cb078     APTMotor.obj
 0003:0000107c       ?_pAtlModule@ATL@@3PAVCAtlModule@1@A 004cb07c     APTMotor.obj
 0003:00001080       ?m_libid@CAtlModule@ATL@@2U_GUID@@A 004cb080     APTMotor.obj
 0003:00001094       ?_pModule@ATL@@3PAVCComModule@1@A 004cb094     APTMotor.obj
 0003:00001098       ?ATL_CREATE_OBJECT@CComApartment@ATL@@2IA 004cb098     APTMotor.obj
 0003:0000109c       ?clash@Define_the_symbol__ATL_MIXED@@3UThank_you@1@A 004cb09c     APTMotor.obj
 0003:000010a0       ?clash@Inconsistent_definition_of_symbol__ATL_MIXED@@3U_Please_define_it_the_same_throughout_your_project@1@A 004cb0a0     APTMotor.obj
 0003:000010a8       ?theApp@@3VCOctopusApp@@A  004cb0a8     Octopus.obj
 0003:00001184       ?glob_m_pPictureDisplay@@3PAVCOctopusPictureDisplay@@A 004cb184     OctopusCameraDlg.obj
 0003:00001188       ?saved_joystick_states@@3PAHA 004cb188     OctopusStage545.obj
 0003:0000118c       ?joystick_ids@@3PAHA       004cb18c     OctopusStage545.obj
 0003:00001198       ?glob_m_pCamera@@3PAVCOctopusCamera@@A 004cb198     OctopusView.obj
 0003:0000119c       ?glob_m_pShutterAndWheel@@3PAVCOctopusShutterAndWheel@@A 004cb19c     OctopusView.obj
 0003:000011a0       ?glob_m_pScript@@3PAVCOctopusScript@@A 004cb1a0     OctopusView.obj
 0003:000011a4       ?glob_m_pLED@@3PAVOctopus_LED@@A 004cb1a4     OctopusView.obj
 0003:000011a8       ?glob_m_pStage545@@3PAVCOctopusStage545@@A 004cb1a8     OctopusView.obj
 0003:000011ac       ?glob_m_pObjPiezo@@3PAVCOctopusObjectivePiezo@@A 004cb1ac     OctopusView.obj
 0003:000011b0       ?glob_m_pFocus@@3PAVCOctopusFocus@@A 004cb1b0     OctopusView.obj
 0003:000011b4       ?glob_m_pLasers@@3PAVOctopusLaser@@A 004cb1b4     OctopusView.obj
 0003:000011b8       ?glob_m_pXCite@@3PAVCOctopusXCite@@A 004cb1b8     OctopusView.obj
 0003:000011bc       ?glob_m_pScope@@3PAVCOctopusScope@@A 004cb1bc     OctopusView.obj
 0003:000011c0       ?GoodClock@@3VCOctopusGoodClock@@A 004cb1c0     OctopusView.obj
 0003:000011e8       ?Log@@3VCOctopusLog@@A     004cb1e8     OctopusView.obj
 0003:000011f8       ?B@@3UCOctopusGlobals@@A   004cb1f8     OctopusView.obj
 0003:00001508       __afxForceEXCLUDE          004cb508     mfcs100d:nolib.obj
 0003:0000150c       ?WM_DESTROYMODELESS@CDHtmlDialog@@1IA 004cb50c     mfcs100d:nolib.obj
 0003:00001510       __afxForceSTDAFX           004cb510     mfcs100d:stdafx.obj
 0003:0000185c       __commode                  004cb85c     msvcrtd:xncommod.obj
 0003:00001860       __fmode                    004cb860     msvcrtd:xtxtmode.obj
 0003:00001864       __dowildcard               004cb864     msvcrtd:wildcard.obj
 0003:00001868       __newmode                  004cb868     msvcrtd:_newmode.obj
 0003:0000186c       ?g_Allocator@@3VCAtlAllocator@@A 004cb86c     atlsd:Externs.obj
 0003:000018a0       ?s_trace@CTrace@ATL@@2V12@A 004cb8a0     atlsd:Externs.obj
 0003:000018a8       ?atlTraceGeneral@ATL@@3VCTraceCategory@1@A 004cb8a8     atlsd:atltrace.obj
 0003:000018ac       ?atlTraceCOM@ATL@@3VCTraceCategory@1@A 004cb8ac     atlsd:atltrace.obj
 0003:000018b0       ?atlTraceQI@ATL@@3VCTraceCategory@1@A 004cb8b0     atlsd:atltrace.obj
 0003:000018b4       ?atlTraceRegistrar@ATL@@3VCTraceCategory@1@A 004cb8b4     atlsd:atltrace.obj
 0003:000018b8       ?atlTraceRefcount@ATL@@3VCTraceCategory@1@A 004cb8b8     atlsd:atltrace.obj
 0003:000018bc       ?atlTraceWindowing@ATL@@3VCTraceCategory@1@A 004cb8bc     atlsd:atltrace.obj
 0003:000018c0       ?atlTraceControls@ATL@@3VCTraceCategory@1@A 004cb8c0     atlsd:atltrace.obj
 0003:000018c4       ?atlTraceHosting@ATL@@3VCTraceCategory@1@A 004cb8c4     atlsd:atltrace.obj
 0003:000018c8       ?atlTraceDBClient@ATL@@3VCTraceCategory@1@A 004cb8c8     atlsd:atltrace.obj
 0003:000018cc       ?atlTraceDBProvider@ATL@@3VCTraceCategory@1@A 004cb8cc     atlsd:atltrace.obj
 0003:000018d0       ?atlTraceSnapin@ATL@@3VCTraceCategory@1@A 004cb8d0     atlsd:atltrace.obj
 0003:000018d4       ?atlTraceNotImpl@ATL@@3VCTraceCategory@1@A 004cb8d4     atlsd:atltrace.obj
 0003:000018d8       ?atlTraceAllocation@ATL@@3VCTraceCategory@1@A 004cb8d8     atlsd:atltrace.obj
 0003:000018dc       ?atlTraceException@ATL@@3VCTraceCategory@1@A 004cb8dc     atlsd:atltrace.obj
 0003:000018e0       ?atlTraceTime@ATL@@3VCTraceCategory@1@A 004cb8e0     atlsd:atltrace.obj
 0003:000018e4       ?atlTraceCache@ATL@@3VCTraceCategory@1@A 004cb8e4     atlsd:atltrace.obj
 0003:000018e8       ?atlTraceStencil@ATL@@3VCTraceCategory@1@A 004cb8e8     atlsd:atltrace.obj
 0003:000018ec       ?atlTraceString@ATL@@3VCTraceCategory@1@A 004cb8ec     atlsd:atltrace.obj
 0003:000018f0       ?atlTraceMap@ATL@@3VCTraceCategory@1@A 004cb8f0     atlsd:atltrace.obj
 0003:000018f4       ?atlTraceUtil@ATL@@3VCTraceCategory@1@A 004cb8f4     atlsd:atltrace.obj
 0003:000018f8       ?atlTraceSecurity@ATL@@3VCTraceCategory@1@A 004cb8f8     atlsd:atltrace.obj
 0003:000018fc       ?atlTraceSync@ATL@@3VCTraceCategory@1@A 004cb8fc     atlsd:atltrace.obj
 0003:00001900       ?atlTraceISAPI@ATL@@3VCTraceCategory@1@A 004cb900     atlsd:atltrace.obj
 0003:00001904       ?atlTraceUser@ATL@@3VCTraceCategory@1@A 004cb904     atlsd:atltrace.obj
 0003:00001908       ?atlTraceUser2@ATL@@3VCTraceCategory@1@A 004cb908     atlsd:atltrace.obj
 0003:0000190c       ?atlTraceUser3@ATL@@3VCTraceCategory@1@A 004cb90c     atlsd:atltrace.obj
 0003:00001910       ?atlTraceUser4@ATL@@3VCTraceCategory@1@A 004cb910     atlsd:atltrace.obj
 0003:00002ed4       ?_afxInitAppState@@3DA     004cced4     mfcs100d:appmodul.obj
 0003:00002ed8       _f__sequential             004cced8     <common>
 0003:00003218       _f__donewrec               004cd218     <common>
 0003:0000321c       _f__putn                   004cd21c     <common>
 0003:00003220       _f__formatted              004cd220     <common>
 0003:00003224       _f__doend                  004cd224     <common>
 0003:00003228       _f__curunit                004cd228     <common>
 0003:0000322c       _f__scale                  004cd22c     <common>
 0003:00003230       _f__cursor                 004cd230     <common>
 0003:00003234       _f__cblank                 004cd234     <common>
 0003:00003238       _f__reading                004cd238     <common>
 0003:0000323c       _f__fmtbuf                 004cd23c     <common>
 0003:00003240       _f__svic                   004cd240     <common>
 0003:00003244       _f__doned                  004cd244     <common>
 0003:00003248       _f__getn                   004cd248     <common>
 0003:0000324c       _f__elist                  004cd24c     <common>
 0003:00003250       _f__external               004cd250     <common>
 0003:00003260       _f__units                  004cd260     <common>
 0003:00004200       _f__icptr                  004ce200     <common>
 0003:00004204       _f__init                   004ce204     <common>
 0003:00004208       _f__cplus                  004ce208     <common>
 0003:0000420c       _f__doed                   004ce20c     <common>
 0003:00004210       _f__recpos                 004ce210     <common>
 0003:00004214       _f__dorevert               004ce214     <common>
 0003:00004218       _f__hiwater                004ce218     <common>
 0003:0000421c       _f__cf                     004ce21c     <common>
 0003:00004220       _f__ret                    004ce220     <common>
 0003:00004268       _f__nonl                   004ce268     <common>
 0003:0000426c       _f__revloc                 004ce26c     <common>
 0003:00004270       _f__workdone               004ce270     <common>
 0003:00004274       _f__pc                     004ce274     <common>
 0003:00004278       _f__parenlvl               004ce278     <common>
 0003:0000427c       _f__rp                     004ce27c     <common>
 0003:00004280       _f__cnt                    004ce280     <common>
 0003:000042a8       _f__cp                     004ce2a8     <common>
 0003:000042ac       ___native_startup_state    004ce2ac     <common>
 0003:000042bc       ___native_startup_lock     004ce2bc     <common>
 0003:000042c0       ___sse2_available          004ce2c0     <common>
 0003:000042cc       __NoHeapEnableTerminationOnCorruption 004ce2cc     <common>
 0003:000042d0       ___dyn_tls_init_callback   004ce2d0     <common>
 0003:000042d4       ___onexitend               004ce2d4     <common>
 0003:000042e4       ___onexitbegin             004ce2e4     <common>
 0004:00000000       __IMPORT_DESCRIPTOR_oldaapi32 004cf000     oldaapi32:oldaapi32.dll
 0004:00000014       __IMPORT_DESCRIPTOR_mfc100d 004cf014     mfc100d:mfc100d.dll
 0004:00000028       __IMPORT_DESCRIPTOR_MSVCR100D 004cf028     msvcrtd:MSVCR100D.dll
 0004:0000003c       __IMPORT_DESCRIPTOR_KERNEL32 004cf03c     kernel32:KERNEL32.dll
 0004:00000050       __IMPORT_DESCRIPTOR_COMCTL32 004cf050     comctl32:COMCTL32.dll
 0004:00000064       __IMPORT_DESCRIPTOR_OLEAUT32 004cf064     oleaut32:OLEAUT32.dll
 0004:00000078       __IMPORT_DESCRIPTOR_MSVCR100 004cf078     MSVCRT:MSVCR100.dll
 0004:0000008c       __IMPORT_DESCRIPTOR_USER32 004cf08c     user32:USER32.dll
 0004:000000a0       __IMPORT_DESCRIPTOR_ADVAPI32 004cf0a0     advapi32:ADVAPI32.dll
 0004:000000b4       __NULL_IMPORT_DESCRIPTOR   004cf0b4     oldaapi32:oldaapi32.dll
 0004:00000d70       __imp__OpenThreadToken@16  004cfd70     advapi32:ADVAPI32.dll
 0004:00000d74       __imp__SetThreadToken@8    004cfd74     advapi32:ADVAPI32.dll
 0004:00000d78       __imp__RevertToSelf@0      004cfd78     advapi32:ADVAPI32.dll
 0004:00000d7c       \177ADVAPI32_NULL_THUNK_DATA 004cfd7c     advapi32:ADVAPI32.dll
 0004:00000da8       __imp__InitCommonControlsEx@4 004cfda8     comctl32:COMCTL32.dll
 0004:00000dac       \177COMCTL32_NULL_THUNK_DATA 004cfdac     comctl32:COMCTL32.dll
 0004:00000dd8       __imp__SetCommTimeouts@8   004cfdd8     kernel32:KERNEL32.dll
 0004:00000ddc       __imp__GetCommState@8      004cfddc     kernel32:KERNEL32.dll
 0004:00000de0       __imp__CreateFileA@28      004cfde0     kernel32:KERNEL32.dll
 0004:00000de4       __imp__GetLastError@0      004cfde4     kernel32:KERNEL32.dll
 0004:00000de8       __imp__WriteFile@20        004cfde8     kernel32:KERNEL32.dll
 0004:00000dec       __imp__CreateEventA@16     004cfdec     kernel32:KERNEL32.dll
 0004:00000df0       __imp__GetOverlappedResult@16 004cfdf0     kernel32:KERNEL32.dll
 0004:00000df4       __imp__ReadFile@20         004cfdf4     kernel32:KERNEL32.dll
 0004:00000df8       __imp__Sleep@4             004cfdf8     kernel32:KERNEL32.dll
 0004:00000dfc       __imp__GetCurrentDirectoryA@8 004cfdfc     kernel32:KERNEL32.dll
 0004:00000e00       __imp__GetModuleFileNameW@12 004cfe00     kernel32:KERNEL32.dll
 0004:00000e04       __imp__OpenFileMappingA@12 004cfe04     kernel32:KERNEL32.dll
 0004:00000e08       __imp__GetCurrentThread@0  004cfe08     kernel32:KERNEL32.dll
 0004:00000e0c       __imp__CreateFileMappingA@24 004cfe0c     kernel32:KERNEL32.dll
 0004:00000e10       __imp__MapViewOfFile@20    004cfe10     kernel32:KERNEL32.dll
 0004:00000e14       __imp__GetSystemInfo@4     004cfe14     kernel32:KERNEL32.dll
 0004:00000e18       __imp__UnmapViewOfFile@4   004cfe18     kernel32:KERNEL32.dll
 0004:00000e1c       __imp__VirtualAlloc@16     004cfe1c     kernel32:KERNEL32.dll
 0004:00000e20       __imp__LocalFileTimeToFileTime@8 004cfe20     kernel32:KERNEL32.dll
 0004:00000e24       __imp__FileTimeToLocalFileTime@8 004cfe24     kernel32:KERNEL32.dll
 0004:00000e28       __imp__FileTimeToSystemTime@8 004cfe28     kernel32:KERNEL32.dll
 0004:00000e2c       __imp__MulDiv@12           004cfe2c     kernel32:KERNEL32.dll
 0004:00000e30       __imp__lstrlenA@4          004cfe30     kernel32:KERNEL32.dll
 0004:00000e34       __imp__MultiByteToWideChar@24 004cfe34     kernel32:KERNEL32.dll
 0004:00000e38       __imp__OutputDebugStringW@4 004cfe38     kernel32:KERNEL32.dll
 0004:00000e3c       __imp__SetCommState@8      004cfe3c     kernel32:KERNEL32.dll
 0004:00000e40       __imp__OpenEventA@12       004cfe40     kernel32:KERNEL32.dll
 0004:00000e44       __imp__SetEvent@4          004cfe44     kernel32:KERNEL32.dll
 0004:00000e48       __imp__RaiseException@16   004cfe48     kernel32:KERNEL32.dll
 0004:00000e4c       __imp__CreateThread@24     004cfe4c     kernel32:KERNEL32.dll
 0004:00000e50       __imp__WaitForSingleObject@8 004cfe50     kernel32:KERNEL32.dll
 0004:00000e54       __imp__QueryPerformanceCounter@4 004cfe54     kernel32:KERNEL32.dll
 0004:00000e58       __imp__QueryPerformanceFrequency@4 004cfe58     kernel32:KERNEL32.dll
 0004:00000e5c       __imp__InterlockedIncrement@4 004cfe5c     kernel32:KERNEL32.dll
 0004:00000e60       __imp__InterlockedDecrement@4 004cfe60     kernel32:KERNEL32.dll
 0004:00000e64       __imp__FreeLibrary@4       004cfe64     kernel32:KERNEL32.dll
 0004:00000e68       __imp__GetProcAddress@8    004cfe68     kernel32:KERNEL32.dll
 0004:00000e6c       __imp__LoadLibraryA@4      004cfe6c     kernel32:KERNEL32.dll
 0004:00000e70       __imp__EncodePointer@4     004cfe70     kernel32:KERNEL32.dll
 0004:00000e74       __imp__DecodePointer@4     004cfe74     kernel32:KERNEL32.dll
 0004:00000e78       __imp__InterlockedExchange@8 004cfe78     kernel32:KERNEL32.dll
 0004:00000e7c       __imp__InterlockedCompareExchange@12 004cfe7c     kernel32:KERNEL32.dll
 0004:00000e80       __imp__HeapSetInformation@16 004cfe80     kernel32:KERNEL32.dll
 0004:00000e84       __imp__GetStartupInfoW@4   004cfe84     kernel32:KERNEL32.dll
 0004:00000e88       __imp__TerminateProcess@8  004cfe88     kernel32:KERNEL32.dll
 0004:00000e8c       __imp__GetCurrentProcess@0 004cfe8c     kernel32:KERNEL32.dll
 0004:00000e90       __imp__UnhandledExceptionFilter@4 004cfe90     kernel32:KERNEL32.dll
 0004:00000e94       __imp__IsDebuggerPresent@0 004cfe94     kernel32:KERNEL32.dll
 0004:00000e98       __imp__IsProcessorFeaturePresent@4 004cfe98     kernel32:KERNEL32.dll
 0004:00000e9c       __imp__GetTickCount@0      004cfe9c     kernel32:KERNEL32.dll
 0004:00000ea0       __imp__GetCurrentThreadId@0 004cfea0     kernel32:KERNEL32.dll
 0004:00000ea4       __imp__GetCurrentProcessId@0 004cfea4     kernel32:KERNEL32.dll
 0004:00000ea8       __imp__GetSystemTimeAsFileTime@4 004cfea8     kernel32:KERNEL32.dll
 0004:00000eac       __imp__CloseHandle@4       004cfeac     kernel32:KERNEL32.dll
 0004:00000eb0       __imp__OutputDebugStringA@4 004cfeb0     kernel32:KERNEL32.dll
 0004:00000eb4       __imp__SetUnhandledExceptionFilter@4 004cfeb4     kernel32:KERNEL32.dll
 0004:00000eb8       \177KERNEL32_NULL_THUNK_DATA 004cfeb8     kernel32:KERNEL32.dll
 0004:00000f10       __imp___recalloc           004cff10     MSVCRT:MSVCR100.dll
 0004:00000f14       __imp__calloc              004cff14     MSVCRT:MSVCR100.dll
 0004:00000f18       __imp__strcpy_s            004cff18     MSVCRT:MSVCR100.dll
 0004:00000f1c       __imp__wcsncpy_s           004cff1c     MSVCRT:MSVCR100.dll
 0004:00000f20       __imp__wcscpy_s            004cff20     MSVCRT:MSVCR100.dll
 0004:00000f24       __imp___snwprintf_s        004cff24     MSVCRT:MSVCR100.dll
 0004:00000f28       __imp___vsnwprintf_s       004cff28     MSVCRT:MSVCR100.dll
 0004:00000f2c       __imp__memset              004cff2c     MSVCRT:MSVCR100.dll
 0004:00000f30       __imp___vsnprintf_s        004cff30     MSVCRT:MSVCR100.dll
 0004:00000f34       __imp__wcscpy              004cff34     MSVCRT:MSVCR100.dll
 0004:00000f38       __imp__strcpy              004cff38     MSVCRT:MSVCR100.dll
 0004:00000f3c       __imp___CxxThrowException@8 004cff3c     MSVCRT:MSVCR100.dll
 0004:00000f40       __imp___errno              004cff40     MSVCRT:MSVCR100.dll
 0004:00000f44       __imp___snprintf_s         004cff44     MSVCRT:MSVCR100.dll
 0004:00000f48       __imp__access              004cff48     MSVCRT:MSVCR100.dll
 0004:00000f48       __imp___access             004cff48     MSVCRT:MSVCR100.dll
 0004:00000f4c       __imp__memcmp              004cff4c     MSVCRT:MSVCR100.dll
 0004:00000f50       __imp___time64             004cff50     MSVCRT:MSVCR100.dll
 0004:00000f54       __imp___mktime64           004cff54     MSVCRT:MSVCR100.dll
 0004:00000f58       __imp___gmtime64_s         004cff58     MSVCRT:MSVCR100.dll
 0004:00000f5c       __imp___wcsicmp            004cff5c     MSVCRT:MSVCR100.dll
 0004:00000f60       __imp__memmove_s           004cff60     MSVCRT:MSVCR100.dll
 0004:00000f64       __imp__wcslen              004cff64     MSVCRT:MSVCR100.dll
 0004:00000f68       \177MSVCR100_NULL_THUNK_DATA 004cff68     MSVCRT:MSVCR100.dll
 0004:00000fa4       __imp___CrtDbgReport       004cffa4     msvcrtd:MSVCR100D.dll
 0004:00000fa8       __imp__printf              004cffa8     msvcrtd:MSVCR100D.dll
 0004:00000fac       __imp____CxxFrameHandler3  004cffac     msvcrtd:MSVCR100D.dll
 0004:00000fb0       __imp___CIlog              004cffb0     msvcrtd:MSVCR100D.dll
 0004:00000fb4       __imp___CIpow              004cffb4     msvcrtd:MSVCR100D.dll
 0004:00000fb8       __imp__rand                004cffb8     msvcrtd:MSVCR100D.dll
 0004:00000fbc       __imp__perror              004cffbc     msvcrtd:MSVCR100D.dll
 0004:00000fc0       __imp__fseek               004cffc0     msvcrtd:MSVCR100D.dll
 0004:00000fc4       __imp__freopen             004cffc4     msvcrtd:MSVCR100D.dll
 0004:00000fc8       __imp__ftell               004cffc8     msvcrtd:MSVCR100D.dll
 0004:00000fcc       __imp__putc                004cffcc     msvcrtd:MSVCR100D.dll
 0004:00000fd0       __imp__fputs               004cffd0     msvcrtd:MSVCR100D.dll
 0004:00000fd4       __imp__rewind              004cffd4     msvcrtd:MSVCR100D.dll
 0004:00000fd8       __imp__tmpfile             004cffd8     msvcrtd:MSVCR100D.dll
 0004:00000fdc       __imp__strncmp             004cffdc     msvcrtd:MSVCR100D.dll
 0004:00000fe0       __imp__abort               004cffe0     msvcrtd:MSVCR100D.dll
 0004:00000fe4       __imp__signal              004cffe4     msvcrtd:MSVCR100D.dll
 0004:00000fe8       __imp__remove              004cffe8     msvcrtd:MSVCR100D.dll
 0004:00000fec       __imp__atoi                004cffec     msvcrtd:MSVCR100D.dll
 0004:00000ff0       __imp__fread               004cfff0     msvcrtd:MSVCR100D.dll
 0004:00000ff4       __imp___setmbcp            004cfff4     msvcrtd:MSVCR100D.dll
 0004:00000ff8       __imp__sqrt                004cfff8     msvcrtd:MSVCR100D.dll
 0004:00000ffc       __imp__cos                 004cfffc     msvcrtd:MSVCR100D.dll
 0004:00001000       __imp___getpid             004d0000     msvcrtd:MSVCR100D.dll
 0004:00001004       __imp__srand               004d0004     msvcrtd:MSVCR100D.dll
 0004:00001008       __imp__exp                 004d0008     msvcrtd:MSVCR100D.dll
 0004:0000100c       __imp__fclose              004d000c     msvcrtd:MSVCR100D.dll
 0004:00001010       __imp__sprintf             004d0010     msvcrtd:MSVCR100D.dll
 0004:00001014       __imp__atol                004d0014     msvcrtd:MSVCR100D.dll
 0004:00001018       __imp__atof                004d0018     msvcrtd:MSVCR100D.dll
 0004:0000101c       __imp__log                 004d001c     msvcrtd:MSVCR100D.dll
 0004:00001020       __imp__strlen              004d0020     msvcrtd:MSVCR100D.dll
 0004:00001024       __imp__floor               004d0024     msvcrtd:MSVCR100D.dll
 0004:00001028       __imp___invoke_watson      004d0028     msvcrtd:MSVCR100D.dll
 0004:0000102c       __imp___controlfp_s        004d002c     msvcrtd:MSVCR100D.dll
 0004:00001030       __imp___except_handler4_common 004d0030     msvcrtd:MSVCR100D.dll
 0004:00001034       __imp_?_type_info_dtor_internal_method@type_info@@QAEXXZ 004d0034     msvcrtd:MSVCR100D.dll
 0004:00001038       __imp___crt_debugger_hook  004d0038     msvcrtd:MSVCR100D.dll
 0004:0000103c       __imp_?terminate@@YAXXZ    004d003c     msvcrtd:MSVCR100D.dll
 0004:00001040       __imp___initterm_e         004d0040     msvcrtd:MSVCR100D.dll
 0004:00001044       __imp___initterm           004d0044     msvcrtd:MSVCR100D.dll
 0004:00001048       __imp___CrtDbgReportW      004d0048     msvcrtd:MSVCR100D.dll
 0004:0000104c       __imp___CrtSetCheckCount   004d004c     msvcrtd:MSVCR100D.dll
 0004:00001050       __imp___acmdln             004d0050     msvcrtd:MSVCR100D.dll
 0004:00001054       __imp___ismbblead          004d0054     msvcrtd:MSVCR100D.dll
 0004:00001058       __imp___cexit              004d0058     msvcrtd:MSVCR100D.dll
 0004:0000105c       __imp___XcptFilter         004d005c     msvcrtd:MSVCR100D.dll
 0004:00001060       __imp___exit               004d0060     msvcrtd:MSVCR100D.dll
 0004:00001064       __imp____getmainargs       004d0064     msvcrtd:MSVCR100D.dll
 0004:00001068       __imp___amsg_exit          004d0068     msvcrtd:MSVCR100D.dll
 0004:0000106c       __imp____set_app_type      004d006c     msvcrtd:MSVCR100D.dll
 0004:00001070       __imp___fmode              004d0070     msvcrtd:MSVCR100D.dll
 0004:00001074       __imp___commode            004d0074     msvcrtd:MSVCR100D.dll
 0004:00001078       __imp____setusermatherr    004d0078     msvcrtd:MSVCR100D.dll
 0004:0000107c       __imp___configthreadlocale 004d007c     msvcrtd:MSVCR100D.dll
 0004:00001080       __imp___onexit             004d0080     msvcrtd:MSVCR100D.dll
 0004:00001084       __imp___lock               004d0084     msvcrtd:MSVCR100D.dll
 0004:00001088       __imp____dllonexit         004d0088     msvcrtd:MSVCR100D.dll
 0004:0000108c       __imp___unlock             004d008c     msvcrtd:MSVCR100D.dll
 0004:00001090       __imp__memcpy              004d0090     msvcrtd:MSVCR100D.dll
 0004:00001094       __imp___CIsqrt             004d0094     msvcrtd:MSVCR100D.dll
 0004:00001098       __imp___CIlog10            004d0098     msvcrtd:MSVCR100D.dll
 0004:0000109c       __imp__exit                004d009c     msvcrtd:MSVCR100D.dll
 0004:000010a0       __imp____iob_func          004d00a0     msvcrtd:MSVCR100D.dll
 0004:000010a4       __imp__malloc              004d00a4     msvcrtd:MSVCR100D.dll
 0004:000010a8       __imp___finite             004d00a8     msvcrtd:MSVCR100D.dll
 0004:000010ac       __imp__free                004d00ac     msvcrtd:MSVCR100D.dll
 0004:000010b0       __imp__system              004d00b0     msvcrtd:MSVCR100D.dll
 0004:000010b4       __imp__sscanf              004d00b4     msvcrtd:MSVCR100D.dll
 0004:000010b8       __imp___localtime64_s      004d00b8     msvcrtd:MSVCR100D.dll
 0004:000010bc       __imp__strftime            004d00bc     msvcrtd:MSVCR100D.dll
 0004:000010c0       __imp___purecall           004d00c0     msvcrtd:MSVCR100D.dll
 0004:000010c4       __imp__pow                 004d00c4     msvcrtd:MSVCR100D.dll
 0004:000010c8       __imp__fprintf             004d00c8     msvcrtd:MSVCR100D.dll
 0004:000010cc       __imp__fflush              004d00cc     msvcrtd:MSVCR100D.dll
 0004:000010d0       __imp__fwrite              004d00d0     msvcrtd:MSVCR100D.dll
 0004:000010d4       __imp__fopen               004d00d4     msvcrtd:MSVCR100D.dll
 0004:000010d8       \177MSVCR100D_NULL_THUNK_DATA 004d00d8     msvcrtd:MSVCR100D.dll
 0004:00001140       __imp__SysFreeString@4     004d0140     oleaut32:OLEAUT32.dll
 0004:00001144       \177OLEAUT32_NULL_THUNK_DATA 004d0144     oleaut32:OLEAUT32.dll
 0004:00001170       __imp__CopyRect@8          004d0170     user32:USER32.dll
 0004:00001174       __imp__IsRectEmpty@4       004d0174     user32:USER32.dll
 0004:00001178       __imp__PtInRect@12         004d0178     user32:USER32.dll
 0004:0000117c       __imp__SetRect@20          004d017c     user32:USER32.dll
 0004:00001180       __imp__SetRectEmpty@4      004d0180     user32:USER32.dll
 0004:00001184       __imp__EqualRect@8         004d0184     user32:USER32.dll
 0004:00001188       __imp__InflateRect@12      004d0188     user32:USER32.dll
 0004:0000118c       __imp__OffsetRect@12       004d018c     user32:USER32.dll
 0004:00001190       __imp__IntersectRect@12    004d0190     user32:USER32.dll
 0004:00001194       __imp__SubtractRect@12     004d0194     user32:USER32.dll
 0004:00001198       __imp__UnionRect@12        004d0198     user32:USER32.dll
 0004:0000119c       \177USER32_NULL_THUNK_DATA 004d019c     user32:USER32.dll
 0004:000011d0       __imp_?ProcessMessageFilter@CWinThread@@UAEHHPAUtagMSG@@@Z 004d01d0     mfc100d:mfc100d.dll
 0004:000011d4       __imp_?GetMainWnd@CWinThread@@UAEPAVCWnd@@XZ 004d01d4     mfc100d:mfc100d.dll
 0004:000011d8       __imp_?Delete@CWinThread@@UAEXXZ 004d01d8     mfc100d:mfc100d.dll
 0004:000011dc       __imp_?GetProfileIntA@CWinApp@@UAEIPBD0H@Z 004d01dc     mfc100d:mfc100d.dll
 0004:000011e0       __imp_?WriteProfileInt@CWinApp@@UAEHPBD0H@Z 004d01e0     mfc100d:mfc100d.dll
 0004:000011e4       __imp_?GetProfileStringA@CWinApp@@UAE?AV?$CStringT@DV?$StrTraitMFC_DLL@DV?$ChTraitsCRT@D@ATL@@@@@ATL@@PBD00@Z 004d01e4     mfc100d:mfc100d.dll
 0004:000011e8       __imp_?WriteProfileStringA@CWinApp@@UAEHPBD00@Z 004d01e8     mfc100d:mfc100d.dll
 0004:000011ec       __imp_?GetProfileBinary@CWinApp@@UAEHPBD0PAPAEPAI@Z 004d01ec     mfc100d:mfc100d.dll
 0004:000011f0       __imp_?WriteProfileBinary@CWinApp@@UAEHPBD0PAEI@Z 004d01f0     mfc100d:mfc100d.dll
 0004:000011f4       __imp_?InitLibId@CWinApp@@UAEXXZ 004d01f4     mfc100d:mfc100d.dll
 0004:000011f8       __imp_?Register@CWinApp@@UAEHXZ 004d01f8     mfc100d:mfc100d.dll
 0004:000011fc       __imp_?Unregister@CWinApp@@UAEHXZ 004d01fc     mfc100d:mfc100d.dll
 0004:00001200       __imp_?OpenDocumentFile@CWinApp@@UAEPAVCDocument@@PBDH@Z 004d0200     mfc100d:mfc100d.dll
 0004:00001204       __imp_?OpenDocumentFile@CWinApp@@UAEPAVCDocument@@PBD@Z 004d0204     mfc100d:mfc100d.dll
 0004:00001208       __imp_?AddToRecentFileList@CWinApp@@UAEXPBD@Z 004d0208     mfc100d:mfc100d.dll
 0004:0000120c       __imp_?InitApplication@CWinApp@@UAEHXZ 004d020c     mfc100d:mfc100d.dll
 0004:00001210       __imp_?SaveAllModified@CWinApp@@UAEHXZ 004d0210     mfc100d:mfc100d.dll
 0004:00001214       __imp_?DoMessageBox@CWinApp@@UAEHPBDII@Z 004d0214     mfc100d:mfc100d.dll
 0004:00001218       __imp_?DoWaitCursor@CWinApp@@UAEXH@Z 004d0218     mfc100d:mfc100d.dll
 0004:0000121c       __imp_?OnDDECommand@CWinApp@@UAEHPAD@Z 004d021c     mfc100d:mfc100d.dll
 0004:00001220       __imp_?WinHelpA@CWinApp@@UAEXKI@Z 004d0220     mfc100d:mfc100d.dll
 0004:00001224       __imp_?HtmlHelpA@CWinApp@@UAEXKI@Z 004d0224     mfc100d:mfc100d.dll
 0004:00001228       __imp_?WinHelpInternal@CWinApp@@UAEXKI@Z 004d0228     mfc100d:mfc100d.dll
 0004:0000122c       __imp_?RegisterWithRestartManager@CWinApp@@UAEJPB_WKP6GKPAX@Z1KK@Z 004d022c     mfc100d:mfc100d.dll
 0004:00001230       __imp_?RegisterWithRestartManager@CWinApp@@UAEJHABV?$CStringT@DV?$StrTraitMFC_DLL@DV?$ChTraitsCRT@D@ATL@@@@@ATL@@@Z 004d0230     mfc100d:mfc100d.dll
 0004:00001234       __imp_?ApplicationRecoveryCallback@CWinApp@@UAEKPAX@Z 004d0234     mfc100d:mfc100d.dll
 0004:00001238       __imp_?GetDataRecoveryHandler@CWinApp@@UAEPAVCDataRecoveryHandler@@XZ 004d0238     mfc100d:mfc100d.dll
 0004:0000123c       __imp_?IsTaskbarInteractionEnabled@CWinApp@@UAEHXZ 004d023c     mfc100d:mfc100d.dll
 0004:00001240       __imp_?RestartInstance@CWinApp@@UAEHXZ 004d0240     mfc100d:mfc100d.dll
 0004:00001244       __imp_?LoadAppLangResourceDLL@CWinApp@@UAEPAUHINSTANCE__@@XZ 004d0244     mfc100d:mfc100d.dll
 0004:00001248       __imp_?LoadSysPolicies@CWinApp@@UAEHXZ 004d0248     mfc100d:mfc100d.dll
 0004:0000124c       __imp_??1CWinApp@@UAE@XZ   004d024c     mfc100d:mfc100d.dll
 0004:00001250       __imp_??1CCommandLineInfo@@UAE@XZ 004d0250     mfc100d:mfc100d.dll
 0004:00001254       __imp_?ProcessShellCommand@CWinApp@@QAEHAAVCCommandLineInfo@@@Z 004d0254     mfc100d:mfc100d.dll
 0004:00001258       __imp_?ParseCommandLine@CWinApp@@QAEXAAVCCommandLineInfo@@@Z 004d0258     mfc100d:mfc100d.dll
 0004:0000125c       __imp_??0CCommandLineInfo@@QAE@XZ 004d025c     mfc100d:mfc100d.dll
 0004:00001260       __imp_?AddDocTemplate@CWinApp@@QAEXPAVCDocTemplate@@@Z 004d0260     mfc100d:mfc100d.dll
 0004:00001264       __imp_??0CSingleDocTemplate@@QAE@IPAUCRuntimeClass@@00@Z 004d0264     mfc100d:mfc100d.dll
 0004:00001268       __imp_?LoadStdProfileSettings@CWinApp@@IAEXI@Z 004d0268     mfc100d:mfc100d.dll
 0004:0000126c       __imp_?AfxEnableControlContainer@@YAXPAVCOccManager@@@Z 004d026c     mfc100d:mfc100d.dll
 0004:00001270       __imp_?ExitInstance@CWinApp@@UAEHXZ 004d0270     mfc100d:mfc100d.dll
 0004:00001274       __imp_??1CSliderCtrl@@UAE@XZ 004d0274     mfc100d:mfc100d.dll
 0004:00001278       __imp_??1CStatic@@UAE@XZ   004d0278     mfc100d:mfc100d.dll
 0004:0000127c       __imp_?SetTicFreq@CSliderCtrl@@QAEXH@Z 004d027c     mfc100d:mfc100d.dll
 0004:00001280       __imp_?SetPos@CSliderCtrl@@QAEXH@Z 004d0280     mfc100d:mfc100d.dll
 0004:00001284       __imp_?SetRange@CSliderCtrl@@QAEXHHH@Z 004d0284     mfc100d:mfc100d.dll
 0004:00001288       __imp_?ShowWindow@CWnd@@QAEHH@Z 004d0288     mfc100d:mfc100d.dll
 0004:0000128c       __imp_??0CSliderCtrl@@QAE@XZ 004d028c     mfc100d:mfc100d.dll
 0004:00001290       __imp_??0CStatic@@QAE@XZ   004d0290     mfc100d:mfc100d.dll
 0004:00001294       __imp_?GetRuntimeClass@CDialog@@UBEPAUCRuntimeClass@@XZ 004d0294     mfc100d:mfc100d.dll
 0004:00001298       __imp_?SetTimer@CWnd@@QAEIIIP6GXPAUHWND__@@IIK@Z@Z 004d0298     mfc100d:mfc100d.dll
 0004:0000129c       __imp_?OnTimer@CWnd@@IAEXI@Z 004d029c     mfc100d:mfc100d.dll
 0004:000012a0       __imp_?UpdateData@CWnd@@QAEHH@Z 004d02a0     mfc100d:mfc100d.dll
 0004:000012a4       __imp_?Find@?$CStringT@DV?$StrTraitMFC_DLL@DV?$ChTraitsCRT@D@ATL@@@@@ATL@@QBEHPBDH@Z 004d02a4     mfc100d:mfc100d.dll
 0004:000012a8       __imp_??0?$CStringT@DV?$StrTraitMFC_DLL@DV?$ChTraitsCRT@D@ATL@@@@@ATL@@QAE@PBD@Z 004d02a8     mfc100d:mfc100d.dll
 0004:000012ac       __imp_?Format@?$CStringT@DV?$StrTraitMFC_DLL@DV?$ChTraitsCRT@D@ATL@@@@@ATL@@QAAXPBDZZ 004d02ac     mfc100d:mfc100d.dll
 0004:000012b0       __imp_??2@YAPAXI@Z         004d02b0     mfc100d:mfc100d.dll
 0004:000012b4       __imp_?AfxMessageBox@@YGHPBDII@Z 004d02b4     mfc100d:mfc100d.dll
 0004:000012b8       __imp_?DDX_Text@@YGXPAVCDataExchange@@HAAV?$CStringT@DV?$StrTraitMFC_DLL@DV?$ChTraitsCRT@D@ATL@@@@@ATL@@@Z 004d02b8     mfc100d:mfc100d.dll
 0004:000012bc       __imp_?DDX_Control@@YGXPAVCDataExchange@@HAAVCWnd@@@Z 004d02bc     mfc100d:mfc100d.dll
 0004:000012c0       __imp_?DDX_Radio@@YGXPAVCDataExchange@@HAAH@Z 004d02c0     mfc100d:mfc100d.dll
 0004:000012c4       __imp_??0?$CStringT@DV?$StrTraitMFC_DLL@DV?$ChTraitsCRT@D@ATL@@@@@ATL@@QAE@ABV01@@Z 004d02c4     mfc100d:mfc100d.dll
 0004:000012c8       __imp_?Append@?$CSimpleStringT@D$00@ATL@@QAEXABV12@@Z 004d02c8     mfc100d:mfc100d.dll
 0004:000012cc       __imp_??4?$CStringT@DV?$StrTraitMFC_DLL@DV?$ChTraitsCRT@D@ATL@@@@@ATL@@QAEAAV01@ABV01@@Z 004d02cc     mfc100d:mfc100d.dll
 0004:000012d0       __imp_?SetWindowTextA@CWnd@@QAEXPBD@Z 004d02d0     mfc100d:mfc100d.dll
 0004:000012d4       __imp_?IsWindowVisible@CWnd@@QBEHXZ 004d02d4     mfc100d:mfc100d.dll
 0004:000012d8       __imp_?KillTimer@CWnd@@QAEHI@Z 004d02d8     mfc100d:mfc100d.dll
 0004:000012dc       __imp_?GetPos@CSliderCtrl@@QBEHXZ 004d02dc     mfc100d:mfc100d.dll
 0004:000012e0       __imp_?ReleaseBuffer@?$CSimpleStringT@D$00@ATL@@QAEXH@Z 004d02e0     mfc100d:mfc100d.dll
 0004:000012e4       __imp_?GetBuffer@?$CSimpleStringT@D$00@ATL@@QAEPADXZ 004d02e4     mfc100d:mfc100d.dll
 0004:000012e8       __imp_?Append@?$CSimpleStringT@D$00@ATL@@QAEXPBD@Z 004d02e8     mfc100d:mfc100d.dll
 0004:000012ec       __imp_?Compare@?$CStringT@DV?$StrTraitMFC_DLL@DV?$ChTraitsCRT@D@ATL@@@@@ATL@@QBEHPBD@Z 004d02ec     mfc100d:mfc100d.dll
 0004:000012f0       __imp_??A?$CSimpleStringT@D$00@ATL@@QBEDH@Z 004d02f0     mfc100d:mfc100d.dll
 0004:000012f4       __imp_?GetLength@?$CSimpleStringT@D$00@ATL@@QBEHXZ 004d02f4     mfc100d:mfc100d.dll
 0004:000012f8       __imp_?DDX_Check@@YGXPAVCDataExchange@@HAAH@Z 004d02f8     mfc100d:mfc100d.dll
 0004:000012fc       __imp_?DDX_Slider@@YGXPAVCDataExchange@@HAAH@Z 004d02fc     mfc100d:mfc100d.dll
 0004:00001300       __imp_?DDV_MinMaxInt@@YGXPAVCDataExchange@@HHH@Z 004d0300     mfc100d:mfc100d.dll
 0004:00001304       __imp_?DDX_Text@@YGXPAVCDataExchange@@HAAH@Z 004d0304     mfc100d:mfc100d.dll
 0004:00001308       __imp_??1CBitmap@@UAE@XZ   004d0308     mfc100d:mfc100d.dll
 0004:0000130c       __imp_??_U@YAPAXI@Z        004d030c     mfc100d:mfc100d.dll
 0004:00001310       __imp_??0CBitmap@@QAE@XZ   004d0310     mfc100d:mfc100d.dll
 0004:00001314       __imp_??_V@YAXPAX@Z        004d0314     mfc100d:mfc100d.dll
 0004:00001318       __imp_?DeleteObject@CGdiObject@@QAEHXZ 004d0318     mfc100d:mfc100d.dll
 0004:0000131c       __imp_??1CClientDC@@UAE@XZ 004d031c     mfc100d:mfc100d.dll
 0004:00001320       __imp_?GetObjectA@CGdiObject@@QBEHHPAX@Z 004d0320     mfc100d:mfc100d.dll
 0004:00001324       __imp_?CreateCompatibleBitmap@CBitmap@@QAEHPAVCDC@@HH@Z 004d0324     mfc100d:mfc100d.dll
 0004:00001328       __imp_??0CClientDC@@QAE@PAVCWnd@@@Z 004d0328     mfc100d:mfc100d.dll
 0004:0000132c       __imp_?MoveWindow@CWnd@@QAEXHHHHH@Z 004d032c     mfc100d:mfc100d.dll
 0004:00001330       __imp_??1CDC@@UAE@XZ       004d0330     mfc100d:mfc100d.dll
 0004:00001334       __imp_??1CPen@@UAE@XZ      004d0334     mfc100d:mfc100d.dll
 0004:00001338       __imp_?LineTo@CDC@@QAEHHH@Z 004d0338     mfc100d:mfc100d.dll
 0004:0000133c       __imp_?MoveTo@CDC@@QAE?AVCPoint@@HH@Z 004d033c     mfc100d:mfc100d.dll
 0004:00001340       __imp_?SelectObject@CDC@@QAEPAVCPen@@PAV2@@Z 004d0340     mfc100d:mfc100d.dll
 0004:00001344       __imp_??0CPen@@QAE@HHK@Z   004d0344     mfc100d:mfc100d.dll
 0004:00001348       __imp_?StretchBlt@CDC@@QAEHHHHHPAV1@HHHHK@Z 004d0348     mfc100d:mfc100d.dll
 0004:0000134c       __imp_?SetViewportExt@CDC@@UAE?AVCSize@@HH@Z 004d034c     mfc100d:mfc100d.dll
 0004:00001350       __imp_?SetViewportOrg@CDC@@UAE?AVCPoint@@HH@Z 004d0350     mfc100d:mfc100d.dll
 0004:00001354       __imp_?SetMapMode@CDC@@UAEHH@Z 004d0354     mfc100d:mfc100d.dll
 0004:00001358       __imp_?SelectObject@CDC@@QAEPAVCBitmap@@PAV2@@Z 004d0358     mfc100d:mfc100d.dll
 0004:0000135c       __imp_?GetBitmap@CBitmap@@QAEHPAUtagBITMAP@@@Z 004d035c     mfc100d:mfc100d.dll
 0004:00001360       __imp_?CreateCompatibleDC@CDC@@QAEHPAV1@@Z 004d0360     mfc100d:mfc100d.dll
 0004:00001364       __imp_??0CDC@@QAE@XZ       004d0364     mfc100d:mfc100d.dll
 0004:00001368       __imp_?SetBitmapBits@CBitmap@@QAEKKPBX@Z 004d0368     mfc100d:mfc100d.dll
 0004:0000136c       __imp_??4?$CStringT@DV?$StrTraitMFC_DLL@DV?$ChTraitsCRT@D@ATL@@@@@ATL@@QAEAAV01@PBD@Z 004d036c     mfc100d:mfc100d.dll
 0004:00001370       __imp_?AppendFormat@?$CStringT@DV?$StrTraitMFC_DLL@DV?$ChTraitsCRT@D@ATL@@@@@ATL@@QAAXPBDZZ 004d0370     mfc100d:mfc100d.dll
 0004:00001374       __imp_?Concatenate@?$CSimpleStringT@D$00@ATL@@KAXAAV12@PBDH1H@Z 004d0374     mfc100d:mfc100d.dll
 0004:00001378       __imp_??0?$CStringT@DV?$StrTraitMFC_DLL@DV?$ChTraitsCRT@D@ATL@@@@@ATL@@QAE@PAUIAtlStringMgr@1@@Z 004d0378     mfc100d:mfc100d.dll
 0004:0000137c       __imp_?GetManager@?$CStringT@DV?$StrTraitMFC_DLL@DV?$ChTraitsCRT@D@ATL@@@@@ATL@@QBEPAUIAtlStringMgr@2@XZ 004d037c     mfc100d:mfc100d.dll
 0004:00001380       __imp_??1CButton@@UAE@XZ   004d0380     mfc100d:mfc100d.dll
 0004:00001384       __imp_?GetBufferSetLength@?$CSimpleStringT@D$00@ATL@@QAEPADH@Z 004d0384     mfc100d:mfc100d.dll
 0004:00001388       __imp_?AfxAssertFailedLine@@YGHPBDH@Z 004d0388     mfc100d:mfc100d.dll
 0004:0000138c       __imp_?LoadBitmapA@CBitmap@@QAEHI@Z 004d038c     mfc100d:mfc100d.dll
 0004:00001390       __imp_??0CButton@@QAE@XZ   004d0390     mfc100d:mfc100d.dll
 0004:00001394       __imp_?DDV_MinMaxDouble@@YGXPAVCDataExchange@@ABNNN@Z 004d0394     mfc100d:mfc100d.dll
 0004:00001398       __imp_?DDX_Text@@YGXPAVCDataExchange@@HAAN@Z 004d0398     mfc100d:mfc100d.dll
 0004:0000139c       __imp_?DDV_MinMaxLong@@YGXPAVCDataExchange@@JJJ@Z 004d039c     mfc100d:mfc100d.dll
 0004:000013a0       __imp_?DDX_Text@@YGXPAVCDataExchange@@HAAK@Z 004d03a0     mfc100d:mfc100d.dll
 0004:000013a4       __imp_?CheckDlgButton@CWnd@@QAEXHI@Z 004d03a4     mfc100d:mfc100d.dll
 0004:000013a8       __imp_?EnableWindow@CWnd@@QAEHH@Z 004d03a8     mfc100d:mfc100d.dll
 0004:000013ac       __imp_?ProcessWndProcException@CWinApp@@UAEJPAVCException@@PBUtagMSG@@@Z 004d03ac     mfc100d:mfc100d.dll
 0004:000013b0       __imp_?SetBitmap@CStatic@@QAEPAUHBITMAP__@@PAU2@@Z 004d03b0     mfc100d:mfc100d.dll
 0004:000013b4       __imp_??BCBitmap@@QBEPAUHBITMAP__@@XZ 004d03b4     mfc100d:mfc100d.dll
 0004:000013b8       __imp_??1CFileDialog@@UAE@XZ 004d03b8     mfc100d:mfc100d.dll
 0004:000013bc       __imp_?Left@?$CStringT@DV?$StrTraitMFC_DLL@DV?$ChTraitsCRT@D@ATL@@@@@ATL@@QBE?AV12@H@Z 004d03bc     mfc100d:mfc100d.dll
 0004:000013c0       __imp_?AfxGetModuleState@@YGPAVAFX_MODULE_STATE@@XZ 004d03c0     mfc100d:mfc100d.dll
 0004:000013c4       __imp_?DoModal@CFileDialog@@UAEHXZ 004d03c4     mfc100d:mfc100d.dll
 0004:000013c8       __imp_??0CFileDialog@@QAE@HPBD0K0PAVCWnd@@KH@Z 004d03c8     mfc100d:mfc100d.dll
 0004:000013cc       __imp_?GetCheck@CButton@@QBEHXZ 004d03cc     mfc100d:mfc100d.dll
 0004:000013d0       __imp_?StringLength@?$CSimpleStringT@D$00@ATL@@SAHPBD@Z 004d03d0     mfc100d:mfc100d.dll
 0004:000013d4       __imp_?GetThisClass@CDocument@@SGPAUCRuntimeClass@@XZ 004d03d4     mfc100d:mfc100d.dll
 0004:000013d8       __imp_??0CDocument@@QAE@XZ 004d03d8     mfc100d:mfc100d.dll
 0004:000013dc       __imp_?AssertValid@CDocument@@UBEXXZ 004d03dc     mfc100d:mfc100d.dll
 0004:000013e0       __imp_?Dump@CDocument@@UBEXAAVCDumpContext@@@Z 004d03e0     mfc100d:mfc100d.dll
 0004:000013e4       __imp_?OnCmdMsg@CDocument@@UAEHIHPAXPAUAFX_CMDHANDLERINFO@@@Z 004d03e4     mfc100d:mfc100d.dll
 0004:000013e8       __imp_?OnFinalRelease@CDocument@@UAEXXZ 004d03e8     mfc100d:mfc100d.dll
 0004:000013ec       __imp_?GetMessageMap@CDocument@@MBEPBUAFX_MSGMAP@@XZ 004d03ec     mfc100d:mfc100d.dll
 0004:000013f0       __imp_?SetTitle@CDocument@@UAEXPBD@Z 004d03f0     mfc100d:mfc100d.dll
 0004:000013f4       __imp_?SetPathName@CDocument@@UAEXPBDH@Z 004d03f4     mfc100d:mfc100d.dll
 0004:000013f8       __imp_?ClearPathName@CDocument@@UAEXXZ 004d03f8     mfc100d:mfc100d.dll
 0004:000013fc       __imp_?IsModified@CDocument@@UAEHXZ 004d03fc     mfc100d:mfc100d.dll
 0004:00001400       __imp_?SetModifiedFlag@CDocument@@UAEXH@Z 004d0400     mfc100d:mfc100d.dll
 0004:00001404       __imp_?GetFirstViewPosition@CDocument@@UBEPAU__POSITION@@XZ 004d0404     mfc100d:mfc100d.dll
 0004:00001408       __imp_?GetNextView@CDocument@@UBEPAVCView@@AAPAU__POSITION@@@Z 004d0408     mfc100d:mfc100d.dll
 0004:0000140c       __imp_?OnChangedViewList@CDocument@@UAEXXZ 004d040c     mfc100d:mfc100d.dll
 0004:00001410       __imp_?DeleteContents@CDocument@@UAEXXZ 004d0410     mfc100d:mfc100d.dll
 0004:00001414       __imp_?OnOpenDocument@CDocument@@UAEHPBD@Z 004d0414     mfc100d:mfc100d.dll
 0004:00001418       __imp_?OnSaveDocument@CDocument@@UAEHPBD@Z 004d0418     mfc100d:mfc100d.dll
 0004:0000141c       __imp_?OnCloseDocument@CDocument@@UAEXXZ 004d041c     mfc100d:mfc100d.dll
 0004:00001420       __imp_?ReportSaveLoadException@CDocument@@UAEXPBDPAVCException@@HI@Z 004d0420     mfc100d:mfc100d.dll
 0004:00001424       __imp_?GetFile@CDocument@@UAEPAVCFile@@PBDIPAVCFileException@@@Z 004d0424     mfc100d:mfc100d.dll
 0004:00001428       __imp_?ReleaseFile@CDocument@@UAEXPAVCFile@@H@Z 004d0428     mfc100d:mfc100d.dll
 0004:0000142c       __imp_?OnRichPreviewUnload@CDocument@@UAEXXZ 004d042c     mfc100d:mfc100d.dll
 0004:00001430       __imp_?LoadDocumentFromStream@CDocument@@UAEJPAUIStream@@K@Z 004d0430     mfc100d:mfc100d.dll
 0004:00001434       __imp_?GetThumbnail@CDocument@@UAEHIPAPAUHBITMAP__@@PAW4WTS_ALPHATYPE@@@Z 004d0434     mfc100d:mfc100d.dll
 0004:00001438       __imp_?ClearChunkList@CDocument@@UAEXXZ 004d0438     mfc100d:mfc100d.dll
 0004:0000143c       __imp_?SetChunkValue@CDocument@@UAEHPAUIFilterChunkValue@ATL@@@Z 004d043c     mfc100d:mfc100d.dll
 0004:00001440       __imp_?BeginReadChunks@CDocument@@UAEXXZ 004d0440     mfc100d:mfc100d.dll
 0004:00001444       __imp_?ReadNextChunkValue@CDocument@@UAEHPAPAUIFilterChunkValue@ATL@@@Z 004d0444     mfc100d:mfc100d.dll
 0004:00001448       __imp_?RemoveChunk@CDocument@@UAEXABU_GUID@@K@Z 004d0448     mfc100d:mfc100d.dll
 0004:0000144c       __imp_?FindChunk@CDocument@@UAEPAU__POSITION@@ABU_GUID@@K@Z 004d044c     mfc100d:mfc100d.dll
 0004:00001450       __imp_?OnDocumentEvent@CDocument@@UAEXW4DocumentEvent@1@@Z 004d0450     mfc100d:mfc100d.dll
 0004:00001454       __imp_?CanCloseFrame@CDocument@@UAEHPAVCFrameWnd@@@Z 004d0454     mfc100d:mfc100d.dll
 0004:00001458       __imp_?SaveModified@CDocument@@UAEHXZ 004d0458     mfc100d:mfc100d.dll
 0004:0000145c       __imp_?PreCloseFrame@CDocument@@UAEXPAVCFrameWnd@@@Z 004d045c     mfc100d:mfc100d.dll
 0004:00001460       __imp_?DoSave@CDocument@@UAEHPBDH@Z 004d0460     mfc100d:mfc100d.dll
 0004:00001464       __imp_?DoFileSave@CDocument@@UAEHXZ 004d0464     mfc100d:mfc100d.dll
 0004:00001468       __imp_?UpdateFrameCounts@CDocument@@UAEXXZ 004d0468     mfc100d:mfc100d.dll
 0004:0000146c       __imp_?GetDefaultMenu@CDocument@@UAEPAUHMENU__@@XZ 004d046c     mfc100d:mfc100d.dll
 0004:00001470       __imp_?GetDefaultAccelerator@CDocument@@UAEPAUHACCEL__@@XZ 004d0470     mfc100d:mfc100d.dll
 0004:00001474       __imp_?OnIdle@CDocument@@UAEXXZ 004d0474     mfc100d:mfc100d.dll
 0004:00001478       __imp_?OnLoadDocumentFromStream@CDocument@@UAEJPAUIStream@@K@Z 004d0478     mfc100d:mfc100d.dll
 0004:0000147c       __imp_?OnPreviewHandlerQueryFocus@CDocument@@UAEJPAPAUHWND__@@@Z 004d047c     mfc100d:mfc100d.dll
 0004:00001480       __imp_?OnPreviewHandlerTranslateAccelerator@CDocument@@UAEJPAUtagMSG@@@Z 004d0480     mfc100d:mfc100d.dll
 0004:00001484       __imp_?OnCreatePreviewFrame@CDocument@@UAEHXZ 004d0484     mfc100d:mfc100d.dll
 0004:00001488       __imp_?OnUnloadHandler@CDocument@@UAEXXZ 004d0488     mfc100d:mfc100d.dll
 0004:0000148c       __imp_?OnDrawThumbnail@CDocument@@UAEXAAVCDC@@PAUtagRECT@@@Z 004d048c     mfc100d:mfc100d.dll
 0004:00001490       __imp_?Delete@CException@@QAEXXZ 004d0490     mfc100d:mfc100d.dll
 0004:00001494       __imp_?AfxAssertValidObject@@YGXPBVCObject@@PBDH@Z 004d0494     mfc100d:mfc100d.dll
 0004:00001498       __imp_??1CDocument@@UAE@XZ 004d0498     mfc100d:mfc100d.dll
 0004:0000149c       __imp_??1CEdit@@UAE@XZ     004d049c     mfc100d:mfc100d.dll
 0004:000014a0       __imp_?SetDlgItemInt@CWnd@@QAEXHIH@Z 004d04a0     mfc100d:mfc100d.dll
 0004:000014a4       __imp_??0CEdit@@QAE@XZ     004d04a4     mfc100d:mfc100d.dll
 0004:000014a8       __imp_?InvokeHelper@CWnd@@QAAXJGGPAXPBEZZ 004d04a8     mfc100d:mfc100d.dll
 0004:000014ac       __imp_?SetProperty@CWnd@@QAAXJGZZ 004d04ac     mfc100d:mfc100d.dll
 0004:000014b0       __imp_?AfxThrowOleException@@YGXJ@Z 004d04b0     mfc100d:mfc100d.dll
 0004:000014b4       __imp_?AfxThrowMemoryException@@YGXXZ 004d04b4     mfc100d:mfc100d.dll
 0004:000014b8       __imp_??1CListBox@@UAE@XZ  004d04b8     mfc100d:mfc100d.dll
 0004:000014bc       __imp_??0CListBox@@QAE@XZ  004d04bc     mfc100d:mfc100d.dll
 0004:000014c0       __imp_?DDX_LBIndex@@YGXPAVCDataExchange@@HAAH@Z 004d04c0     mfc100d:mfc100d.dll
 0004:000014c4       __imp_??1CFile@@UAE@XZ     004d04c4     mfc100d:mfc100d.dll
 0004:000014c8       __imp_?Close@CStdioFile@@UAEXXZ 004d04c8     mfc100d:mfc100d.dll
 0004:000014cc       __imp_?AddString@CListBox@@QAEHPBD@Z 004d04cc     mfc100d:mfc100d.dll
 0004:000014d0       __imp_??1CStdioFile@@UAE@XZ 004d04d0     mfc100d:mfc100d.dll
 0004:000014d4       __imp_?InsertString@CListBox@@QAEHHPBD@Z 004d04d4     mfc100d:mfc100d.dll
 0004:000014d8       __imp_?Right@?$CStringT@DV?$StrTraitMFC_DLL@DV?$ChTraitsCRT@D@ATL@@@@@ATL@@QBE?AV12@H@Z 004d04d8     mfc100d:mfc100d.dll
 0004:000014dc       __imp_?Trim@?$CStringT@DV?$StrTraitMFC_DLL@DV?$ChTraitsCRT@D@ATL@@@@@ATL@@QAEAAV12@XZ 004d04dc     mfc100d:mfc100d.dll
 0004:000014e0       __imp_?ReadString@CStdioFile@@UAEHAAV?$CStringT@DV?$StrTraitMFC_DLL@DV?$ChTraitsCRT@D@ATL@@@@@ATL@@@Z 004d04e0     mfc100d:mfc100d.dll
 0004:000014e4       __imp_?GetCount@CListBox@@QBEHXZ 004d04e4     mfc100d:mfc100d.dll
 0004:000014e8       __imp_??0CStdioFile@@QAE@PBDI@Z 004d04e8     mfc100d:mfc100d.dll
 0004:000014ec       __imp_?GetFileName@CFileDialog@@QBE?AV?$CStringT@DV?$StrTraitMFC_DLL@DV?$ChTraitsCRT@D@ATL@@@@@ATL@@XZ 004d04ec     mfc100d:mfc100d.dll
 0004:000014f0       __imp_?ResetContent@CListBox@@QAEXXZ 004d04f0     mfc100d:mfc100d.dll
 0004:000014f4       __imp_??0CFile@@QAE@XZ     004d04f4     mfc100d:mfc100d.dll
 0004:000014f8       __imp_?MakeLower@?$CStringT@DV?$StrTraitMFC_DLL@DV?$ChTraitsCRT@D@ATL@@@@@ATL@@QAEAAV12@XZ 004d04f8     mfc100d:mfc100d.dll
 0004:000014fc       __imp_?GetText@CListBox@@QBEXHAAV?$CStringT@DV?$StrTraitMFC_DLL@DV?$ChTraitsCRT@D@ATL@@@@@ATL@@@Z 004d04fc     mfc100d:mfc100d.dll
 0004:00001500       __imp_?GetThisClass@CFormView@@SGPAUCRuntimeClass@@XZ 004d0500     mfc100d:mfc100d.dll
 0004:00001504       __imp_?GetThisMessageMap@CFormView@@KGPBUAFX_MSGMAP@@XZ 004d0504     mfc100d:mfc100d.dll
 0004:00001508       __imp_??0CFormView@@IAE@I@Z 004d0508     mfc100d:mfc100d.dll
 0004:0000150c       __imp_?AssertValid@CFormView@@UBEXXZ 004d050c     mfc100d:mfc100d.dll
 0004:00001510       __imp_?Dump@CFormView@@UBEXAAVCDumpContext@@@Z 004d0510     mfc100d:mfc100d.dll
 0004:00001514       __imp_?OnCmdMsg@CView@@UAEHIHPAXPAUAFX_CMDHANDLERINFO@@@Z 004d0514     mfc100d:mfc100d.dll
 0004:00001518       __imp_?Create@CFormView@@MAEHPBD0KABUtagRECT@@PAVCWnd@@IPAUCCreateContext@@@Z 004d0518     mfc100d:mfc100d.dll
 0004:0000151c       __imp_?PreCreateWindow@CView@@MAEHAAUtagCREATESTRUCTA@@@Z 004d051c     mfc100d:mfc100d.dll
 0004:00001520       __imp_?CalcWindowRect@CScrollView@@UAEXPAUtagRECT@@I@Z 004d0520     mfc100d:mfc100d.dll
 0004:00001524       __imp_?GetScrollBarCtrl@CView@@UBEPAVCScrollBar@@H@Z 004d0524     mfc100d:mfc100d.dll
 0004:00001528       __imp_?PreTranslateMessage@CFormView@@MAEHPAUtagMSG@@@Z 004d0528     mfc100d:mfc100d.dll
 0004:0000152c       __imp_?PostNcDestroy@CView@@MAEXXZ 004d052c     mfc100d:mfc100d.dll
 0004:00001530       __imp_?SetOccDialogInfo@CFormView@@MAEHPAU_AFX_OCC_DIALOG_INFO@@@Z 004d0530     mfc100d:mfc100d.dll
 0004:00001534       __imp_?GetOccDialogInfo@CFormView@@MAEPAU_AFX_OCC_DIALOG_INFO@@XZ 004d0534     mfc100d:mfc100d.dll
 0004:00001538       __imp_?IsSelected@CView@@UBEHPBVCObject@@@Z 004d0538     mfc100d:mfc100d.dll
 0004:0000153c       __imp_?OnScroll@CScrollView@@UAEHIIH@Z 004d053c     mfc100d:mfc100d.dll
 0004:00001540       __imp_?OnScrollBy@CScrollView@@UAEHVCSize@@H@Z 004d0540     mfc100d:mfc100d.dll
 0004:00001544       __imp_?OnDragEnter@CView@@UAEKPAVCOleDataObject@@KVCPoint@@@Z 004d0544     mfc100d:mfc100d.dll
 0004:00001548       __imp_?OnDragOver@CView@@UAEKPAVCOleDataObject@@KVCPoint@@@Z 004d0548     mfc100d:mfc100d.dll
 0004:0000154c       __imp_?OnDragLeave@CView@@UAEXXZ 004d054c     mfc100d:mfc100d.dll
 0004:00001550       __imp_?OnDrop@CView@@UAEHPAVCOleDataObject@@KVCPoint@@@Z 004d0550     mfc100d:mfc100d.dll
 0004:00001554       __imp_?OnDropEx@CView@@UAEKPAVCOleDataObject@@KKVCPoint@@@Z 004d0554     mfc100d:mfc100d.dll
 0004:00001558       __imp_?OnDragScroll@CView@@UAEKKVCPoint@@@Z 004d0558     mfc100d:mfc100d.dll
 0004:0000155c       __imp_?OnPrepareDC@CScrollView@@UAEXPAVCDC@@PAUCPrintInfo@@@Z 004d055c     mfc100d:mfc100d.dll
 0004:00001560       __imp_?OnActivateView@CFormView@@MAEXHPAVCView@@0@Z 004d0560     mfc100d:mfc100d.dll
 0004:00001564       __imp_?OnActivateFrame@CFormView@@MAEXIPAVCFrameWnd@@@Z 004d0564     mfc100d:mfc100d.dll
 0004:00001568       __imp_?OnUpdate@CView@@MAEXPAV1@JPAVCObject@@@Z 004d0568     mfc100d:mfc100d.dll
 0004:0000156c       __imp_?OnDraw@CFormView@@MAEXPAVCDC@@@Z 004d056c     mfc100d:mfc100d.dll
 0004:00001570       __imp_?OnPreparePrinting@CView@@MAEHPAUCPrintInfo@@@Z 004d0570     mfc100d:mfc100d.dll
 0004:00001574       __imp_?OnBeginPrinting@CView@@MAEXPAVCDC@@PAUCPrintInfo@@@Z 004d0574     mfc100d:mfc100d.dll
 0004:00001578       __imp_?OnPrint@CView@@MAEXPAVCDC@@PAUCPrintInfo@@@Z 004d0578     mfc100d:mfc100d.dll
 0004:0000157c       __imp_?OnEndPrinting@CView@@MAEXPAVCDC@@PAUCPrintInfo@@@Z 004d057c     mfc100d:mfc100d.dll
 0004:00001580       __imp_?OnEndPrintPreview@CView@@MAEXPAVCDC@@PAUCPrintInfo@@UtagPOINT@@PAVCPreviewView@@@Z 004d0580     mfc100d:mfc100d.dll
 0004:00001584       __imp_?GetWheelScrollDistance@CScrollView@@UAE?AVCSize@@V2@HH@Z 004d0584     mfc100d:mfc100d.dll
 0004:00001588       __imp_?GetAccessibleChild@CWnd@@QAEJUtagVARIANT@@PAPAUIDispatch@@@Z 004d0588     mfc100d:mfc100d.dll
 0004:0000158c       __imp_?GetAccessibleChildCount@CWnd@@QAEJXZ 004d058c     mfc100d:mfc100d.dll
 0004:00001590       __imp_?GetAccessibleName@CWnd@@QAEJUtagVARIANT@@PAPA_W@Z 004d0590     mfc100d:mfc100d.dll
 0004:00001594       __imp_?GetAccessibilityLocation@CWnd@@QAEJUtagVARIANT@@PAJ111@Z 004d0594     mfc100d:mfc100d.dll
 0004:00001598       __imp_?GetAccessibilityHitTest@CWnd@@QAEJJJPAUtagVARIANT@@@Z 004d0598     mfc100d:mfc100d.dll
 0004:0000159c       __imp_?OnInitialUpdate@CFormView@@UAEXXZ 004d059c     mfc100d:mfc100d.dll
 0004:000015a0       __imp_??1CFormView@@UAE@XZ 004d05a0     mfc100d:mfc100d.dll
 0004:000015a4       __imp_?IsIdleMessage@CWinThread@@UAEHPAUtagMSG@@@Z 004d05a4     mfc100d:mfc100d.dll
 0004:000015a8       __imp_?OnIdle@CWinApp@@UAEHJ@Z 004d05a8     mfc100d:mfc100d.dll
 0004:000015ac       __imp_?PumpMessage@CWinThread@@UAEHXZ 004d05ac     mfc100d:mfc100d.dll
 0004:000015b0       __imp_?PreTranslateMessage@CWinThread@@UAEHPAUtagMSG@@@Z 004d05b0     mfc100d:mfc100d.dll
 0004:000015b4       __imp_?Run@CWinApp@@UAEHXZ 004d05b4     mfc100d:mfc100d.dll
 0004:000015b8       __imp_?GetInterfaceMap@CCmdTarget@@MBEPBUAFX_INTERFACEMAP@@XZ 004d05b8     mfc100d:mfc100d.dll
 0004:000015bc       __imp_?GetMessageMap@CWinApp@@MBEPBUAFX_MSGMAP@@XZ 004d05bc     mfc100d:mfc100d.dll
 0004:000015c0       __imp_?OnFinalRelease@CCmdTarget@@UAEXXZ 004d05c0     mfc100d:mfc100d.dll
 0004:000015c4       __imp_?Dump@CWinApp@@UBEXAAVCDumpContext@@@Z 004d05c4     mfc100d:mfc100d.dll
 0004:000015c8       __imp_?AssertValid@CWinApp@@UBEXXZ 004d05c8     mfc100d:mfc100d.dll
 0004:000015cc       __imp_?GetRuntimeClass@CWinApp@@UBEPAUCRuntimeClass@@XZ 004d05cc     mfc100d:mfc100d.dll
 0004:000015d0       __imp_??0CWinApp@@QAE@PBD@Z 004d05d0     mfc100d:mfc100d.dll
 0004:000015d4       __imp_?PreCreateWindow@CFrameWnd@@MAEHAAUtagCREATESTRUCTA@@@Z 004d05d4     mfc100d:mfc100d.dll
 0004:000015d8       __imp_??1CFrameWnd@@UAE@XZ 004d05d8     mfc100d:mfc100d.dll
 0004:000015dc       __imp_?OnHideMenuBar@CFrameWnd@@MAEXXZ 004d05dc     mfc100d:mfc100d.dll
 0004:000015e0       __imp_?OnShowMenuBar@CFrameWnd@@MAEXXZ 004d05e0     mfc100d:mfc100d.dll
 0004:000015e4       __imp_?ExitHelpMode@CFrameWnd@@UAEXXZ 004d05e4     mfc100d:mfc100d.dll
 0004:000015e8       __imp_?DelayUpdateFrameMenu@CFrameWnd@@UAEXPAUHMENU__@@@Z 004d05e8     mfc100d:mfc100d.dll
 0004:000015ec       __imp_?GetDefaultAccelerator@CFrameWnd@@UAEPAUHACCEL__@@XZ 004d05ec     mfc100d:mfc100d.dll
 0004:000015f0       __imp_?OnUpdateFrameMenu@CFrameWnd@@UAEXPAUHMENU__@@@Z 004d05f0     mfc100d:mfc100d.dll
 0004:000015f4       __imp_?OnUpdateFrameTitle@CFrameWnd@@UAEXH@Z 004d05f4     mfc100d:mfc100d.dll
 0004:000015f8       __imp_?OnCreateClient@CFrameWnd@@MAEHPAUtagCREATESTRUCTA@@PAUCCreateContext@@@Z 004d05f8     mfc100d:mfc100d.dll
 0004:000015fc       __imp_?NegotiateBorderSpace@CFrameWnd@@UAEHIPAUtagRECT@@@Z 004d05fc     mfc100d:mfc100d.dll
 0004:00001600       __imp_?GetMessageBar@CFrameWnd@@UAEPAVCWnd@@XZ 004d0600     mfc100d:mfc100d.dll
 0004:00001604       __imp_?OnSetPreviewMode@CFrameWnd@@UAEXHPAUCPrintPreviewState@@@Z 004d0604     mfc100d:mfc100d.dll
 0004:00001608       __imp_?GetMenuBarState@CFrameWnd@@UBEKXZ 004d0608     mfc100d:mfc100d.dll
 0004:0000160c       __imp_?SetMenuBarState@CFrameWnd@@UAEHK@Z 004d060c     mfc100d:mfc100d.dll
 0004:00001610       __imp_?GetMenuBarVisibility@CFrameWnd@@UBEKXZ 004d0610     mfc100d:mfc100d.dll
 0004:00001614       __imp_?SetMenuBarVisibility@CFrameWnd@@UAEXK@Z 004d0614     mfc100d:mfc100d.dll
 0004:00001618       __imp_?ActivateFrame@CFrameWnd@@UAEXH@Z 004d0618     mfc100d:mfc100d.dll
 0004:0000161c       __imp_?RecalcLayout@CFrameWnd@@UAEXH@Z 004d061c     mfc100d:mfc100d.dll
 0004:00001620       __imp_?GetMessageString@CFrameWnd@@UBEXIAAV?$CStringT@DV?$StrTraitMFC_DLL@DV?$ChTraitsCRT@D@ATL@@@@@ATL@@@Z 004d0620     mfc100d:mfc100d.dll
 0004:00001624       __imp_?GetActiveFrame@CFrameWnd@@UAEPAV1@XZ 004d0624     mfc100d:mfc100d.dll
 0004:00001628       __imp_?GetActiveDocument@CFrameWnd@@UAEPAVCDocument@@XZ 004d0628     mfc100d:mfc100d.dll
 0004:0000162c       __imp_?LoadFrame@CFrameWnd@@UAEHIKPAVCWnd@@PAUCCreateContext@@@Z 004d062c     mfc100d:mfc100d.dll
 0004:00001630       __imp_?Create@CFrameWnd@@UAEHPBD0KABUtagRECT@@PAVCWnd@@0KPAUCCreateContext@@@Z 004d0630     mfc100d:mfc100d.dll
 0004:00001634       __imp_?IsFrameWnd@CFrameWnd@@UBEHXZ 004d0634     mfc100d:mfc100d.dll
 0004:00001638       __imp_?PostNcDestroy@CFrameWnd@@MAEXXZ 004d0638     mfc100d:mfc100d.dll
 0004:0000163c       __imp_?PreTranslateMessage@CFrameWnd@@UAEHPAUtagMSG@@@Z 004d063c     mfc100d:mfc100d.dll
 0004:00001640       __imp_?EndModalState@CFrameWnd@@UAEXXZ 004d0640     mfc100d:mfc100d.dll
 0004:00001644       __imp_?BeginModalState@CFrameWnd@@UAEXXZ 004d0644     mfc100d:mfc100d.dll
 0004:00001648       __imp_?OnCommand@CFrameWnd@@MAEHIJ@Z 004d0648     mfc100d:mfc100d.dll
 0004:0000164c       __imp_?SetMenu@CFrameWnd@@UAEHPAVCMenu@@@Z 004d064c     mfc100d:mfc100d.dll
 0004:00001650       __imp_?GetMenu@CFrameWnd@@UBEPAVCMenu@@XZ 004d0650     mfc100d:mfc100d.dll
 0004:00001654       __imp_?GetMessageMap@CFrameWnd@@MBEPBUAFX_MSGMAP@@XZ 004d0654     mfc100d:mfc100d.dll
 0004:00001658       __imp_?OnCmdMsg@CFrameWnd@@UAEHIHPAXPAUAFX_CMDHANDLERINFO@@@Z 004d0658     mfc100d:mfc100d.dll
 0004:0000165c       __imp_?Dump@CFrameWnd@@UBEXAAVCDumpContext@@@Z 004d065c     mfc100d:mfc100d.dll
 0004:00001660       __imp_?AssertValid@CFrameWnd@@UBEXXZ 004d0660     mfc100d:mfc100d.dll
 0004:00001664       __imp_??0CFrameWnd@@QAE@XZ 004d0664     mfc100d:mfc100d.dll
 0004:00001668       __imp_?GetThisClass@CFrameWnd@@SGPAUCRuntimeClass@@XZ 004d0668     mfc100d:mfc100d.dll
 0004:0000166c       __imp_?GetThisMessageMap@CDialog@@KGPBUAFX_MSGMAP@@XZ 004d066c     mfc100d:mfc100d.dll
 0004:00001670       __imp_??1CDialog@@UAE@XZ   004d0670     mfc100d:mfc100d.dll
 0004:00001674       __imp_?PreInitDialog@CDialog@@MAEXXZ 004d0674     mfc100d:mfc100d.dll
 0004:00001678       __imp_?OnCancel@CDialog@@MAEXXZ 004d0678     mfc100d:mfc100d.dll
 0004:0000167c       __imp_?OnOK@CDialog@@MAEXXZ 004d067c     mfc100d:mfc100d.dll
 0004:00001680       __imp_?OnSetFont@CDialog@@UAEXPAVCFont@@@Z 004d0680     mfc100d:mfc100d.dll
 0004:00001684       __imp_?OnInitDialog@CDialog@@UAEHXZ 004d0684     mfc100d:mfc100d.dll
 0004:00001688       __imp_?DoModal@CDialog@@UAEHXZ 004d0688     mfc100d:mfc100d.dll
 0004:0000168c       __imp_?CreateIndirect@CDialog@@UAEHPBUDLGTEMPLATE@@PAVCWnd@@PAX@Z 004d068c     mfc100d:mfc100d.dll
 0004:00001690       __imp_?CreateIndirect@CDialog@@UAEHPAXPAVCWnd@@@Z 004d0690     mfc100d:mfc100d.dll
 0004:00001694       __imp_?Create@CDialog@@UAEHPBDPAVCWnd@@@Z 004d0694     mfc100d:mfc100d.dll
 0004:00001698       __imp_?Create@CDialog@@UAEHIPAVCWnd@@@Z 004d0698     mfc100d:mfc100d.dll
 0004:0000169c       __imp_?GetOccDialogInfo@CDialog@@MAEPAU_AFX_OCC_DIALOG_INFO@@XZ 004d069c     mfc100d:mfc100d.dll
 0004:000016a0       __imp_?SetOccDialogInfo@CDialog@@MAEHPAU_AFX_OCC_DIALOG_INFO@@@Z 004d06a0     mfc100d:mfc100d.dll
 0004:000016a4       __imp_?CheckAutoCenter@CDialog@@UAEHXZ 004d06a4     mfc100d:mfc100d.dll
 0004:000016a8       __imp_?PreTranslateMessage@CDialog@@UAEHPAUtagMSG@@@Z 004d06a8     mfc100d:mfc100d.dll
 0004:000016ac       __imp_?Create@CWnd@@UAEHPBD0KABUtagRECT@@PAV1@IPAUCCreateContext@@@Z 004d06ac     mfc100d:mfc100d.dll
 0004:000016b0       __imp_?OnCmdMsg@CDialog@@UAEHIHPAXPAUAFX_CMDHANDLERINFO@@@Z 004d06b0     mfc100d:mfc100d.dll
 0004:000016b4       __imp_?Dump@CDialog@@UBEXAAVCDumpContext@@@Z 004d06b4     mfc100d:mfc100d.dll
 0004:000016b8       __imp_?AssertValid@CDialog@@UBEXXZ 004d06b8     mfc100d:mfc100d.dll
 0004:000016bc       __imp_??0CDialog@@QAE@IPAVCWnd@@@Z 004d06bc     mfc100d:mfc100d.dll
 0004:000016c0       __imp_?GetThisClass@CDialog@@SGPAUCRuntimeClass@@XZ 004d06c0     mfc100d:mfc100d.dll
 0004:000016c4       __imp_??B?$CSimpleStringT@D$00@ATL@@QBEPBDXZ 004d06c4     mfc100d:mfc100d.dll
 0004:000016c8       __imp_??1?$CStringT@DV?$StrTraitMFC_DLL@DV?$ChTraitsCRT@D@ATL@@@@@ATL@@QAE@XZ 004d06c8     mfc100d:mfc100d.dll
 0004:000016cc       __imp_??0?$CStringT@DV?$StrTraitMFC_DLL@DV?$ChTraitsCRT@D@ATL@@@@@ATL@@QAE@XZ 004d06cc     mfc100d:mfc100d.dll
 0004:000016d0       __imp_?GetThisClass@CWnd@@SGPAUCRuntimeClass@@XZ 004d06d0     mfc100d:mfc100d.dll
 0004:000016d4       __imp_??1CWnd@@UAE@XZ      004d06d4     mfc100d:mfc100d.dll
 0004:000016d8       __imp_?CreateControl@CWnd@@QAEHABU_GUID@@PBDKABUtagRECT@@PAV1@IPAVCFile@@HPA_W@Z 004d06d8     mfc100d:mfc100d.dll
 0004:000016dc       __imp_?GetOccDialogInfo@CWnd@@MAEPAU_AFX_OCC_DIALOG_INFO@@XZ 004d06dc     mfc100d:mfc100d.dll
 0004:000016e0       __imp_?SetOccDialogInfo@CWnd@@MAEHPAU_AFX_OCC_DIALOG_INFO@@@Z 004d06e0     mfc100d:mfc100d.dll
 0004:000016e4       __imp_?CreateControlSite@CWnd@@MAEHPAVCOleControlContainer@@PAPAVCOleControlSite@@IABU_GUID@@@Z 004d06e4     mfc100d:mfc100d.dll
 0004:000016e8       __imp_?CreateControlContainer@CWnd@@MAEHPAPAVCOleControlContainer@@@Z 004d06e8     mfc100d:mfc100d.dll
 0004:000016ec       __imp_?IsFrameWnd@CWnd@@UBEHXZ 004d06ec     mfc100d:mfc100d.dll
 0004:000016f0       __imp_?CheckAutoCenter@CWnd@@UAEHXZ 004d06f0     mfc100d:mfc100d.dll
 0004:000016f4       __imp_?OnGesturePressAndTap@CWnd@@MAEHVCPoint@@J@Z 004d06f4     mfc100d:mfc100d.dll
 0004:000016f8       __imp_?OnGestureTwoFingerTap@CWnd@@MAEHVCPoint@@@Z 004d06f8     mfc100d:mfc100d.dll
 0004:000016fc       __imp_?OnGestureRotate@CWnd@@MAEHVCPoint@@N@Z 004d06fc     mfc100d:mfc100d.dll
 0004:00001700       __imp_?OnGesturePan@CWnd@@MAEHVCPoint@@0@Z 004d0700     mfc100d:mfc100d.dll
 0004:00001704       __imp_?OnGestureZoom@CWnd@@MAEHVCPoint@@J@Z 004d0704     mfc100d:mfc100d.dll
 0004:00001708       __imp_?GetGestureStatus@CWnd@@MAEKVCPoint@@@Z 004d0708     mfc100d:mfc100d.dll
 0004:0000170c       __imp_?OnTouchInput@CWnd@@MAEHVCPoint@@HHPAUtagTOUCHINPUT@@@Z 004d070c     mfc100d:mfc100d.dll
 0004:00001710       __imp_?OnTouchInputs@CWnd@@MAEHIPAUtagTOUCHINPUT@@@Z 004d0710     mfc100d:mfc100d.dll
 0004:00001714       __imp_?OnChildNotify@CWnd@@MAEHIIJPAJ@Z 004d0714     mfc100d:mfc100d.dll
 0004:00001718       __imp_?PostNcDestroy@CWnd@@MAEXXZ 004d0718     mfc100d:mfc100d.dll
 0004:0000171c       __imp_?DefWindowProcA@CWnd@@MAEJIIJ@Z 004d071c     mfc100d:mfc100d.dll
 0004:00001720       __imp_?OnWndMsg@CWnd@@MAEHIIJPAJ@Z 004d0720     mfc100d:mfc100d.dll
 0004:00001724       __imp_?WindowProc@CWnd@@MAEJIIJ@Z 004d0724     mfc100d:mfc100d.dll
 0004:00001728       __imp_?OnAmbientProperty@CWnd@@UAEHPAVCOleControlSite@@JPAUtagVARIANT@@@Z 004d0728     mfc100d:mfc100d.dll
 0004:0000172c       __imp_?PreTranslateMessage@CWnd@@UAEHPAUtagMSG@@@Z 004d072c     mfc100d:mfc100d.dll
 0004:00001730       __imp_?EndModalState@CWnd@@UAEXXZ 004d0730     mfc100d:mfc100d.dll
 0004:00001734       __imp_?BeginModalState@CWnd@@UAEXXZ 004d0734     mfc100d:mfc100d.dll
 0004:00001738       __imp_?DoDataExchange@CWnd@@MAEXPAVCDataExchange@@@Z 004d0738     mfc100d:mfc100d.dll
 0004:0000173c       __imp_?GetSuperWndProcAddr@CWnd@@MAEPAP6GJPAUHWND__@@IIJ@ZXZ 004d073c     mfc100d:mfc100d.dll
 0004:00001740       __imp_?OnNotify@CWnd@@MAEHIJPAJ@Z 004d0740     mfc100d:mfc100d.dll
 0004:00001744       __imp_?OnCommand@CWnd@@MAEHIJ@Z 004d0744     mfc100d:mfc100d.dll
 0004:00001748       __imp_?CreateAccessibleProxy@CWnd@@UAEJIJPAJ@Z 004d0748     mfc100d:mfc100d.dll
 0004:0000174c       __imp_?SetProxy@CWnd@@UAEJPAUIAccessibleProxy@@@Z 004d074c     mfc100d:mfc100d.dll
 0004:00001750       __imp_?put_accValue@CWnd@@UAEJUtagVARIANT@@PA_W@Z 004d0750     mfc100d:mfc100d.dll
 0004:00001754       __imp_?put_accName@CWnd@@UAEJUtagVARIANT@@PA_W@Z 004d0754     mfc100d:mfc100d.dll
 0004:00001758       __imp_?accDoDefaultAction@CWnd@@UAEJUtagVARIANT@@@Z 004d0758     mfc100d:mfc100d.dll
 0004:0000175c       __imp_?accHitTest@CWnd@@UAEJJJPAUtagVARIANT@@@Z 004d075c     mfc100d:mfc100d.dll
 0004:00001760       __imp_?accNavigate@CWnd@@UAEJJUtagVARIANT@@PAU2@@Z 004d0760     mfc100d:mfc100d.dll
 0004:00001764       __imp_?accLocation@CWnd@@UAEJPAJ000UtagVARIANT@@@Z 004d0764     mfc100d:mfc100d.dll
 0004:00001768       __imp_?accSelect@CWnd@@UAEJJUtagVARIANT@@@Z 004d0768     mfc100d:mfc100d.dll
 0004:0000176c       __imp_?get_accDefaultAction@CWnd@@UAEJUtagVARIANT@@PAPA_W@Z 004d076c     mfc100d:mfc100d.dll
 0004:00001770       __imp_?get_accSelection@CWnd@@UAEJPAUtagVARIANT@@@Z 004d0770     mfc100d:mfc100d.dll
 0004:00001774       __imp_?get_accFocus@CWnd@@UAEJPAUtagVARIANT@@@Z 004d0774     mfc100d:mfc100d.dll
 0004:00001778       __imp_?get_accKeyboardShortcut@CWnd@@UAEJUtagVARIANT@@PAPA_W@Z 004d0778     mfc100d:mfc100d.dll
 0004:0000177c       __imp_?get_accHelpTopic@CWnd@@UAEJPAPA_WUtagVARIANT@@PAJ@Z 004d077c     mfc100d:mfc100d.dll
 0004:00001780       __imp_?get_accHelp@CWnd@@UAEJUtagVARIANT@@PAPA_W@Z 004d0780     mfc100d:mfc100d.dll
 0004:00001784       __imp_?get_accState@CWnd@@UAEJUtagVARIANT@@PAU2@@Z 004d0784     mfc100d:mfc100d.dll
 0004:00001788       __imp_?get_accRole@CWnd@@UAEJUtagVARIANT@@PAU2@@Z 004d0788     mfc100d:mfc100d.dll
 0004:0000178c       __imp_?get_accDescription@CWnd@@UAEJUtagVARIANT@@PAPA_W@Z 004d078c     mfc100d:mfc100d.dll
 0004:00001790       __imp_?get_accValue@CWnd@@UAEJUtagVARIANT@@PAPA_W@Z 004d0790     mfc100d:mfc100d.dll
 0004:00001794       __imp_?get_accName@CWnd@@UAEJUtagVARIANT@@PAPA_W@Z 004d0794     mfc100d:mfc100d.dll
 0004:00001798       __imp_?get_accChild@CWnd@@UAEJUtagVARIANT@@PAPAUIDispatch@@@Z 004d0798     mfc100d:mfc100d.dll
 0004:0000179c       __imp_?get_accChildCount@CWnd@@UAEJPAJ@Z 004d079c     mfc100d:mfc100d.dll
 0004:000017a0       __imp_?get_accParent@CWnd@@UAEJPAPAUIDispatch@@@Z 004d07a0     mfc100d:mfc100d.dll
 0004:000017a4       __imp_?EnsureStdObj@CWnd@@UAEJXZ 004d07a4     mfc100d:mfc100d.dll
 0004:000017a8       __imp_?OnDrawIconicThumbnailOrLivePreview@CWnd@@UAEXAAVCDC@@VCRect@@VCSize@@HAAH@Z 004d07a8     mfc100d:mfc100d.dll
 0004:000017ac       __imp_?EndModalLoop@CWnd@@UAEXH@Z 004d07ac     mfc100d:mfc100d.dll
 0004:000017b0       __imp_?ContinueModal@CWnd@@UAEHXZ 004d07b0     mfc100d:mfc100d.dll
 0004:000017b4       __imp_?WinHelpInternal@CWnd@@UAEXKI@Z 004d07b4     mfc100d:mfc100d.dll
 0004:000017b8       __imp_?HtmlHelpA@CWnd@@UAEXKI@Z 004d07b8     mfc100d:mfc100d.dll
 0004:000017bc       __imp_?WinHelpA@CWnd@@UAEXKI@Z 004d07bc     mfc100d:mfc100d.dll
 0004:000017c0       __imp_?GetScrollBarCtrl@CWnd@@UBEPAVCScrollBar@@H@Z 004d07c0     mfc100d:mfc100d.dll
 0004:000017c4       __imp_?OnToolHitTest@CWnd@@UBEHVCPoint@@PAUtagTOOLINFOA@@@Z 004d07c4     mfc100d:mfc100d.dll
 0004:000017c8       __imp_?SetMenu@CWnd@@UAEHPAVCMenu@@@Z 004d07c8     mfc100d:mfc100d.dll
 0004:000017cc       __imp_?GetMenu@CWnd@@UBEPAVCMenu@@XZ 004d07cc     mfc100d:mfc100d.dll
 0004:000017d0       __imp_?CalcWindowRect@CWnd@@UAEXPAUtagRECT@@I@Z 004d07d0     mfc100d:mfc100d.dll
 0004:000017d4       __imp_?PreCreateWindow@CWnd@@UAEHAAUtagCREATESTRUCTA@@@Z 004d07d4     mfc100d:mfc100d.dll
 0004:000017d8       __imp_?DestroyWindow@CWnd@@UAEHXZ 004d07d8     mfc100d:mfc100d.dll
 0004:000017dc       __imp_?CreateEx@CWnd@@UAEHKPBD0KHHHHPAUHWND__@@PAUHMENU__@@PAX@Z 004d07dc     mfc100d:mfc100d.dll
 0004:000017e0       __imp_?CreateEx@CWnd@@UAEHKPBD0KABUtagRECT@@PAV1@IPAX@Z 004d07e0     mfc100d:mfc100d.dll
 0004:000017e4       __imp_?PreSubclassWindow@CWnd@@UAEXXZ 004d07e4     mfc100d:mfc100d.dll
 0004:000017e8       __imp_?GetConnectionHook@CCmdTarget@@MAEPAUIConnectionPoint@@ABU_GUID@@@Z 004d07e8     mfc100d:mfc100d.dll
 0004:000017ec       __imp_?GetExtraConnectionPoints@CCmdTarget@@MAEHPAVCPtrArray@@@Z 004d07ec     mfc100d:mfc100d.dll
 0004:000017f0       __imp_?GetInterfaceHook@CCmdTarget@@UAEPAUIUnknown@@PBX@Z 004d07f0     mfc100d:mfc100d.dll
 0004:000017f4       __imp_?OnCreateAggregates@CCmdTarget@@UAEHXZ 004d07f4     mfc100d:mfc100d.dll
 0004:000017f8       __imp_?GetEventSinkMap@CCmdTarget@@MBEPBUAFX_EVENTSINKMAP@@XZ 004d07f8     mfc100d:mfc100d.dll
 0004:000017fc       __imp_?GetInterfaceMap@CWnd@@MBEPBUAFX_INTERFACEMAP@@XZ 004d07fc     mfc100d:mfc100d.dll
 0004:00001800       __imp_?GetConnectionMap@CCmdTarget@@MBEPBUAFX_CONNECTIONMAP@@XZ 004d0800     mfc100d:mfc100d.dll
 0004:00001804       __imp_?GetDispatchMap@CCmdTarget@@MBEPBUAFX_DISPMAP@@XZ 004d0804     mfc100d:mfc100d.dll
 0004:00001808       __imp_?GetCommandMap@CCmdTarget@@MBEPBUAFX_OLECMDMAP@@XZ 004d0808     mfc100d:mfc100d.dll
 0004:0000180c       __imp_?GetMessageMap@CWnd@@MBEPBUAFX_MSGMAP@@XZ 004d080c     mfc100d:mfc100d.dll
 0004:00001810       __imp_?GetTypeLib@CCmdTarget@@UAEJKPAPAUITypeLib@@@Z 004d0810     mfc100d:mfc100d.dll
 0004:00001814       __imp_?GetTypeLibCache@CCmdTarget@@UAEPAVCTypeLibCache@@XZ 004d0814     mfc100d:mfc100d.dll
 0004:00001818       __imp_?GetTypeInfoCount@CCmdTarget@@UAEIXZ 004d0818     mfc100d:mfc100d.dll
 0004:0000181c       __imp_?GetDispatchIID@CCmdTarget@@UAEHPAU_GUID@@@Z 004d081c     mfc100d:mfc100d.dll
 0004:00001820       __imp_?IsInvokeAllowed@CCmdTarget@@UAEHJ@Z 004d0820     mfc100d:mfc100d.dll
 0004:00001824       __imp_?OnFinalRelease@CWnd@@UAEXXZ 004d0824     mfc100d:mfc100d.dll
 0004:00001828       __imp_?OnCmdMsg@CCmdTarget@@UAEHIHPAXPAUAFX_CMDHANDLERINFO@@@Z 004d0828     mfc100d:mfc100d.dll
 0004:0000182c       __imp_?Dump@CWnd@@UBEXAAVCDumpContext@@@Z 004d082c     mfc100d:mfc100d.dll
 0004:00001830       __imp_?AssertValid@CWnd@@UBEXXZ 004d0830     mfc100d:mfc100d.dll
 0004:00001834       __imp_?Serialize@CObject@@UAEXAAVCArchive@@@Z 004d0834     mfc100d:mfc100d.dll
 0004:00001838       __imp_??0CWnd@@QAE@XZ      004d0838     mfc100d:mfc100d.dll
 0004:0000183c       __imp_??2CObject@@SGPAXI@Z 004d083c     mfc100d:mfc100d.dll
 0004:00001840       __imp_??3CObject@@SGXPAX@Z 004d0840     mfc100d:mfc100d.dll
 0004:00001844       __imp_??3@YAXPAX@Z         004d0844     mfc100d:mfc100d.dll
 0004:00001848       __imp_?AfxWinMain@@YGHPAUHINSTANCE__@@0PADH@Z 004d0848     mfc100d:mfc100d.dll
 0004:0000184c       __imp_?GetDlgItem@CWnd@@QBEPAV1@H@Z 004d084c     mfc100d:mfc100d.dll
 0004:00001850       __imp_?GetPathName@CFileDialog@@QBE?AV?$CStringT@DV?$StrTraitMFC_DLL@DV?$ChTraitsCRT@D@ATL@@@@@ATL@@XZ 004d0850     mfc100d:mfc100d.dll
 0004:00001854       \177mfc100d_NULL_THUNK_DATA 004d0854     mfc100d:mfc100d.dll
 0004:000019cc       __imp__olDaGetDASS@16      004d09cc     oldaapi32:oldaapi32.dll
 0004:000019d0       __imp__olDaSetDataFlow@8   004d09d0     oldaapi32:oldaapi32.dll
 0004:000019d4       __imp__olDaConfig@4        004d09d4     oldaapi32:oldaapi32.dll
 0004:000019d8       __imp__olDaPutSingleValue@20 004d09d8     oldaapi32:oldaapi32.dll
 0004:000019dc       __imp__olDaReleaseDASS@4   004d09dc     oldaapi32:oldaapi32.dll
 0004:000019e0       __imp__olDaTerminate@4     004d09e0     oldaapi32:oldaapi32.dll
 0004:000019e4       __imp__olDaInitialize@8    004d09e4     oldaapi32:oldaapi32.dll
 0004:000019e8       \177oldaapi32_NULL_THUNK_DATA 004d09e8     oldaapi32:oldaapi32.dll

 entry point at        0001:00026770

