 Octopus

 Timestamp is 563a49e6 (Wed Nov 04 13:09:42 2015)

 Preferred load address is 00400000

 Start         Length     Name                   Class
 0001:00000000 00090081H .text                   CODE
 0001:00090090 00002afeH .text$x                 CODE
 0001:00092b90 00001addH .text$yc                CODE
 0001:00094670 000010ceH .text$yd                CODE
 0002:00000000 00000104H .CRT$XCA                DATA
 0002:00000104 00000104H .CRT$XCAA               DATA
 0002:00000208 0000010eH .CRT$XCC                DATA
 0002:00000318 00000186H .CRT$XCL                DATA
 0002:000004a0 0000011cH .CRT$XCU                DATA
 0002:000005bc 00000104H .CRT$XCZ                DATA
 0002:000006c0 00000104H .CRT$XIA                DATA
 0002:000007c4 00000104H .CRT$XIAA               DATA
 0002:000008c8 00000104H .CRT$XIC                DATA
 0002:000009cc 00000104H .CRT$XIY                DATA
 0002:00000ad0 00000104H .CRT$XIZ                DATA
 0002:00000be0 00028f6dH .rdata                  DATA
 0002:00029b50 00000190H .rdata$debug            DATA
 0002:00029ce0 00000dc6H .rdata$r                DATA
 0002:0002aab0 000002abH .rdata$sxdata           DATA
 0002:0002ad5c 00000104H .rtc$IAA                DATA
 0002:0002ae60 00000104H .rtc$IZZ                DATA
 0002:0002af64 00000104H .rtc$TAA                DATA
 0002:0002b068 00000104H .rtc$TZZ                DATA
 0002:0002b170 00001af0H .xdata$x                DATA
 0002:0002cc60 00000104H ATL$__a                 DATA
 0002:0002cd64 00000104H ATL$__z                 DATA
 0002:0002ce68 00000000H .edata                  DATA
 0003:00000000 00001024H .data                   DATA
 0003:00001040 00003288H .bss                    DATA
 0004:00000000 000000b4H .idata$2                DATA
 0004:000000b4 00000014H .idata$3                DATA
 0004:000000c8 00000ca8H .idata$4                DATA
 0004:00000d70 00000ca8H .idata$5                DATA
 0004:00001a18 00000c55H .idata$6                DATA
 0005:00000000 0000092cH .rsrc$01                DATA
 0005:00000930 00004ee3H .rsrc$02                DATA

  Address         Publics by Value              Rva+Base       Lib:Object

 0000:00000000       __except_list              00000000     <absolute>
 0000:00000059       ___safe_se_handler_count   00000059     <absolute>
 0000:00009876       __fltused                  00009876     <absolute>
 0000:00009876       __ldused                   00009876     <absolute>
 0000:00000000       ___ImageBase               00400000     <linker-defined>
 0001:00001390       ?_AfxInitManaged@@YAHXZ    00402390 f i APTMotor.obj
 0001:000013a0       ?CreateObject@CMgmotorctrl1@@SGPAVCObject@@XZ 004023a0 f   APTMotor.obj
 0001:00001420       ?_GetBaseClass@CMgmotorctrl1@@KGPAUCRuntimeClass@@XZ 00402420 f   APTMotor.obj
 0001:00001430       ?GetThisClass@CMgmotorctrl1@@SGPAUCRuntimeClass@@XZ 00402430 f   APTMotor.obj
 0001:00001440       ?GetRuntimeClass@CMgmotorctrl1@@UBEPAUCRuntimeClass@@XZ 00402440 f   APTMotor.obj
 0001:00001480       ??0CMgmotorctrl1@@QAE@XZ   00402480 f i APTMotor.obj
 0001:000014b0       ?Create@CMgmotorctrl1@@UAEHPBD0KABUtagRECT@@PAVCWnd@@IPAUCCreateContext@@@Z 004024b0 f i APTMotor.obj
 0001:00001500       ?GetClsid@CMgmotorctrl1@@QAEABU_GUID@@XZ 00402500 f i APTMotor.obj
 0001:00001520       ??_GCMgmotorctrl1@@UAEPAXI@Z 00402520 f i APTMotor.obj
 0001:00001520       ??_ECMgmotorctrl1@@UAEPAXI@Z 00402520 f i APTMotor.obj
 0001:00001560       ??1CMgmotorctrl1@@UAE@XZ   00402560 f i APTMotor.obj
 0001:00001580       ??0Thank_you@Define_the_symbol__ATL_MIXED@@QAE@XZ 00402580 f i APTMotor.obj
 0001:000015a0       ?one@Thank_you@Define_the_symbol__ATL_MIXED@@UAEXXZ 004025a0 f i APTMotor.obj
 0001:000015b0       ?CreateObject@APT_system@@SGPAVCObject@@XZ 004025b0 f   APTSystem.obj
 0001:00001620       ?_GetBaseClass@APT_system@@KGPAUCRuntimeClass@@XZ 00402620 f   APTSystem.obj
 0001:00001630       ?GetThisClass@APT_system@@SGPAUCRuntimeClass@@XZ 00402630 f   APTSystem.obj
 0001:00001640       ?GetRuntimeClass@APT_system@@UBEPAUCRuntimeClass@@XZ 00402640 f   APTSystem.obj
 0001:00001680       ??0APT_system@@QAE@XZ      00402680 f i APTSystem.obj
 0001:000016b0       ?Create@APT_system@@UAEHPBD0KABUtagRECT@@PAVCWnd@@IPAUCCreateContext@@@Z 004026b0 f i APTSystem.obj
 0001:00001700       ?GetClsid@APT_system@@QAEABU_GUID@@XZ 00402700 f i APTSystem.obj
 0001:00001720       ??_GAPT_system@@UAEPAXI@Z  00402720 f i APTSystem.obj
 0001:00001720       ??_EAPT_system@@UAEPAXI@Z  00402720 f i APTSystem.obj
 0001:00001760       ??1APT_system@@UAE@XZ      00402760 f i APTSystem.obj
 0001:00001780       ??0CPort@@QAE@XZ           00402780 f   cport.obj
 0001:000017b0       ??1CPort@@QAE@XZ           004027b0 f   cport.obj
 0001:000017e0       ?OpenCPort@CPort@@QAE_NXZ  004027e0 f   cport.obj
 0001:000019e0       ?CloseCPort@CPort@@QAE_NXZ 004029e0 f   cport.obj
 0001:00001a30       ?WriteCPort@CPort@@QAE_NXZ 00402a30 f   cport.obj
 0001:00001b10       ?WriteCPortOneByte@CPort@@QAE_NXZ 00402b10 f   cport.obj
 0001:00001be0       ?CheckWrite@CPort@@QAE_NXZ 00402be0 f   cport.obj
 0001:00001c50       ?ReadCPort@CPort@@QAE_NXZ  00402c50 f   cport.obj
 0001:00001d60       ?ReadCPortOneByte@CPort@@QAE_NXZ 00402d60 f   cport.obj
 0001:00001e30       ?CheckRead@CPort@@QAE_NXZ  00402e30 f   cport.obj
 0001:00002060       ?_GetBaseClass@DisplayDialog@@KGPAUCRuntimeClass@@XZ 00403060 f   DisplayDialog.obj
 0001:00002070       ?GetThisClass@DisplayDialog@@SGPAUCRuntimeClass@@XZ 00403070 f   DisplayDialog.obj
 0001:00002080       ?GetRuntimeClass@DisplayDialog@@UBEPAUCRuntimeClass@@XZ 00403080 f   DisplayDialog.obj
 0001:00002090       ??0DisplayDialog@@QAE@PAVCWnd@@@Z 00403090 f   DisplayDialog.obj
 0001:000020c0       ??1DisplayDialog@@UAE@XZ   004030c0 f   DisplayDialog.obj
 0001:000020e0       ?DoDataExchange@DisplayDialog@@MAEXPAVCDataExchange@@@Z 004030e0 f   DisplayDialog.obj
 0001:00002100       ?GetMessageMap@DisplayDialog@@MBEPBUAFX_MSGMAP@@XZ 00403100 f   DisplayDialog.obj
 0001:00002110       ?GetThisMessageMap@DisplayDialog@@KGPBUAFX_MSGMAP@@XZ 00403110 f   DisplayDialog.obj
 0001:00002150       ??_EDisplayDialog@@UAEPAXI@Z 00403150 f i DisplayDialog.obj
 0001:00002150       ??_GDisplayDialog@@UAEPAXI@Z 00403150 f i DisplayDialog.obj
 0001:00002190       ?CreateObject@CMainFrame@@SGPAVCObject@@XZ 00403190 f   MainFrm.obj
 0001:00002210       ?_GetBaseClass@CMainFrame@@KGPAUCRuntimeClass@@XZ 00403210 f   MainFrm.obj
 0001:00002220       ?GetThisClass@CMainFrame@@SGPAUCRuntimeClass@@XZ 00403220 f   MainFrm.obj
 0001:00002230       ?GetRuntimeClass@CMainFrame@@UBEPAUCRuntimeClass@@XZ 00403230 f   MainFrm.obj
 0001:00002240       ??0CMainFrame@@IAE@XZ      00403240 f   MainFrm.obj
 0001:00002260       ??1CMainFrame@@UAE@XZ      00403260 f   MainFrm.obj
 0001:00002280       ?PreCreateWindow@CMainFrame@@UAEHAAUtagCREATESTRUCTA@@@Z 00403280 f   MainFrm.obj
 0001:00002320       ??_ECMainFrame@@UAEPAXI@Z  00403320 f i MainFrm.obj
 0001:00002320       ??_GCMainFrame@@UAEPAXI@Z  00403320 f i MainFrm.obj
 0001:00002360       ??0COctopusApp@@QAE@XZ     00403360 f   Octopus.obj
 0001:00002390       ?InitInstance@COctopusApp@@UAEHXZ 00403390 f   Octopus.obj
 0001:000024c0       ?ExitInstance@COctopusApp@@UAEHXZ 004034c0 f   Octopus.obj
 0001:00002530       ?SupportsRestartManager@CWinApp@@UBEHXZ 00403530 f i Octopus.obj
 0001:00002550       ?SupportsApplicationRecovery@CWinApp@@UBEHXZ 00403550 f i Octopus.obj
 0001:00002570       ?SupportsAutosaveAtRestart@CWinApp@@UBEHXZ 00403570 f i Octopus.obj
 0001:00002590       ?SupportsAutosaveAtInterval@CWinApp@@UBEHXZ 00403590 f i Octopus.obj
 0001:000025b0       ?ReopenPreviousFilesAtRestart@CWinApp@@UBEHXZ 004035b0 f i Octopus.obj
 0001:000025d0       ?RestoreAutosavedFilesAtRestart@CWinApp@@UBEHXZ 004035d0 f i Octopus.obj
 0001:000025f0       ?GetApplicationRestartFlags@CWinApp@@UAEKXZ 004035f0 f i Octopus.obj
 0001:00002600       ?GetApplicationRecoveryParameter@CWinApp@@UAEPAXXZ 00403600 f i Octopus.obj
 0001:00002610       ?GetApplicationRecoveryPingInterval@CWinApp@@UAEKXZ 00403610 f i Octopus.obj
 0001:00002630       ??_GCOctopusApp@@UAEPAXI@Z 00403630 f i Octopus.obj
 0001:00002630       ??_ECOctopusApp@@UAEPAXI@Z 00403630 f i Octopus.obj
 0001:00002670       ??1COctopusApp@@UAE@XZ     00403670 f i Octopus.obj
 0001:00002690       ??0Octopus_LED@@QAE@PAVCWnd@@@Z 00403690 f   Octopus_LED.obj
 0001:00002800       ?DoDataExchange@Octopus_LED@@MAEXPAVCDataExchange@@@Z 00403800 f   Octopus_LED.obj
 0001:000029a0       ?GetMessageMap@Octopus_LED@@MBEPBUAFX_MSGMAP@@XZ 004039a0 f   Octopus_LED.obj
 0001:000029b0       ?GetThisMessageMap@Octopus_LED@@KGPBUAFX_MSGMAP@@XZ 004039b0 f   Octopus_LED.obj
 0001:000029c0       ?OnInitDialog@Octopus_LED@@MAEHXZ 004039c0 f   Octopus_LED.obj
 0001:00002ab0       ??1Octopus_LED@@UAE@XZ     00403ab0 f   Octopus_LED.obj
 0001:00002b80       ?OnCommand@Octopus_LED@@MAEHIJ@Z 00403b80 f   Octopus_LED.obj
 0001:00002bd0       ?LED_On@Octopus_LED@@QAEXM@Z 00403bd0 f   Octopus_LED.obj
 0001:00002c10       ?LED_Off@Octopus_LED@@QAEXXZ 00403c10 f   Octopus_LED.obj
 0001:00002c30       ?Laser_On@Octopus_LED@@QAEXM@Z 00403c30 f   Octopus_LED.obj
 0001:00002c70       ?Laser_Off@Octopus_LED@@QAEXXZ 00403c70 f   Octopus_LED.obj
 0001:00002c90       ?SetLEDIntensity@Octopus_LED@@IAEXM@Z 00403c90 f   Octopus_LED.obj
 0001:00002d40       ?SetLaserIntensity@Octopus_LED@@IAEXM@Z 00403d40 f   Octopus_LED.obj
 0001:00002df0       ?SetFlow@Octopus_LED@@QAEXH@Z 00403df0 f   Octopus_LED.obj
 0001:00002e70       ?OnEnChangeLED@Octopus_LED@@QAEXXZ 00403e70 f   Octopus_LED.obj
 0001:00002ed0       ?OnEnChangeLaser@Octopus_LED@@QAEXXZ 00403ed0 f   Octopus_LED.obj
 0001:00002f30       ?OnNMCustomdrawLaserIntensitySlider@Octopus_LED@@QAEXPAUtagNMHDR@@PAJ@Z 00403f30 f   Octopus_LED.obj
 0001:00002fb0       ?OnNMCustomdrawLEDIntensitySlider@Octopus_LED@@QAEXPAUtagNMHDR@@PAJ@Z 00403fb0 f   Octopus_LED.obj
 0001:00003030       ?OnBnClickedDout1@Octopus_LED@@QAEXXZ 00404030 f   Octopus_LED.obj
 0001:00003090       ?OnBnClickedDout2@Octopus_LED@@QAEXXZ 00404090 f   Octopus_LED.obj
 0001:000030f0       ?OnBnClickedDout3@Octopus_LED@@QAEXXZ 004040f0 f   Octopus_LED.obj
 0001:00003150       ?OnBnClickedDout4@Octopus_LED@@QAEXXZ 00404150 f   Octopus_LED.obj
 0001:000031b0       ?OnBnClickedDout5@Octopus_LED@@QAEXXZ 004041b0 f   Octopus_LED.obj
 0001:00003210       ?OnBnClickedDout6@Octopus_LED@@QAEXXZ 00404210 f   Octopus_LED.obj
 0001:00003270       ?OnBnClickedDout7@Octopus_LED@@QAEXXZ 00404270 f   Octopus_LED.obj
 0001:000032d0       ?OnBnClickedDout8@Octopus_LED@@QAEXXZ 004042d0 f   Octopus_LED.obj
 0001:00003660       ??_EOctopus_LED@@UAEPAXI@Z 00404660 f i Octopus_LED.obj
 0001:00003660       ??_GOctopus_LED@@UAEPAXI@Z 00404660 f i Octopus_LED.obj
 0001:000036a0       ??0CTraceFileAndLineInfo@ATL@@QAE@PBDH@Z 004046a0 f i Octopus_LED.obj
 0001:000036d0       ??RCTraceFileAndLineInfo@ATL@@QBAXPBDZZ 004046d0 f i Octopus_LED.obj
 0001:00003730       ?TraceV@CTrace@ATL@@QBAXPBDHKI0PAD@Z 00404730 f i Octopus_LED.obj
 0001:00003770       ??BCTraceCategory@ATL@@QBEKXZ 00404770 f i Octopus_LED.obj
 0001:00003790       ??0COctopusPictureDisplay@@QAE@PAVCWnd@@GG@Z 00404790 f   OctopusCameraDisplay.obj
 0001:00003b50       ?OnInitDialog@COctopusPictureDisplay@@MAEHXZ 00404b50 f   OctopusCameraDisplay.obj
 0001:00003b70       ?GetMessageMap@COctopusPictureDisplay@@MBEPBUAFX_MSGMAP@@XZ 00404b70 f   OctopusCameraDisplay.obj
 0001:00003b80       ?GetThisMessageMap@COctopusPictureDisplay@@KGPBUAFX_MSGMAP@@XZ 00404b80 f   OctopusCameraDisplay.obj
 0001:00003b90       ?DoDataExchange@COctopusPictureDisplay@@MAEXPAVCDataExchange@@@Z 00404b90 f   OctopusCameraDisplay.obj
 0001:00003bd0       ??1COctopusPictureDisplay@@UAE@XZ 00404bd0 f   OctopusCameraDisplay.obj
 0001:00003df0       ?Create_Bitmap@COctopusPictureDisplay@@QAEXXZ 00404df0 f   OctopusCameraDisplay.obj
 0001:00004040       ?Draw_Bitmap@COctopusPictureDisplay@@IAEXXZ 00405040 f   OctopusCameraDisplay.obj
 0001:00004420       ?Update_Bitmap@COctopusPictureDisplay@@QAEXPAGG@Z 00405420 f   OctopusCameraDisplay.obj
 0001:00004e80       ?BasicAnalysis@COctopusPictureDisplay@@IAEXPAG@Z 00405e80 f   OctopusCameraDisplay.obj
 0001:00004fe0       ?ROIAnalysis@COctopusPictureDisplay@@IAEXPAG@Z 00405fe0 f   OctopusCameraDisplay.obj
 0001:00005310       ?BeadAnalysis@COctopusPictureDisplay@@QAEXPAG@Z 00406310 f   OctopusCameraDisplay.obj
 0001:00005a60       ?gNoise@COctopusPictureDisplay@@QAENNN@Z 00406a60 f   OctopusCameraDisplay.obj
 0001:00005af0       ?Open_A_File@COctopusPictureDisplay@@IAE_NXZ 00406af0 f   OctopusCameraDisplay.obj
 0001:00005d50       ?Close_The_File@COctopusPictureDisplay@@QAEXXZ 00406d50 f   OctopusCameraDisplay.obj
 0001:00005dd0       ?WritePic@COctopusPictureDisplay@@IAEXXZ 00406dd0 f   OctopusCameraDisplay.obj
 0001:00006000       ?UpdateTitle@COctopusPictureDisplay@@IAEXXZ 00407000 f   OctopusCameraDisplay.obj
 0001:00006160       ?ValidateMarkersAndSetROI@COctopusPictureDisplay@@IAEXXZ 00407160 f   OctopusCameraDisplay.obj
 0001:00006440       ?MouseMove@COctopusPictureDisplay@@IAEXVCPoint@@@Z 00407440 f   OctopusCameraDisplay.obj
 0001:000065a0       ?LeftButtonDown@COctopusPictureDisplay@@IAEXVCPoint@@@Z 004075a0 f   OctopusCameraDisplay.obj
 0001:00006610       ?LeftButtonUp@COctopusPictureDisplay@@IAEXVCPoint@@@Z 00407610 f   OctopusCameraDisplay.obj
 0001:00006690       ?OnMouseMove@COctopusPictureDisplay@@IAEXIVCPoint@@@Z 00407690 f   OctopusCameraDisplay.obj
 0001:000066d0       ?OnLButtonUp@COctopusPictureDisplay@@IAEXIVCPoint@@@Z 004076d0 f   OctopusCameraDisplay.obj
 0001:00006700       ?OnLButtonDown@COctopusPictureDisplay@@IAEXIVCPoint@@@Z 00407700 f   OctopusCameraDisplay.obj
 0001:00006730       ?OnRButtonDown@COctopusPictureDisplay@@IAEXIVCPoint@@@Z 00407730 f   OctopusCameraDisplay.obj
 0001:00006760       ?OnCommand@COctopusPictureDisplay@@MAEHIJ@Z 00407760 f   OctopusCameraDisplay.obj
 0001:000067b0       ?expfunc@@YAXPAN0HHPAX@Z   004077b0 f   OctopusCameraDisplay.obj
 0001:00006810       ?Gaussian_2D@@YAXPAN0HHPAX@Z 00407810 f   OctopusCameraDisplay.obj
 0001:000075c0       ??_GCOctopusPictureDisplay@@UAEPAXI@Z 004085c0 f i OctopusCameraDisplay.obj
 0001:000075c0       ??_ECOctopusPictureDisplay@@UAEPAXI@Z 004085c0 f i OctopusCameraDisplay.obj
 0001:00007600       ??HATL@@YA?AV?$CStringT@DV?$StrTraitMFC_DLL@DV?$ChTraitsCRT@D@ATL@@@@@0@ABV10@0@Z 00408600 f i OctopusCameraDisplay.obj
 0001:000076e0       ??0COctopusCamera@@QAE@PAVCWnd@@@Z 004086e0 f   OctopusCameraDlg.obj
 0001:00007b60       ?DoDataExchange@COctopusCamera@@MAEXPAVCDataExchange@@@Z 00408b60 f   OctopusCameraDlg.obj
 0001:00007e20       ?GetMessageMap@COctopusCamera@@MBEPBUAFX_MSGMAP@@XZ 00408e20 f   OctopusCameraDlg.obj
 0001:00007e30       ?GetThisMessageMap@COctopusCamera@@KGPBUAFX_MSGMAP@@XZ 00408e30 f   OctopusCameraDlg.obj
 0001:00007e40       ?OnInitDialog@COctopusCamera@@MAEHXZ 00408e40 f   OctopusCameraDlg.obj
 0001:00007f70       ??1COctopusCamera@@UAE@XZ  00408f70 f   OctopusCameraDlg.obj
 0001:00008170       ?SetExposureTime_Single_ms@COctopusCamera@@QAEXH@Z 00409170 f   OctopusCameraDlg.obj
 0001:000081a0       ?SetExposureTime_Movie_ms@COctopusCamera@@QAEXH@Z 004091a0 f   OctopusCameraDlg.obj
 0001:000081d0       ?SetCameraGain@COctopusCamera@@QAEXH@Z 004091d0 f   OctopusCameraDlg.obj
 0001:00008220       ?SetNKinetics@COctopusCamera@@QAEXH@Z 00409220 f   OctopusCameraDlg.obj
 0001:00008250       ?SetMovieGain@COctopusCamera@@QAEXH@Z 00409250 f   OctopusCameraDlg.obj
 0001:000082a0       ?Opencam@COctopusCamera@@IAEXXZ 004092a0 f   OctopusCameraDlg.obj
 0001:00008420       ?StartPicture@COctopusCamera@@QAEXXZ 00409420 f   OctopusCameraDlg.obj
 0001:000085d0       ?TakePicture@COctopusCamera@@QAEXXZ 004095d0 f   OctopusCameraDlg.obj
 0001:00008680       ?TakeKineticPicture@COctopusCamera@@QAEXXZ 00409680 f   OctopusCameraDlg.obj
 0001:00008710       ?StartMovie@COctopusCamera@@QAEXXZ 00409710 f   OctopusCameraDlg.obj
 0001:000087f0       ?StopCameraThread@COctopusCamera@@QAEXXZ 004097f0 f   OctopusCameraDlg.obj
 0001:00008840       ?SetROI_To_Default@COctopusCamera@@QAEXXZ 00409840 f   OctopusCameraDlg.obj
 0001:000088b0       ?SetROI@COctopusCamera@@IAEXXZ 004098b0 f   OctopusCameraDlg.obj
 0001:000089b0       ?BinChange@COctopusCamera@@IAEXXZ 004099b0 f   OctopusCameraDlg.obj
 0001:00008a10       ?OpenWindow@COctopusCamera@@IAEXXZ 00409a10 f   OctopusCameraDlg.obj
 0001:00008bc0       ?OnKillfocusGeneral@COctopusCamera@@IAEXXZ 00409bc0 f   OctopusCameraDlg.obj
 0001:00008be0       ?OnKillfocusTempTarget@COctopusCamera@@IAEXXZ 00409be0 f   OctopusCameraDlg.obj
 0001:00008c00       ?OnKillfocusManualGain@COctopusCamera@@IAEXXZ 00409c00 f   OctopusCameraDlg.obj
 0001:00008c30       ?OnKillfocusPicturesPerFile@COctopusCamera@@IAEXXZ 00409c30 f   OctopusCameraDlg.obj
 0001:00008c60       ?OnBinning1x1@COctopusCamera@@IAEXXZ 00409c60 f   OctopusCameraDlg.obj
 0001:00008c90       ?OnBinning2x2@COctopusCamera@@IAEXXZ 00409c90 f   OctopusCameraDlg.obj
 0001:00008cc0       ?OnBinning4x4@COctopusCamera@@IAEXXZ 00409cc0 f   OctopusCameraDlg.obj
 0001:00008cf0       ?OnBinning8x8@COctopusCamera@@IAEXXZ 00409cf0 f   OctopusCameraDlg.obj
 0001:00008d20       ?OnVSSPEED_0@COctopusCamera@@IAEXXZ 00409d20 f   OctopusCameraDlg.obj
 0001:00008d40       ?OnVSSPEED_1@COctopusCamera@@IAEXXZ 00409d40 f   OctopusCameraDlg.obj
 0001:00008d60       ?OnVSSPEED_2@COctopusCamera@@IAEXXZ 00409d60 f   OctopusCameraDlg.obj
 0001:00008d80       ?OnVSSPEED_3@COctopusCamera@@IAEXXZ 00409d80 f   OctopusCameraDlg.obj
 0001:00008da0       ?OnVSSPEED_4@COctopusCamera@@IAEXXZ 00409da0 f   OctopusCameraDlg.obj
 0001:00008dc0       ?OnHSSPEED_0@COctopusCamera@@IAEXXZ 00409dc0 f   OctopusCameraDlg.obj
 0001:00008de0       ?OnHSSPEED_1@COctopusCamera@@IAEXXZ 00409de0 f   OctopusCameraDlg.obj
 0001:00008e00       ?OnHSSPEED_2@COctopusCamera@@IAEXXZ 00409e00 f   OctopusCameraDlg.obj
 0001:00008e20       ?OnHSSPEED_3@COctopusCamera@@IAEXXZ 00409e20 f   OctopusCameraDlg.obj
 0001:00008e40       ?OnHSSPEED_4@COctopusCamera@@IAEXXZ 00409e40 f   OctopusCameraDlg.obj
 0001:00008e60       ?OnHSSPEED_5@COctopusCamera@@IAEXXZ 00409e60 f   OctopusCameraDlg.obj
 0001:00008e80       ?OnLMM_0@COctopusCamera@@IAEXXZ 00409e80 f   OctopusCameraDlg.obj
 0001:00008eb0       ?OnLMM_1@COctopusCamera@@IAEXXZ 00409eb0 f   OctopusCameraDlg.obj
 0001:00008ee0       ?OnLMM_2@COctopusCamera@@IAEXXZ 00409ee0 f   OctopusCameraDlg.obj
 0001:00008f10       ?OnLMM_3@COctopusCamera@@IAEXXZ 00409f10 f   OctopusCameraDlg.obj
 0001:00008f40       ?OnPIC_0@COctopusCamera@@IAEXXZ 00409f40 f   OctopusCameraDlg.obj
 0001:00008f70       ?OnPIC_1@COctopusCamera@@IAEXXZ 00409f70 f   OctopusCameraDlg.obj
 0001:00008fa0       ?OnPIC_2@COctopusCamera@@IAEXXZ 00409fa0 f   OctopusCameraDlg.obj
 0001:00008fd0       ?OnGL_0@COctopusCamera@@IAEXXZ 00409fd0 f   OctopusCameraDlg.obj
 0001:00009000       ?OnGL_1@COctopusCamera@@IAEXXZ 0040a000 f   OctopusCameraDlg.obj
 0001:00009040       ?OnGL_2@COctopusCamera@@IAEXXZ 0040a040 f   OctopusCameraDlg.obj
 0001:00009080       ?OnVSSPEED_Report@COctopusCamera@@IAEXXZ 0040a080 f   OctopusCameraDlg.obj
 0001:00009090       ?OnHSSPEED_Report@COctopusCamera@@IAEXXZ 0040a090 f   OctopusCameraDlg.obj
 0001:000090a0       ?OnDisplayGainManual@COctopusCamera@@IAEXXZ 0040a0a0 f   OctopusCameraDlg.obj
 0001:000090d0       ?OnDisplayGainAutomatic@COctopusCamera@@IAEXXZ 0040a0d0 f   OctopusCameraDlg.obj
 0001:00009100       ?OnFileChange@COctopusCamera@@IAEXXZ 0040a100 f   OctopusCameraDlg.obj
 0001:00009130       ?OnFocusChange@COctopusCamera@@IAEXXZ 0040a130 f   OctopusCameraDlg.obj
 0001:00009150       ?StartSaving@COctopusCamera@@QAEXXZ 0040a150 f   OctopusCameraDlg.obj
 0001:000091e0       ?StopSaving@COctopusCamera@@QAEXXZ 0040a1e0 f   OctopusCameraDlg.obj
 0001:00009260       ?FileClose@COctopusCamera@@QAEXXZ 0040a260 f   OctopusCameraDlg.obj
 0001:000092b0       ?OnSetPath@COctopusCamera@@IAEXXZ 0040a2b0 f   OctopusCameraDlg.obj
 0001:00009480       ?OnTimer@COctopusCamera@@IAEXI@Z 0040a480 f   OctopusCameraDlg.obj
 0001:000099a0       ?StartWaitThread@COctopusCamera@@IAEXXZ 0040a9a0 f   OctopusCameraDlg.obj
 0001:00009a00       ?KillWaitThread@COctopusCamera@@IAEXXZ 0040aa00 f   OctopusCameraDlg.obj
 0001:00009aa0       ?FocusThread@@YGKPAX@Z     0040aaa0 f   OctopusCameraDlg.obj
 0001:00009ae0       ?OnBnClickedCasFt@COctopusCamera@@QAEXXZ 0040aae0 f   OctopusCameraDlg.obj
 0001:00009b20       ?OnBnClickedCasTTL@COctopusCamera@@QAEXXZ 0040ab20 f   OctopusCameraDlg.obj
 0001:00009b60       ?OnBnClickedCasAL@COctopusCamera@@QAEXXZ 0040ab60 f   OctopusCameraDlg.obj
 0001:00009ba0       ?OnCommand@COctopusCamera@@MAEHIJ@Z 0040aba0 f   OctopusCameraDlg.obj
 0001:00009bf0       ?EnableDlg@COctopusCamera@@IAEXXZ 0040abf0 f   OctopusCameraDlg.obj
 0001:00009da0       ?DisableDlgMovie@COctopusCamera@@IAEXXZ 0040ada0 f   OctopusCameraDlg.obj
 0001:00009e00       ?DisableDlg@COctopusCamera@@IAEXXZ 0040ae00 f   OctopusCameraDlg.obj
 0001:00009f70       ?OnBnClickedGeneralFocus@COctopusCamera@@QAEXXZ 0040af70 f   OctopusCameraDlg.obj
 0001:00009fd0       ?OnEnChangeFocusEdit@COctopusCamera@@QAEXXZ 0040afd0 f   OctopusCameraDlg.obj
 0001:00009ff0       ?OnEnChangeCasPicturesPerFile@COctopusCamera@@QAEXXZ 0040aff0 f   OctopusCameraDlg.obj
 0001:0000aa50       ??_GCOctopusCamera@@UAEPAXI@Z 0040ba50 f i OctopusCameraDlg.obj
 0001:0000aa50       ??_ECOctopusCamera@@UAEPAXI@Z 0040ba50 f i OctopusCameraDlg.obj
 0001:0000aa90       ??HATL@@YA?AV?$CStringT@DV?$StrTraitMFC_DLL@DV?$ChTraitsCRT@D@ATL@@@@@0@ABV10@PBD@Z 0040ba90 f i OctopusCameraDlg.obj
 0001:0000ab70       ??0COctopusGoodClock@@QAE@XZ 0040bb70 f   OctopusClock.obj
 0001:0000abd0       ??1COctopusGoodClock@@UAE@XZ 0040bbd0 f   OctopusClock.obj
 0001:0000abf0       ?End@COctopusGoodClock@@QBENXZ 0040bbf0 f   OctopusClock.obj
 0001:0000ac80       ??_GCOctopusGoodClock@@UAEPAXI@Z 0040bc80 f i OctopusClock.obj
 0001:0000ac80       ??_ECOctopusGoodClock@@UAEPAXI@Z 0040bc80 f i OctopusClock.obj
 0001:0000acc0       ?CreateObject@COctopusDoc@@SGPAVCObject@@XZ 0040bcc0 f   OctopusDoc.obj
 0001:0000ad40       ?_GetBaseClass@COctopusDoc@@KGPAUCRuntimeClass@@XZ 0040bd40 f   OctopusDoc.obj
 0001:0000ad50       ?GetThisClass@COctopusDoc@@SGPAUCRuntimeClass@@XZ 0040bd50 f   OctopusDoc.obj
 0001:0000ad60       ?GetRuntimeClass@COctopusDoc@@UBEPAUCRuntimeClass@@XZ 0040bd60 f   OctopusDoc.obj
 0001:0000ad70       ??0COctopusDoc@@IAE@XZ     0040bd70 f   OctopusDoc.obj
 0001:0000ad90       ??1COctopusDoc@@UAE@XZ     0040bd90 f   OctopusDoc.obj
 0001:0000adb0       ?OnNewDocument@COctopusDoc@@UAEHXZ 0040bdb0 f   OctopusDoc.obj
 0001:0000ae00       ?GetAdapter@CDocument@@UAEPAUIDocument@ATL@@XZ 0040be00 f i OctopusDoc.obj
 0001:0000af30       ??0CDocumentAdapter@CDocument@@QAE@PAV1@@Z 0040bf30 f i OctopusDoc.obj
 0001:0000af70       ??0IDocument@ATL@@IAE@XZ   0040bf70 f i OctopusDoc.obj
 0001:0000afa0       ?AddRef@IDocument@ATL@@UAEJXZ 0040bfa0 f i OctopusDoc.obj
 0001:0000afc0       ?Release@IDocument@ATL@@UAEJXZ 0040bfc0 f i OctopusDoc.obj
 0001:0000b050       ??_GIDocument@ATL@@UAEPAXI@Z 0040c050 f i OctopusDoc.obj
 0001:0000b050       ??_EIDocument@ATL@@UAEPAXI@Z 0040c050 f i OctopusDoc.obj
 0001:0000b090       ??1IDocument@ATL@@UAE@XZ   0040c090 f i OctopusDoc.obj
 0001:0000b0b0       ?LoadFromStream@CDocumentAdapter@CDocument@@UAEJPAUIStream@@K@Z 0040c0b0 f i OctopusDoc.obj
 0001:0000b190       ?InitializeSearchContent@CDocumentAdapter@CDocument@@UAEXXZ 0040c190 f i OctopusDoc.obj
 0001:0000b220       ?ClearChunkList@CDocumentAdapter@CDocument@@UAEXXZ 0040c220 f i OctopusDoc.obj
 0001:0000b2b0       ?SetChunkValue@CDocumentAdapter@CDocument@@UAEHPAUIFilterChunkValue@ATL@@@Z 0040c2b0 f i OctopusDoc.obj
 0001:0000b340       ?BeginReadChunks@CDocumentAdapter@CDocument@@UAEXXZ 0040c340 f i OctopusDoc.obj
 0001:0000b3d0       ?ReadNextChunkValue@CDocumentAdapter@CDocument@@UAEHPAPAUIFilterChunkValue@ATL@@@Z 0040c3d0 f i OctopusDoc.obj
 0001:0000b460       ?RemoveChunk@CDocumentAdapter@CDocument@@UAEXABU_GUID@@K@Z 0040c460 f i OctopusDoc.obj
 0001:0000b4f0       ?FindChunk@CDocumentAdapter@CDocument@@UAEPAU__POSITION@@ABU_GUID@@K@Z 0040c4f0 f i OctopusDoc.obj
 0001:0000b590       ?GetContainer@CDocumentAdapter@CDocument@@UBEPAXXZ 0040c590 f i OctopusDoc.obj
 0001:0000b5b0       ?GetThumbnail@CDocumentAdapter@CDocument@@UAEHIPAPAUHBITMAP__@@PAW4WTS_ALPHATYPE@@@Z 0040c5b0 f i OctopusDoc.obj
 0001:0000b650       ?OnBeforeRichPreviewFontChanged@CDocument@@UAEXXZ 0040c650 f i OctopusDoc.obj
 0001:0000b660       ?OnRichPreviewFontChanged@CDocument@@UAEXXZ 0040c660 f i OctopusDoc.obj
 0001:0000b670       ?OnRichPreviewTextColorChanged@CDocument@@UAEXXZ 0040c670 f i OctopusDoc.obj
 0001:0000b680       ?OnRichPreviewBackColorChanged@CDocument@@UAEXXZ 0040c680 f i OctopusDoc.obj
 0001:0000b690       ?OnRichPreviewSiteChanged@CDocument@@UAEXXZ 0040c690 f i OctopusDoc.obj
 0001:0000b6a0       ?InitializeSearchContent@CDocument@@UAEXXZ 0040c6a0 f i OctopusDoc.obj
 0001:0000b6e0       ??_ECDocumentAdapter@CDocument@@UAEPAXI@Z 0040c6e0 f i OctopusDoc.obj
 0001:0000b6e0       ??_GCDocumentAdapter@CDocument@@UAEPAXI@Z 0040c6e0 f i OctopusDoc.obj
 0001:0000b720       ??1CDocumentAdapter@CDocument@@UAE@XZ 0040c720 f i OctopusDoc.obj
 0001:0000b7e0       ??_ECOctopusDoc@@UAEPAXI@Z 0040c7e0 f i OctopusDoc.obj
 0001:0000b7e0       ??_GCOctopusDoc@@UAEPAXI@Z 0040c7e0 f i OctopusDoc.obj
 0001:0000b820       ??0COctopusFocus@@QAE@PAVCWnd@@@Z 0040c820 f   OctopusFocus.obj
 0001:0000b9f0       ?OnInitDialog@COctopusFocus@@UAEHXZ 0040c9f0 f   OctopusFocus.obj
 0001:0000ba10       ??1COctopusFocus@@UAE@XZ   0040ca10 f   OctopusFocus.obj
 0001:0000bad0       ?Close@COctopusFocus@@QAEXXZ 0040cad0 f   OctopusFocus.obj
 0001:0000baf0       ?OnFocus@COctopusFocus@@QAEXXZ 0040caf0 f   OctopusFocus.obj
 0001:0000bbf0       ?AutoFocus@COctopusFocus@@QAEXN@Z 0040cbf0 f   OctopusFocus.obj
 0001:0000be10       ?ROIFocus@COctopusFocus@@QAEXN@Z 0040ce10 f   OctopusFocus.obj
 0001:0000c050       ?EndFocus@COctopusFocus@@QAEXXZ 0040d050 f   OctopusFocus.obj
 0001:0000c140       ?OnTimer@COctopusFocus@@QAEXI@Z 0040d140 f   OctopusFocus.obj
 0001:0000c760       ?DoDataExchange@COctopusFocus@@MAEXPAVCDataExchange@@@Z 0040d760 f   OctopusFocus.obj
 0001:0000c7c0       ?GetMessageMap@COctopusFocus@@MBEPBUAFX_MSGMAP@@XZ 0040d7c0 f   OctopusFocus.obj
 0001:0000c7d0       ?GetThisMessageMap@COctopusFocus@@KGPBUAFX_MSGMAP@@XZ 0040d7d0 f   OctopusFocus.obj
 0001:0000c7e0       ?OnKillfocusGeneral@COctopusFocus@@QAEXXZ 0040d7e0 f   OctopusFocus.obj
 0001:0000c800       ?OnCommand@COctopusFocus@@MAEHIJ@Z 0040d800 f   OctopusFocus.obj
 0001:0000cc50       ??_ECOctopusFocus@@UAEPAXI@Z 0040dc50 f i OctopusFocus.obj
 0001:0000cc50       ??_GCOctopusFocus@@UAEPAXI@Z 0040dc50 f i OctopusFocus.obj
 0001:0000cc90       ?GetExposureTime_Single_ms@COctopusCamera@@QAEKXZ 0040dc90 f i OctopusFocus.obj
 0001:0000ccb0       ??0OctopusLaser@@QAE@PAVCWnd@@@Z 0040dcb0 f   OctopusLaser.obj
 0001:0000ce00       ?DoDataExchange@OctopusLaser@@MAEXPAVCDataExchange@@@Z 0040de00 f   OctopusLaser.obj
 0001:0000ce90       ?GetMessageMap@OctopusLaser@@MBEPBUAFX_MSGMAP@@XZ 0040de90 f   OctopusLaser.obj
 0001:0000cea0       ?GetThisMessageMap@OctopusLaser@@KGPBUAFX_MSGMAP@@XZ 0040dea0 f   OctopusLaser.obj
 0001:0000ceb0       ?OnInitDialog@OctopusLaser@@MAEHXZ 0040deb0 f   OctopusLaser.obj
 0001:0000cfe0       ??1OctopusLaser@@UAE@XZ    0040dfe0 f   OctopusLaser.obj
 0001:0000d0a0       ?OnCommand@OctopusLaser@@MAEHIJ@Z 0040e0a0 f   OctopusLaser.obj
 0001:0000d0f0       ?LED_On@OctopusLaser@@QAEXM@Z 0040e0f0 f   OctopusLaser.obj
 0001:0000d130       ?LED_Off@OctopusLaser@@QAEXXZ 0040e130 f   OctopusLaser.obj
 0001:0000d150       ?SetIntensity@OctopusLaser@@IAEXM@Z 0040e150 f   OctopusLaser.obj
 0001:0000d280       ?OnNMCustomdrawLasersSlider@OctopusLaser@@QAEXPAUtagNMHDR@@PAJ@Z 0040e280 f   OctopusLaser.obj
 0001:0000d3b0       ?OnEnKillfocusLaserInput@OctopusLaser@@QAEXXZ 0040e3b0 f   OctopusLaser.obj
 0001:0000d660       ??_EOctopusLaser@@UAEPAXI@Z 0040e660 f i OctopusLaser.obj
 0001:0000d660       ??_GOctopusLaser@@UAEPAXI@Z 0040e660 f i OctopusLaser.obj
 0001:0000d6a0       ??0COctopusLasers@@QAE@PAVCWnd@@@Z 0040e6a0 f   OctopusLasers.obj
 0001:0000d880       ?DoDataExchange@COctopusLasers@@MAEXPAVCDataExchange@@@Z 0040e880 f   OctopusLasers.obj
 0001:0000d960       ?GetMessageMap@COctopusLasers@@MBEPBUAFX_MSGMAP@@XZ 0040e960 f   OctopusLasers.obj
 0001:0000d970       ?GetThisMessageMap@COctopusLasers@@KGPBUAFX_MSGMAP@@XZ 0040e970 f   OctopusLasers.obj
 0001:0000d980       ??1COctopusLasers@@UAE@XZ  0040e980 f   OctopusLasers.obj
 0001:0000da90       ?OnClicked405@COctopusLasers@@QAEXXZ 0040ea90 f   OctopusLasers.obj
 0001:0000dac0       ?OnClicked488@COctopusLasers@@QAEXXZ 0040eac0 f   OctopusLasers.obj
 0001:0000daf0       ?OnClicked561@COctopusLasers@@QAEXXZ 0040eaf0 f   OctopusLasers.obj
 0001:0000db20       ?OnClicked639@COctopusLasers@@QAEXXZ 0040eb20 f   OctopusLasers.obj
 0001:0000db50       ?Laser_639_On@COctopusLasers@@QAEXXZ 0040eb50 f   OctopusLasers.obj
 0001:0000dba0       ?Laser_639_Off@COctopusLasers@@QAEXXZ 0040eba0 f   OctopusLasers.obj
 0001:0000dbf0       ?Laser_405_On@COctopusLasers@@QAEXXZ 0040ebf0 f   OctopusLasers.obj
 0001:0000dc40       ?Laser_405_Off@COctopusLasers@@QAEXXZ 0040ec40 f   OctopusLasers.obj
 0001:0000dc90       ?Laser_488_On@COctopusLasers@@QAEXXZ 0040ec90 f   OctopusLasers.obj
 0001:0000dce0       ?Laser_488_Off@COctopusLasers@@QAEXXZ 0040ece0 f   OctopusLasers.obj
 0001:0000dd30       ?Laser_561_On@COctopusLasers@@QAEXXZ 0040ed30 f   OctopusLasers.obj
 0001:0000dd80       ?Laser_561_Off@COctopusLasers@@QAEXXZ 0040ed80 f   OctopusLasers.obj
 0001:0000ddd0       ?Initialize@COctopusLasers@@QAEXXZ 0040edd0 f   OctopusLasers.obj
 0001:0000df70       ?OnCommand@COctopusLasers@@MAEHIJ@Z 0040ef70 f   OctopusLasers.obj
 0001:0000e200       ??_ECOctopusLasers@@UAEPAXI@Z 0040f200 f i OctopusLasers.obj
 0001:0000e200       ??_GCOctopusLasers@@UAEPAXI@Z 0040f200 f i OctopusLasers.obj
 0001:0000e240       ?SC_Enable@CMgmotorctrl1@@QAEJJ@Z 0040f240 f i OctopusLasers.obj
 0001:0000e290       ?SC_Disable@CMgmotorctrl1@@QAEJJ@Z 0040f290 f i OctopusLasers.obj
 0001:0000e2e0       ?StartCtrl@CMgmotorctrl1@@QAEJXZ 0040f2e0 f i OctopusLasers.obj
 0001:0000e320       ?SC_SetOperatingMode@CMgmotorctrl1@@QAEJJJ@Z 0040f320 f i OctopusLasers.obj
 0001:0000e370       ?SetHWSerialNum@CMgmotorctrl1@@QAEXJ@Z 0040f370 f i OctopusLasers.obj
 0001:0000e3a0       ??0COctopusLog@@QAE@XZ     0040f3a0 f   OctopusLog.obj
 0001:0000e3e0       ??1COctopusLog@@QAE@XZ     0040f3e0 f   OctopusLog.obj
 0001:0000e410       ?Open_File@COctopusLog@@IAE_NXZ 0040f410 f   OctopusLog.obj
 0001:0000e450       ?Write@COctopusLog@@QAEXV?$CStringT@DV?$StrTraitMFC_DLL@DV?$ChTraitsCRT@D@ATL@@@@@ATL@@@Z 0040f450 f   OctopusLog.obj
 0001:0000e630       ?Format@CTime@ATL@@QBE?AV?$CStringT@DV?$StrTraitMFC_DLL@DV?$ChTraitsCRT@D@ATL@@@@@2@PBD@Z 0040f630 f i OctopusLog.obj
 0001:0000e730       ?AtlThrowImpl@ATL@@YGXJ@Z  0040f730 f i OctopusLog.obj
 0001:0000e7a0       ??RCTraceFileAndLineInfo@ATL@@QBAXKIPBDZZ 0040f7a0 f i OctopusLog.obj
 0001:0000e7f0       ??0COctopusObjectivePiezo@@QAE@PAVCWnd@@@Z 0040f7f0 f   OctopusObjectivePiezo.obj
 0001:0000e9e0       ?OnInitDialog@COctopusObjectivePiezo@@UAEHXZ 0040f9e0 f   OctopusObjectivePiezo.obj
 0001:0000ea00       ??1COctopusObjectivePiezo@@UAE@XZ 0040fa00 f   OctopusObjectivePiezo.obj
 0001:0000ead0       ?Initialize@COctopusObjectivePiezo@@QAEHXZ 0040fad0 f   OctopusObjectivePiezo.obj
 0001:0000ec50       ?Close@COctopusObjectivePiezo@@QAEXXZ 0040fc50 f   OctopusObjectivePiezo.obj
 0001:0000ecf0       ?MoveRelZ@COctopusObjectivePiezo@@QAEXN@Z 0040fcf0 f   OctopusObjectivePiezo.obj
 0001:0000ed00       ?MoveUp@COctopusObjectivePiezo@@QAEXXZ 0040fd00 f   OctopusObjectivePiezo.obj
 0001:0000ed30       ?MoveDown@COctopusObjectivePiezo@@QAEXXZ 0040fd30 f   OctopusObjectivePiezo.obj
 0001:0000ed60       ?OnStepSize1@COctopusObjectivePiezo@@QAEXXZ 0040fd60 f   OctopusObjectivePiezo.obj
 0001:0000eda0       ?OnStepSize2@COctopusObjectivePiezo@@QAEXXZ 0040fda0 f   OctopusObjectivePiezo.obj
 0001:0000ede0       ?OnStepSize3@COctopusObjectivePiezo@@QAEXXZ 0040fde0 f   OctopusObjectivePiezo.obj
 0001:0000ee20       ?OnStepSize4@COctopusObjectivePiezo@@QAEXXZ 0040fe20 f   OctopusObjectivePiezo.obj
 0001:0000ee50       ?OnStepSize5@COctopusObjectivePiezo@@QAEXXZ 0040fe50 f   OctopusObjectivePiezo.obj
 0001:0000ee90       ?GetPosition@COctopusObjectivePiezo@@IAENXZ 0040fe90 f   OctopusObjectivePiezo.obj
 0001:0000eeb0       ?UpdatePosition@COctopusObjectivePiezo@@IAEXXZ 0040feb0 f   OctopusObjectivePiezo.obj
 0001:0000eee0       ?ShowPosition@COctopusObjectivePiezo@@IAEXXZ 0040fee0 f   OctopusObjectivePiezo.obj
 0001:0000ef90       ?Center@COctopusObjectivePiezo@@QAEXXZ 0040ff90 f   OctopusObjectivePiezo.obj
 0001:0000efb0       ?OnSave@COctopusObjectivePiezo@@QAEXXZ 0040ffb0 f   OctopusObjectivePiezo.obj
 0001:0000f020       ?OnSaveGoTo@COctopusObjectivePiezo@@QAEXXZ 00410020 f   OctopusObjectivePiezo.obj
 0001:0000f040       ?OnTimer@COctopusObjectivePiezo@@QAEXI@Z 00410040 f   OctopusObjectivePiezo.obj
 0001:0000f100       ?DoDataExchange@COctopusObjectivePiezo@@MAEXPAVCDataExchange@@@Z 00410100 f   OctopusObjectivePiezo.obj
 0001:0000f150       ?GetMessageMap@COctopusObjectivePiezo@@MBEPBUAFX_MSGMAP@@XZ 00410150 f   OctopusObjectivePiezo.obj
 0001:0000f160       ?GetThisMessageMap@COctopusObjectivePiezo@@KGPBUAFX_MSGMAP@@XZ 00410160 f   OctopusObjectivePiezo.obj
 0001:0000f170       ?OnKillfocusGeneral@COctopusObjectivePiezo@@QAEXXZ 00410170 f   OctopusObjectivePiezo.obj
 0001:0000f190       ?OnCommand@COctopusObjectivePiezo@@MAEHIJ@Z 00410190 f   OctopusObjectivePiezo.obj
 0001:0000f450       ??_ECOctopusObjectivePiezo@@UAEPAXI@Z 00410450 f i OctopusObjectivePiezo.obj
 0001:0000f450       ??_GCOctopusObjectivePiezo@@UAEPAXI@Z 00410450 f i OctopusObjectivePiezo.obj
 0001:0000f490       ??0COctopusScope@@QAE@PAVCWnd@@@Z 00410490 f   OctopusScope.obj
 0001:0000f5f0       ?OnInitDialog@COctopusScope@@MAEHXZ 004105f0 f   OctopusScope.obj
 0001:0000f620       ?OnTimer@COctopusScope@@QAEXI@Z 00410620 f   OctopusScope.obj
 0001:0000f690       ?Init@COctopusScope@@IAE_NXZ 00410690 f   OctopusScope.obj
 0001:0000fe60       ?DoDataExchange@COctopusScope@@MAEXPAVCDataExchange@@@Z 00410e60 f   OctopusScope.obj
 0001:0000ff20       ?GetMessageMap@COctopusScope@@MBEPBUAFX_MSGMAP@@XZ 00410f20 f   OctopusScope.obj
 0001:0000ff30       ?GetThisMessageMap@COctopusScope@@KGPBUAFX_MSGMAP@@XZ 00410f30 f   OctopusScope.obj
 0001:0000ff40       ?Close@COctopusScope@@QAEXXZ 00410f40 f   OctopusScope.obj
 0001:0000fff0       ??1COctopusScope@@UAE@XZ   00410ff0 f   OctopusScope.obj
 0001:000100a0       ?Z_StepDown@COctopusScope@@QAEXXZ 004110a0 f   OctopusScope.obj
 0001:00010170       ?Z_StepUp@COctopusScope@@QAEXXZ 00411170 f   OctopusScope.obj
 0001:00010240       ?ObjESC@COctopusScope@@QAEXXZ 00411240 f   OctopusScope.obj
 0001:00010380       ?ObjRTN@COctopusScope@@QAEXXZ 00411380 f   OctopusScope.obj
 0001:00010480       ?OnObjectiveStepSize1@COctopusScope@@QAEXXZ 00411480 f   OctopusScope.obj
 0001:000104c0       ?OnObjectiveStepSize2@COctopusScope@@QAEXXZ 004114c0 f   OctopusScope.obj
 0001:00010500       ?OnObjectiveStepSize3@COctopusScope@@QAEXXZ 00411500 f   OctopusScope.obj
 0001:00010540       ?OnObjectiveStepSize4@COctopusScope@@QAEXXZ 00411540 f   OctopusScope.obj
 0001:00010580       ?GetPosition@COctopusScope@@QAEXXZ 00411580 f   OctopusScope.obj
 0001:00010770       ?DisplayPosition@COctopusScope@@IAEXXZ 00411770 f   OctopusScope.obj
 0001:00010820       ?OnObj_1@COctopusScope@@QAEXXZ 00411820 f   OctopusScope.obj
 0001:00010850       ?OnObj_2@COctopusScope@@QAEXXZ 00411850 f   OctopusScope.obj
 0001:00010880       ?OnObj_3@COctopusScope@@QAEXXZ 00411880 f   OctopusScope.obj
 0001:000108b0       ?OnObj_4@COctopusScope@@QAEXXZ 004118b0 f   OctopusScope.obj
 0001:000108e0       ?OnObj_5@COctopusScope@@QAEXXZ 004118e0 f   OctopusScope.obj
 0001:00010910       ?OnObj_6@COctopusScope@@QAEXXZ 00411910 f   OctopusScope.obj
 0001:00010940       ?OnFW_1@COctopusScope@@QAEXXZ 00411940 f   OctopusScope.obj
 0001:00010970       ?OnFW_2@COctopusScope@@QAEXXZ 00411970 f   OctopusScope.obj
 0001:000109a0       ?OnFW_3@COctopusScope@@QAEXXZ 004119a0 f   OctopusScope.obj
 0001:000109d0       ?OnFW_4@COctopusScope@@QAEXXZ 004119d0 f   OctopusScope.obj
 0001:00010a00       ?OnFW_5@COctopusScope@@QAEXXZ 00411a00 f   OctopusScope.obj
 0001:00010a30       ?OnFW_6@COctopusScope@@QAEXXZ 00411a30 f   OctopusScope.obj
 0001:00010a60       ?OnBFW_1@COctopusScope@@QAEXXZ 00411a60 f   OctopusScope.obj
 0001:00010a90       ?OnBFW_2@COctopusScope@@QAEXXZ 00411a90 f   OctopusScope.obj
 0001:00010ac0       ?OnBFW_3@COctopusScope@@QAEXXZ 00411ac0 f   OctopusScope.obj
 0001:00010af0       ?OnBFW_4@COctopusScope@@QAEXXZ 00411af0 f   OctopusScope.obj
 0001:00010b20       ?OnBFW_5@COctopusScope@@QAEXXZ 00411b20 f   OctopusScope.obj
 0001:00010b50       ?OnBFW_6@COctopusScope@@QAEXXZ 00411b50 f   OctopusScope.obj
 0001:00010b80       ?Objective@COctopusScope@@QAEXH@Z 00411b80 f   OctopusScope.obj
 0001:00010e90       ?GetObj@COctopusScope@@IAEHXZ 00411e90 f   OctopusScope.obj
 0001:00011040       ?GetFW@COctopusScope@@IAEHXZ 00412040 f   OctopusScope.obj
 0001:000111f0       ?GetBFW@COctopusScope@@IAEHXZ 004121f0 f   OctopusScope.obj
 0001:000113a0       ?EpiFilterWheel@COctopusScope@@QAEXH@Z 004123a0 f   OctopusScope.obj
 0001:00011470       ?BrightFieldFilterWheel@COctopusScope@@QAEXH@Z 00412470 f   OctopusScope.obj
 0001:00011540       ?ChangePath@COctopusScope@@QAEXXZ 00412540 f   OctopusScope.obj
 0001:000115c0       ?BrightField@COctopusScope@@QAEXH@Z 004125c0 f   OctopusScope.obj
 0001:00011690       ?OnNMCustomdrawExecute@COctopusScope@@IAEXPAUtagNMHDR@@PAJ@Z 00412690 f   OctopusScope.obj
 0001:000116f0       ?DisplayBFIntensity@COctopusScope@@IAEXH@Z 004126f0 f   OctopusScope.obj
 0001:000117b0       ?WriteScope@COctopusScope@@IAE_NV?$CStringT@DV?$StrTraitMFC_DLL@DV?$ChTraitsCRT@D@ATL@@@@@ATL@@@Z 004127b0 f   OctopusScope.obj
 0001:000118d0       ?ReadScope@COctopusScope@@IAE?AV?$CStringT@DV?$StrTraitMFC_DLL@DV?$ChTraitsCRT@D@ATL@@@@@ATL@@G@Z 004128d0 f   OctopusScope.obj
 0001:000119a0       ?OnCommand@COctopusScope@@MAEHIJ@Z 004129a0 f   OctopusScope.obj
 0001:00012340       ??_ECOctopusScope@@UAEPAXI@Z 00413340 f i OctopusScope.obj
 0001:00012340       ??_GCOctopusScope@@UAEPAXI@Z 00413340 f i OctopusScope.obj
 0001:00012380       ??_GCPort@@QAEPAXI@Z       00413380 f i OctopusScope.obj
 0001:000123c0       ??9ATL@@YA_NABV?$CStringT@DV?$StrTraitMFC_DLL@DV?$ChTraitsCRT@D@ATL@@@@@0@PBD@Z 004133c0 f i OctopusScope.obj
 0001:000123e0       ??9ATL@@YA_NABV?$CStringT@DV?$StrTraitMFC_DLL@DV?$ChTraitsCRT@D@ATL@@@@@0@D@Z 004133e0 f i OctopusScope.obj
 0001:00012430       ??0COctopusScript@@QAE@PAVCWnd@@@Z 00413430 f   OctopusScript.obj
 0001:000125c0       ?DoDataExchange@COctopusScript@@MAEXPAVCDataExchange@@@Z 004135c0 f   OctopusScript.obj
 0001:00012640       ?GetMessageMap@COctopusScript@@MBEPBUAFX_MSGMAP@@XZ 00413640 f   OctopusScript.obj
 0001:00012650       ?GetThisMessageMap@COctopusScript@@KGPBUAFX_MSGMAP@@XZ 00413650 f   OctopusScript.obj
 0001:00012660       ??1COctopusScript@@UAE@XZ  00413660 f   OctopusScript.obj
 0001:00012720       ?OnButtonSeqLoad@COctopusScript@@IAEXXZ 00413720 f   OctopusScript.obj
 0001:00012cb0       ?OnButtonSeqRun@COctopusScript@@IAEXXZ 00413cb0 f   OctopusScript.obj
 0001:00012dc0       ?OnButtonSeqStop@COctopusScript@@IAEXXZ 00413dc0 f   OctopusScript.obj
 0001:00012e10       ?OnTimer@COctopusScript@@IAEXI@Z 00413e10 f   OctopusScript.obj
 0001:00014f70       ??_GCOctopusScript@@UAEPAXI@Z 00415f70 f i OctopusScript.obj
 0001:00014f70       ??_ECOctopusScript@@UAEPAXI@Z 00415f70 f i OctopusScript.obj
 0001:00014fb0       ??0COctopusShutterAndWheel@@QAE@PAVCWnd@@@Z 00415fb0 f   OctopusShutter.obj
 0001:000150e0       ?DoDataExchange@COctopusShutterAndWheel@@MAEXPAVCDataExchange@@@Z 004160e0 f   OctopusShutter.obj
 0001:00015170       ?GetMessageMap@COctopusShutterAndWheel@@MBEPBUAFX_MSGMAP@@XZ 00416170 f   OctopusShutter.obj
 0001:00015180       ?GetThisMessageMap@COctopusShutterAndWheel@@KGPBUAFX_MSGMAP@@XZ 00416180 f   OctopusShutter.obj
 0001:00015190       ?OnInitDialog@COctopusShutterAndWheel@@MAEHXZ 00416190 f   OctopusShutter.obj
 0001:00015250       ??1COctopusShutterAndWheel@@UAE@XZ 00416250 f   OctopusShutter.obj
 0001:00015310       ?OnSnap@COctopusShutterAndWheel@@QAEXXZ 00416310 f   OctopusShutter.obj
 0001:000153c0       ?Loadem@COctopusShutterAndWheel@@IAEXXZ 004163c0 f   OctopusShutter.obj
 0001:000157f0       ?ShutterOpen@COctopusShutterAndWheel@@QAEXXZ 004167f0 f   OctopusShutter.obj
 0001:00015870       ?ShutterPartial@COctopusShutterAndWheel@@QAEXE@Z 00416870 f   OctopusShutter.obj
 0001:00015930       ?ShutterClose@COctopusShutterAndWheel@@QAEXXZ 00416930 f   OctopusShutter.obj
 0001:000159c0       ?Filter@COctopusShutterAndWheel@@QAEXE@Z 004169c0 f   OctopusShutter.obj
 0001:00015a50       ?ShutterReady@COctopusShutterAndWheel@@QAE_NXZ 00416a50 f   OctopusShutter.obj
 0001:00015a80       ?Read@COctopusShutterAndWheel@@IAEKPAXKPAK@Z 00416a80 f   OctopusShutter.obj
 0001:00015ab0       ?SetBaudRate@COctopusShutterAndWheel@@IAEKK@Z 00416ab0 f   OctopusShutter.obj
 0001:00015ae0       ?SetLatencyTimer@COctopusShutterAndWheel@@IAEKE@Z 00416ae0 f   OctopusShutter.obj
 0001:00015b10       ?SetUSBParameters@COctopusShutterAndWheel@@IAEKKK@Z 00416b10 f   OctopusShutter.obj
 0001:00015b40       ?Write@COctopusShutterAndWheel@@IAEKPAXKPAK@Z 00416b40 f   OctopusShutter.obj
 0001:00015b70       ?Open@COctopusShutterAndWheel@@IAEKPAX@Z 00416b70 f   OctopusShutter.obj
 0001:00015ba0       ?OpenEx@COctopusShutterAndWheel@@IAEKPAXK@Z 00416ba0 f   OctopusShutter.obj
 0001:00015bd0       ?ListDevices@COctopusShutterAndWheel@@IAEKPAX0K@Z 00416bd0 f   OctopusShutter.obj
 0001:00015c00       ?Close@COctopusShutterAndWheel@@IAEKXZ 00416c00 f   OctopusShutter.obj
 0001:00015c20       ?ResetDevice@COctopusShutterAndWheel@@IAEKXZ 00416c20 f   OctopusShutter.obj
 0001:00015c40       ?Purge@COctopusShutterAndWheel@@IAEKK@Z 00416c40 f   OctopusShutter.obj
 0001:00015c70       ?SetTimeouts@COctopusShutterAndWheel@@IAEKKK@Z 00416c70 f   OctopusShutter.obj
 0001:00015ca0       ?GetQueueStatus@COctopusShutterAndWheel@@IAEKPAK@Z 00416ca0 f   OctopusShutter.obj
 0001:00015cd0       ?OnCommand@COctopusShutterAndWheel@@MAEHIJ@Z 00416cd0 f   OctopusShutter.obj
 0001:00015d20       ?OnNMCustomdrawExecute@COctopusShutterAndWheel@@QAEXPAUtagNMHDR@@PAJ@Z 00416d20 f   OctopusShutter.obj
 0001:00015d80       ?UpdateShutterVal@COctopusShutterAndWheel@@IAEXXZ 00416d80 f   OctopusShutter.obj
 0001:00015e40       ?OnBnClickedImageJ@COctopusShutterAndWheel@@QAEXXZ 00416e40 f   OctopusShutter.obj
 0001:00015e80       ?OnKillFocusGeneral@COctopusShutterAndWheel@@IAEXXZ 00416e80 f   OctopusShutter.obj
 0001:00015f30       ?OnBnClickedReturnfiltercontrol@COctopusShutterAndWheel@@QAEXXZ 00416f30 f   OctopusShutter.obj
 0001:00016380       ??_ECOctopusShutterAndWheel@@UAEPAXI@Z 00417380 f i OctopusShutter.obj
 0001:00016380       ??_GCOctopusShutterAndWheel@@UAEPAXI@Z 00417380 f i OctopusShutter.obj
 0001:000163c0       ??0COctopusStage545@@QAE@PAVCWnd@@@Z 004173c0 f   OctopusStage545.obj
 0001:000164f0       ?OnTimer@COctopusStage545@@QAEXI@Z 004174f0 f   OctopusStage545.obj
 0001:00016640       ?DoDataExchange@COctopusStage545@@MAEXPAVCDataExchange@@@Z 00417640 f   OctopusStage545.obj
 0001:00016730       ?GetMessageMap@COctopusStage545@@MBEPBUAFX_MSGMAP@@XZ 00417730 f   OctopusStage545.obj
 0001:00016740       ?GetThisMessageMap@COctopusStage545@@KGPBUAFX_MSGMAP@@XZ 00417740 f   OctopusStage545.obj
 0001:00016750       ?OnKillfocusGeneral@COctopusStage545@@QAEXXZ 00417750 f   OctopusStage545.obj
 0001:00016770       ??1COctopusStage545@@UAE@XZ 00417770 f   OctopusStage545.obj
 0001:00016820       ?MoveLeft@COctopusStage545@@QAEXXZ 00417820 f   OctopusStage545.obj
 0001:00016850       ?MoveRight@COctopusStage545@@QAEXXZ 00417850 f   OctopusStage545.obj
 0001:00016880       ?MoveBack@COctopusStage545@@QAEXXZ 00417880 f   OctopusStage545.obj
 0001:000168b0       ?MoveFwd@COctopusStage545@@QAEXXZ 004178b0 f   OctopusStage545.obj
 0001:000168e0       ?MoveUp@COctopusStage545@@QAEXXZ 004178e0 f   OctopusStage545.obj
 0001:00016910       ?MoveDown@COctopusStage545@@QAEXXZ 00417910 f   OctopusStage545.obj
 0001:00016940       ?MoveRelX@COctopusStage545@@QAEXN@Z 00417940 f   OctopusStage545.obj
 0001:00016970       ?MoveRelY@COctopusStage545@@QAEXN@Z 00417970 f   OctopusStage545.obj
 0001:000169a0       ?MoveRelZ@COctopusStage545@@QAEXN@Z 004179a0 f   OctopusStage545.obj
 0001:000169d0       ?OnStepSize1@COctopusStage545@@QAEXXZ 004179d0 f   OctopusStage545.obj
 0001:00016a10       ?OnStepSize2@COctopusStage545@@QAEXXZ 00417a10 f   OctopusStage545.obj
 0001:00016a50       ?OnStepSize3@COctopusStage545@@QAEXXZ 00417a50 f   OctopusStage545.obj
 0001:00016a90       ?OnStepSize4@COctopusStage545@@QAEXXZ 00417a90 f   OctopusStage545.obj
 0001:00016ad0       ?OnStepSize5@COctopusStage545@@QAEXXZ 00417ad0 f   OctopusStage545.obj
 0001:00016b00       ?InitializeStage@COctopusStage545@@QAEHXZ 00417b00 f   OctopusStage545.obj
 0001:00016c60       ?GetPosition@COctopusStage545@@QAEXXZ 00417c60 f   OctopusStage545.obj
 0001:00016cc0       ?Close@COctopusStage545@@QAEXXZ 00417cc0 f   OctopusStage545.obj
 0001:00016d20       ?StageCenter@COctopusStage545@@QAEXXZ 00417d20 f   OctopusStage545.obj
 0001:00016df0       ?OnSave@COctopusStage545@@QAEXXZ 00417df0 f   OctopusStage545.obj
 0001:00016f20       ?OnSaveGoTo@COctopusStage545@@QAEXXZ 00417f20 f   OctopusStage545.obj
 0001:00017000       ?ShowPosition@COctopusStage545@@IAEXXZ 00418000 f   OctopusStage545.obj
 0001:000170b0       ?OnCommand@COctopusStage545@@MAEHIJ@Z 004180b0 f   OctopusStage545.obj
 0001:00017100       ?OnBnClickedButtonGotoxy@COctopusStage545@@QAEXXZ 00418100 f   OctopusStage545.obj
 0001:000177f0       ??_ECOctopusStage545@@UAEPAXI@Z 004187f0 f i OctopusStage545.obj
 0001:000177f0       ??_GCOctopusStage545@@UAEPAXI@Z 004187f0 f i OctopusStage545.obj
 0001:00017830       ?CreateObject@COctopusView@@SGPAVCObject@@XZ 00418830 f   OctopusView.obj
 0001:000178b0       ?_GetBaseClass@COctopusView@@KGPAUCRuntimeClass@@XZ 004188b0 f   OctopusView.obj
 0001:000178c0       ?GetThisClass@COctopusView@@SGPAUCRuntimeClass@@XZ 004188c0 f   OctopusView.obj
 0001:000178d0       ?GetRuntimeClass@COctopusView@@UBEPAUCRuntimeClass@@XZ 004188d0 f   OctopusView.obj
 0001:000178e0       ?GetMessageMap@COctopusView@@MBEPBUAFX_MSGMAP@@XZ 004188e0 f   OctopusView.obj
 0001:000178f0       ?GetThisMessageMap@COctopusView@@KGPBUAFX_MSGMAP@@XZ 004188f0 f   OctopusView.obj
 0001:00017900       ?DoDataExchange@COctopusView@@MAEXPAVCDataExchange@@@Z 00418900 f   OctopusView.obj
 0001:00017920       ??0COctopusView@@IAE@XZ    00418920 f   OctopusView.obj
 0001:00017960       ?OnInitialUpdate@COctopusView@@MAEXXZ 00418960 f   OctopusView.obj
 0001:00017af0       ??1COctopusView@@UAE@XZ    00418af0 f   OctopusView.obj
 0001:00017f70       ?OnOpenAndor@COctopusView@@IAEXXZ 00418f70 f   OctopusView.obj
 0001:000180b0       ?OnOpenScript@COctopusView@@IAEXXZ 004190b0 f   OctopusView.obj
 0001:000181d0       ?OnOpenWheel@COctopusView@@IAEXXZ 004191d0 f   OctopusView.obj
 0001:000183b0       ?OnOpenLED@COctopusView@@IAEXXZ 004193b0 f   OctopusView.obj
 0001:000184d0       ?OnOpenScope@COctopusView@@IAEXXZ 004194d0 f   OctopusView.obj
 0001:000185f0       ?OnOpenStage545@COctopusView@@IAEXXZ 004195f0 f   OctopusView.obj
 0001:000187c0       ?OnOpenPiezo@COctopusView@@IAEXXZ 004197c0 f   OctopusView.obj
 0001:000189b0       ?OnOpenLasers@COctopusView@@IAEXXZ 004199b0 f   OctopusView.obj
 0001:00018b30       ?OnBnClickedStatusOpenFocus@COctopusView@@QAEXXZ 00419b30 f   OctopusView.obj
 0001:00019240       ?get_accChild@CFormView@@UAEJUtagVARIANT@@PAPAUIDispatch@@@Z 0041a240 f i OctopusView.obj
 0001:00019290       ?get_accChildCount@CFormView@@UAEJPAJ@Z 0041a290 f i OctopusView.obj
 0001:000192c0       ?get_accName@CFormView@@UAEJUtagVARIANT@@PAPA_W@Z 0041a2c0 f i OctopusView.obj
 0001:00019310       ?accLocation@CFormView@@UAEJPAJ000UtagVARIANT@@@Z 0041a310 f i OctopusView.obj
 0001:00019370       ?accHitTest@CFormView@@UAEJJJPAUtagVARIANT@@@Z 0041a370 f i OctopusView.obj
 0001:000193a0       ??_ECOctopusView@@UAEPAXI@Z 0041a3a0 f i OctopusView.obj
 0001:000193a0       ??_GCOctopusView@@UAEPAXI@Z 0041a3a0 f i OctopusView.obj
 0001:000193e0       ??0COctopusGlobals@@QAE@XZ 0041a3e0 f i OctopusView.obj
 0001:00019410       ??1COctopusGlobals@@QAE@XZ 0041a410 f i OctopusView.obj
 0001:00019438       _olDaInitialize@8          0041a438 f   oldaapi32:oldaapi32.dll
 0001:0001943e       _olDaTerminate@4           0041a43e f   oldaapi32:oldaapi32.dll
 0001:00019444       _olDaReleaseDASS@4         0041a444 f   oldaapi32:oldaapi32.dll
 0001:0001944a       _olDaPutSingleValue@20     0041a44a f   oldaapi32:oldaapi32.dll
 0001:00019450       _olDaConfig@4              0041a450 f   oldaapi32:oldaapi32.dll
 0001:00019456       _olDaSetDataFlow@8         0041a456 f   oldaapi32:oldaapi32.dll
 0001:0001945c       _olDaGetDASS@16            0041a45c f   oldaapi32:oldaapi32.dll
 0001:00019470       _slevmar_der               0041a470 f   levmar:lm.obj
 0001:0001a630       _slevmar_dif               0041b630 f   levmar:lm.obj
 0001:0001bb50       _dlevmar_der               0041cb50 f   levmar:lm.obj
 0001:0001cc50       _dlevmar_dif               0041dc50 f   levmar:lm.obj
 0001:0001e0d0       _slevmar_trans_mat_mat_mult 0041f0d0 f   levmar:misc.obj
 0001:0001e120       _slevmar_fdif_forw_jac_approx 0041f120 f   levmar:misc.obj
 0001:0001e320       _slevmar_fdif_cent_jac_approx 0041f320 f   levmar:misc.obj
 0001:0001e540       _slevmar_chkjac            0041f540 f   levmar:misc.obj
 0001:0001eca0       _slevmar_covar             0041fca0 f   levmar:misc.obj
 0001:0001ed40       _slevmar_stddev            0041fd40 f   levmar:misc.obj
 0001:0001ed60       _slevmar_corcoef           0041fd60 f   levmar:misc.obj
 0001:0001edb0       _slevmar_R2                0041fdb0 f   levmar:misc.obj
 0001:0001ef00       _slevmar_box_check         0041ff00 f   levmar:misc.obj
 0001:0001ef50       _slevmar_chol              0041ff50 f   levmar:misc.obj
 0001:0001f060       _slevmar_L2nrmxmy          00420060 f   levmar:misc.obj
 0001:0001f500       _dlevmar_trans_mat_mat_mult 00420500 f   levmar:misc.obj
 0001:0001f550       _dlevmar_fdif_forw_jac_approx 00420550 f   levmar:misc.obj
 0001:0001f730       _dlevmar_fdif_cent_jac_approx 00420730 f   levmar:misc.obj
 0001:0001f940       _dlevmar_chkjac            00420940 f   levmar:misc.obj
 0001:0001ffe0       _dlevmar_covar             00420fe0 f   levmar:misc.obj
 0001:00020080       _dlevmar_stddev            00421080 f   levmar:misc.obj
 0001:000200a0       _dlevmar_corcoef           004210a0 f   levmar:misc.obj
 0001:000200e0       _dlevmar_R2                004210e0 f   levmar:misc.obj
 0001:000201f0       _dlevmar_box_check         004211f0 f   levmar:misc.obj
 0001:00020240       _dlevmar_chol              00421240 f   levmar:misc.obj
 0001:00020360       _dlevmar_L2nrmxmy          00421360 f   levmar:misc.obj
 0001:00020690       _dAx_eq_b_QR               00421690 f   levmar:Axb.obj
 0001:00020960       _dAx_eq_b_QRLS             00421960 f   levmar:Axb.obj
 0001:00020d60       _dAx_eq_b_Chol             00421d60 f   levmar:Axb.obj
 0001:00020ee0       _dAx_eq_b_LU               00421ee0 f   levmar:Axb.obj
 0001:000210a0       _dAx_eq_b_SVD              004220a0 f   levmar:Axb.obj
 0001:000213a0       _dAx_eq_b_BK               004223a0 f   levmar:Axb.obj
 0001:000215b0       _sAx_eq_b_QR               004225b0 f   levmar:Axb.obj
 0001:00021880       _sAx_eq_b_QRLS             00422880 f   levmar:Axb.obj
 0001:00021c80       _sAx_eq_b_Chol             00422c80 f   levmar:Axb.obj
 0001:00021e00       _sAx_eq_b_LU               00422e00 f   levmar:Axb.obj
 0001:00021fd0       _sAx_eq_b_SVD              00422fd0 f   levmar:Axb.obj
 0001:000222e0       _sAx_eq_b_BK               004232e0 f   levmar:Axb.obj
 0001:000224e6       ??3@YAXPAX@Z               004234e6 f   mfc100d:mfc100d.dll
 0001:000224ec       ??3CObject@@SGXPAX@Z       004234ec f   mfc100d:mfc100d.dll
 0001:000224f2       ??2CObject@@SGPAXI@Z       004234f2 f   mfc100d:mfc100d.dll
 0001:000224f8       ??0CWnd@@QAE@XZ            004234f8 f   mfc100d:mfc100d.dll
 0001:000224fe       ?Serialize@CObject@@UAEXAAVCArchive@@@Z 004234fe f   mfc100d:mfc100d.dll
 0001:00022504       ?AssertValid@CWnd@@UBEXXZ  00423504 f   mfc100d:mfc100d.dll
 0001:0002250a       ?Dump@CWnd@@UBEXAAVCDumpContext@@@Z 0042350a f   mfc100d:mfc100d.dll
 0001:00022510       ?OnCmdMsg@CCmdTarget@@UAEHIHPAXPAUAFX_CMDHANDLERINFO@@@Z 00423510 f   mfc100d:mfc100d.dll
 0001:00022516       ?OnFinalRelease@CWnd@@UAEXXZ 00423516 f   mfc100d:mfc100d.dll
 0001:0002251c       ?IsInvokeAllowed@CCmdTarget@@UAEHJ@Z 0042351c f   mfc100d:mfc100d.dll
 0001:00022522       ?GetDispatchIID@CCmdTarget@@UAEHPAU_GUID@@@Z 00423522 f   mfc100d:mfc100d.dll
 0001:00022528       ?GetTypeInfoCount@CCmdTarget@@UAEIXZ 00423528 f   mfc100d:mfc100d.dll
 0001:0002252e       ?GetTypeLibCache@CCmdTarget@@UAEPAVCTypeLibCache@@XZ 0042352e f   mfc100d:mfc100d.dll
 0001:00022534       ?GetTypeLib@CCmdTarget@@UAEJKPAPAUITypeLib@@@Z 00423534 f   mfc100d:mfc100d.dll
 0001:0002253a       ?GetMessageMap@CWnd@@MBEPBUAFX_MSGMAP@@XZ 0042353a f   mfc100d:mfc100d.dll
 0001:00022540       ?GetCommandMap@CCmdTarget@@MBEPBUAFX_OLECMDMAP@@XZ 00423540 f   mfc100d:mfc100d.dll
 0001:00022546       ?GetDispatchMap@CCmdTarget@@MBEPBUAFX_DISPMAP@@XZ 00423546 f   mfc100d:mfc100d.dll
 0001:0002254c       ?GetConnectionMap@CCmdTarget@@MBEPBUAFX_CONNECTIONMAP@@XZ 0042354c f   mfc100d:mfc100d.dll
 0001:00022552       ?GetInterfaceMap@CWnd@@MBEPBUAFX_INTERFACEMAP@@XZ 00423552 f   mfc100d:mfc100d.dll
 0001:00022558       ?GetEventSinkMap@CCmdTarget@@MBEPBUAFX_EVENTSINKMAP@@XZ 00423558 f   mfc100d:mfc100d.dll
 0001:0002255e       ?OnCreateAggregates@CCmdTarget@@UAEHXZ 0042355e f   mfc100d:mfc100d.dll
 0001:00022564       ?GetInterfaceHook@CCmdTarget@@UAEPAUIUnknown@@PBX@Z 00423564 f   mfc100d:mfc100d.dll
 0001:0002256a       ?GetExtraConnectionPoints@CCmdTarget@@MAEHPAVCPtrArray@@@Z 0042356a f   mfc100d:mfc100d.dll
 0001:00022570       ?GetConnectionHook@CCmdTarget@@MAEPAUIConnectionPoint@@ABU_GUID@@@Z 00423570 f   mfc100d:mfc100d.dll
 0001:00022576       ?PreSubclassWindow@CWnd@@UAEXXZ 00423576 f   mfc100d:mfc100d.dll
 0001:0002257c       ?CreateEx@CWnd@@UAEHKPBD0KABUtagRECT@@PAV1@IPAX@Z 0042357c f   mfc100d:mfc100d.dll
 0001:00022582       ?CreateEx@CWnd@@UAEHKPBD0KHHHHPAUHWND__@@PAUHMENU__@@PAX@Z 00423582 f   mfc100d:mfc100d.dll
 0001:00022588       ?DestroyWindow@CWnd@@UAEHXZ 00423588 f   mfc100d:mfc100d.dll
 0001:0002258e       ?PreCreateWindow@CWnd@@UAEHAAUtagCREATESTRUCTA@@@Z 0042358e f   mfc100d:mfc100d.dll
 0001:00022594       ?CalcWindowRect@CWnd@@UAEXPAUtagRECT@@I@Z 00423594 f   mfc100d:mfc100d.dll
 0001:0002259a       ?GetMenu@CWnd@@UBEPAVCMenu@@XZ 0042359a f   mfc100d:mfc100d.dll
 0001:000225a0       ?SetMenu@CWnd@@UAEHPAVCMenu@@@Z 004235a0 f   mfc100d:mfc100d.dll
 0001:000225a6       ?OnToolHitTest@CWnd@@UBEHVCPoint@@PAUtagTOOLINFOA@@@Z 004235a6 f   mfc100d:mfc100d.dll
 0001:000225ac       ?GetScrollBarCtrl@CWnd@@UBEPAVCScrollBar@@H@Z 004235ac f   mfc100d:mfc100d.dll
 0001:000225b2       ?WinHelpA@CWnd@@UAEXKI@Z   004235b2 f   mfc100d:mfc100d.dll
 0001:000225b8       ?HtmlHelpA@CWnd@@UAEXKI@Z  004235b8 f   mfc100d:mfc100d.dll
 0001:000225be       ?WinHelpInternal@CWnd@@UAEXKI@Z 004235be f   mfc100d:mfc100d.dll
 0001:000225c4       ?ContinueModal@CWnd@@UAEHXZ 004235c4 f   mfc100d:mfc100d.dll
 0001:000225ca       ?EndModalLoop@CWnd@@UAEXH@Z 004235ca f   mfc100d:mfc100d.dll
 0001:000225d0       ?OnDrawIconicThumbnailOrLivePreview@CWnd@@UAEXAAVCDC@@VCRect@@VCSize@@HAAH@Z 004235d0 f   mfc100d:mfc100d.dll
 0001:000225d6       ?EnsureStdObj@CWnd@@UAEJXZ 004235d6 f   mfc100d:mfc100d.dll
 0001:000225dc       ?get_accParent@CWnd@@UAEJPAPAUIDispatch@@@Z 004235dc f   mfc100d:mfc100d.dll
 0001:000225e2       ?get_accChildCount@CWnd@@UAEJPAJ@Z 004235e2 f   mfc100d:mfc100d.dll
 0001:000225e8       ?get_accChild@CWnd@@UAEJUtagVARIANT@@PAPAUIDispatch@@@Z 004235e8 f   mfc100d:mfc100d.dll
 0001:000225ee       ?get_accName@CWnd@@UAEJUtagVARIANT@@PAPA_W@Z 004235ee f   mfc100d:mfc100d.dll
 0001:000225f4       ?get_accValue@CWnd@@UAEJUtagVARIANT@@PAPA_W@Z 004235f4 f   mfc100d:mfc100d.dll
 0001:000225fa       ?get_accDescription@CWnd@@UAEJUtagVARIANT@@PAPA_W@Z 004235fa f   mfc100d:mfc100d.dll
 0001:00022600       ?get_accRole@CWnd@@UAEJUtagVARIANT@@PAU2@@Z 00423600 f   mfc100d:mfc100d.dll
 0001:00022606       ?get_accState@CWnd@@UAEJUtagVARIANT@@PAU2@@Z 00423606 f   mfc100d:mfc100d.dll
 0001:0002260c       ?get_accHelp@CWnd@@UAEJUtagVARIANT@@PAPA_W@Z 0042360c f   mfc100d:mfc100d.dll
 0001:00022612       ?get_accHelpTopic@CWnd@@UAEJPAPA_WUtagVARIANT@@PAJ@Z 00423612 f   mfc100d:mfc100d.dll
 0001:00022618       ?get_accKeyboardShortcut@CWnd@@UAEJUtagVARIANT@@PAPA_W@Z 00423618 f   mfc100d:mfc100d.dll
 0001:0002261e       ?get_accFocus@CWnd@@UAEJPAUtagVARIANT@@@Z 0042361e f   mfc100d:mfc100d.dll
 0001:00022624       ?get_accSelection@CWnd@@UAEJPAUtagVARIANT@@@Z 00423624 f   mfc100d:mfc100d.dll
 0001:0002262a       ?get_accDefaultAction@CWnd@@UAEJUtagVARIANT@@PAPA_W@Z 0042362a f   mfc100d:mfc100d.dll
 0001:00022630       ?accSelect@CWnd@@UAEJJUtagVARIANT@@@Z 00423630 f   mfc100d:mfc100d.dll
 0001:00022636       ?accLocation@CWnd@@UAEJPAJ000UtagVARIANT@@@Z 00423636 f   mfc100d:mfc100d.dll
 0001:0002263c       ?accNavigate@CWnd@@UAEJJUtagVARIANT@@PAU2@@Z 0042363c f   mfc100d:mfc100d.dll
 0001:00022642       ?accHitTest@CWnd@@UAEJJJPAUtagVARIANT@@@Z 00423642 f   mfc100d:mfc100d.dll
 0001:00022648       ?accDoDefaultAction@CWnd@@UAEJUtagVARIANT@@@Z 00423648 f   mfc100d:mfc100d.dll
 0001:0002264e       ?put_accName@CWnd@@UAEJUtagVARIANT@@PA_W@Z 0042364e f   mfc100d:mfc100d.dll
 0001:00022654       ?put_accValue@CWnd@@UAEJUtagVARIANT@@PA_W@Z 00423654 f   mfc100d:mfc100d.dll
 0001:0002265a       ?SetProxy@CWnd@@UAEJPAUIAccessibleProxy@@@Z 0042365a f   mfc100d:mfc100d.dll
 0001:00022660       ?CreateAccessibleProxy@CWnd@@UAEJIJPAJ@Z 00423660 f   mfc100d:mfc100d.dll
 0001:00022666       ?OnCommand@CWnd@@MAEHIJ@Z  00423666 f   mfc100d:mfc100d.dll
 0001:0002266c       ?OnNotify@CWnd@@MAEHIJPAJ@Z 0042366c f   mfc100d:mfc100d.dll
 0001:00022672       ?GetSuperWndProcAddr@CWnd@@MAEPAP6GJPAUHWND__@@IIJ@ZXZ 00423672 f   mfc100d:mfc100d.dll
 0001:00022678       ?DoDataExchange@CWnd@@MAEXPAVCDataExchange@@@Z 00423678 f   mfc100d:mfc100d.dll
 0001:0002267e       ?BeginModalState@CWnd@@UAEXXZ 0042367e f   mfc100d:mfc100d.dll
 0001:00022684       ?EndModalState@CWnd@@UAEXXZ 00423684 f   mfc100d:mfc100d.dll
 0001:0002268a       ?PreTranslateMessage@CWnd@@UAEHPAUtagMSG@@@Z 0042368a f   mfc100d:mfc100d.dll
 0001:00022690       ?OnAmbientProperty@CWnd@@UAEHPAVCOleControlSite@@JPAUtagVARIANT@@@Z 00423690 f   mfc100d:mfc100d.dll
 0001:00022696       ?WindowProc@CWnd@@MAEJIIJ@Z 00423696 f   mfc100d:mfc100d.dll
 0001:0002269c       ?OnWndMsg@CWnd@@MAEHIIJPAJ@Z 0042369c f   mfc100d:mfc100d.dll
 0001:000226a2       ?DefWindowProcA@CWnd@@MAEJIIJ@Z 004236a2 f   mfc100d:mfc100d.dll
 0001:000226a8       ?PostNcDestroy@CWnd@@MAEXXZ 004236a8 f   mfc100d:mfc100d.dll
 0001:000226ae       ?OnChildNotify@CWnd@@MAEHIIJPAJ@Z 004236ae f   mfc100d:mfc100d.dll
 0001:000226b4       ?OnTouchInputs@CWnd@@MAEHIPAUtagTOUCHINPUT@@@Z 004236b4 f   mfc100d:mfc100d.dll
 0001:000226ba       ?OnTouchInput@CWnd@@MAEHVCPoint@@HHPAUtagTOUCHINPUT@@@Z 004236ba f   mfc100d:mfc100d.dll
 0001:000226c0       ?GetGestureStatus@CWnd@@MAEKVCPoint@@@Z 004236c0 f   mfc100d:mfc100d.dll
 0001:000226c6       ?OnGestureZoom@CWnd@@MAEHVCPoint@@J@Z 004236c6 f   mfc100d:mfc100d.dll
 0001:000226cc       ?OnGesturePan@CWnd@@MAEHVCPoint@@0@Z 004236cc f   mfc100d:mfc100d.dll
 0001:000226d2       ?OnGestureRotate@CWnd@@MAEHVCPoint@@N@Z 004236d2 f   mfc100d:mfc100d.dll
 0001:000226d8       ?OnGestureTwoFingerTap@CWnd@@MAEHVCPoint@@@Z 004236d8 f   mfc100d:mfc100d.dll
 0001:000226de       ?OnGesturePressAndTap@CWnd@@MAEHVCPoint@@J@Z 004236de f   mfc100d:mfc100d.dll
 0001:000226e4       ?CheckAutoCenter@CWnd@@UAEHXZ 004236e4 f   mfc100d:mfc100d.dll
 0001:000226ea       ?IsFrameWnd@CWnd@@UBEHXZ   004236ea f   mfc100d:mfc100d.dll
 0001:000226f0       ?CreateControlContainer@CWnd@@MAEHPAPAVCOleControlContainer@@@Z 004236f0 f   mfc100d:mfc100d.dll
 0001:000226f6       ?CreateControlSite@CWnd@@MAEHPAVCOleControlContainer@@PAPAVCOleControlSite@@IABU_GUID@@@Z 004236f6 f   mfc100d:mfc100d.dll
 0001:000226fc       ?SetOccDialogInfo@CWnd@@MAEHPAU_AFX_OCC_DIALOG_INFO@@@Z 004236fc f   mfc100d:mfc100d.dll
 0001:00022702       ?GetOccDialogInfo@CWnd@@MAEPAU_AFX_OCC_DIALOG_INFO@@XZ 00423702 f   mfc100d:mfc100d.dll
 0001:00022708       ?CreateControl@CWnd@@QAEHABU_GUID@@PBDKABUtagRECT@@PAV1@IPAVCFile@@HPA_W@Z 00423708 f   mfc100d:mfc100d.dll
 0001:0002270e       ??1CWnd@@UAE@XZ            0042370e f   mfc100d:mfc100d.dll
 0001:00022714       ?GetThisClass@CWnd@@SGPAUCRuntimeClass@@XZ 00423714 f   mfc100d:mfc100d.dll
 0001:0002271a       ??0?$CStringT@DV?$StrTraitMFC_DLL@DV?$ChTraitsCRT@D@ATL@@@@@ATL@@QAE@XZ 0042371a f   mfc100d:mfc100d.dll
 0001:00022720       ??1?$CStringT@DV?$StrTraitMFC_DLL@DV?$ChTraitsCRT@D@ATL@@@@@ATL@@QAE@XZ 00423720 f   mfc100d:mfc100d.dll
 0001:00022726       ??B?$CSimpleStringT@D$00@ATL@@QBEPBDXZ 00423726 f   mfc100d:mfc100d.dll
 0001:0002272c       ?GetThisClass@CDialog@@SGPAUCRuntimeClass@@XZ 0042372c f   mfc100d:mfc100d.dll
 0001:00022732       ??0CDialog@@QAE@IPAVCWnd@@@Z 00423732 f   mfc100d:mfc100d.dll
 0001:00022738       ?AssertValid@CDialog@@UBEXXZ 00423738 f   mfc100d:mfc100d.dll
 0001:0002273e       ?Dump@CDialog@@UBEXAAVCDumpContext@@@Z 0042373e f   mfc100d:mfc100d.dll
 0001:00022744       ?OnCmdMsg@CDialog@@UAEHIHPAXPAUAFX_CMDHANDLERINFO@@@Z 00423744 f   mfc100d:mfc100d.dll
 0001:0002274a       ?Create@CWnd@@UAEHPBD0KABUtagRECT@@PAV1@IPAUCCreateContext@@@Z 0042374a f   mfc100d:mfc100d.dll
 0001:00022750       ?PreTranslateMessage@CDialog@@UAEHPAUtagMSG@@@Z 00423750 f   mfc100d:mfc100d.dll
 0001:00022756       ?CheckAutoCenter@CDialog@@UAEHXZ 00423756 f   mfc100d:mfc100d.dll
 0001:0002275c       ?SetOccDialogInfo@CDialog@@MAEHPAU_AFX_OCC_DIALOG_INFO@@@Z 0042375c f   mfc100d:mfc100d.dll
 0001:00022762       ?GetOccDialogInfo@CDialog@@MAEPAU_AFX_OCC_DIALOG_INFO@@XZ 00423762 f   mfc100d:mfc100d.dll
 0001:00022768       ?Create@CDialog@@UAEHIPAVCWnd@@@Z 00423768 f   mfc100d:mfc100d.dll
 0001:0002276e       ?Create@CDialog@@UAEHPBDPAVCWnd@@@Z 0042376e f   mfc100d:mfc100d.dll
 0001:00022774       ?CreateIndirect@CDialog@@UAEHPAXPAVCWnd@@@Z 00423774 f   mfc100d:mfc100d.dll
 0001:0002277a       ?CreateIndirect@CDialog@@UAEHPBUDLGTEMPLATE@@PAVCWnd@@PAX@Z 0042377a f   mfc100d:mfc100d.dll
 0001:00022780       ?DoModal@CDialog@@UAEHXZ   00423780 f   mfc100d:mfc100d.dll
 0001:00022786       ?OnInitDialog@CDialog@@UAEHXZ 00423786 f   mfc100d:mfc100d.dll
 0001:0002278c       ?OnSetFont@CDialog@@UAEXPAVCFont@@@Z 0042378c f   mfc100d:mfc100d.dll
 0001:00022792       ?OnOK@CDialog@@MAEXXZ      00423792 f   mfc100d:mfc100d.dll
 0001:00022798       ?OnCancel@CDialog@@MAEXXZ  00423798 f   mfc100d:mfc100d.dll
 0001:0002279e       ?PreInitDialog@CDialog@@MAEXXZ 0042379e f   mfc100d:mfc100d.dll
 0001:000227a4       ??1CDialog@@UAE@XZ         004237a4 f   mfc100d:mfc100d.dll
 0001:000227aa       ?GetThisMessageMap@CDialog@@KGPBUAFX_MSGMAP@@XZ 004237aa f   mfc100d:mfc100d.dll
 0001:000227b0       ?GetThisClass@CFrameWnd@@SGPAUCRuntimeClass@@XZ 004237b0 f   mfc100d:mfc100d.dll
 0001:000227b6       ??0CFrameWnd@@QAE@XZ       004237b6 f   mfc100d:mfc100d.dll
 0001:000227bc       ?AssertValid@CFrameWnd@@UBEXXZ 004237bc f   mfc100d:mfc100d.dll
 0001:000227c2       ?Dump@CFrameWnd@@UBEXAAVCDumpContext@@@Z 004237c2 f   mfc100d:mfc100d.dll
 0001:000227c8       ?OnCmdMsg@CFrameWnd@@UAEHIHPAXPAUAFX_CMDHANDLERINFO@@@Z 004237c8 f   mfc100d:mfc100d.dll
 0001:000227ce       ?GetMessageMap@CFrameWnd@@MBEPBUAFX_MSGMAP@@XZ 004237ce f   mfc100d:mfc100d.dll
 0001:000227d4       ?GetMenu@CFrameWnd@@UBEPAVCMenu@@XZ 004237d4 f   mfc100d:mfc100d.dll
 0001:000227da       ?SetMenu@CFrameWnd@@UAEHPAVCMenu@@@Z 004237da f   mfc100d:mfc100d.dll
 0001:000227e0       ?OnCommand@CFrameWnd@@MAEHIJ@Z 004237e0 f   mfc100d:mfc100d.dll
 0001:000227e6       ?BeginModalState@CFrameWnd@@UAEXXZ 004237e6 f   mfc100d:mfc100d.dll
 0001:000227ec       ?EndModalState@CFrameWnd@@UAEXXZ 004237ec f   mfc100d:mfc100d.dll
 0001:000227f2       ?PreTranslateMessage@CFrameWnd@@UAEHPAUtagMSG@@@Z 004237f2 f   mfc100d:mfc100d.dll
 0001:000227f8       ?PostNcDestroy@CFrameWnd@@MAEXXZ 004237f8 f   mfc100d:mfc100d.dll
 0001:000227fe       ?IsFrameWnd@CFrameWnd@@UBEHXZ 004237fe f   mfc100d:mfc100d.dll
 0001:00022804       ?Create@CFrameWnd@@UAEHPBD0KABUtagRECT@@PAVCWnd@@0KPAUCCreateContext@@@Z 00423804 f   mfc100d:mfc100d.dll
 0001:0002280a       ?LoadFrame@CFrameWnd@@UAEHIKPAVCWnd@@PAUCCreateContext@@@Z 0042380a f   mfc100d:mfc100d.dll
 0001:00022810       ?GetActiveDocument@CFrameWnd@@UAEPAVCDocument@@XZ 00423810 f   mfc100d:mfc100d.dll
 0001:00022816       ?GetActiveFrame@CFrameWnd@@UAEPAV1@XZ 00423816 f   mfc100d:mfc100d.dll
 0001:0002281c       ?GetMessageString@CFrameWnd@@UBEXIAAV?$CStringT@DV?$StrTraitMFC_DLL@DV?$ChTraitsCRT@D@ATL@@@@@ATL@@@Z 0042381c f   mfc100d:mfc100d.dll
 0001:00022822       ?RecalcLayout@CFrameWnd@@UAEXH@Z 00423822 f   mfc100d:mfc100d.dll
 0001:00022828       ?ActivateFrame@CFrameWnd@@UAEXH@Z 00423828 f   mfc100d:mfc100d.dll
 0001:0002282e       ?SetMenuBarVisibility@CFrameWnd@@UAEXK@Z 0042382e f   mfc100d:mfc100d.dll
 0001:00022834       ?GetMenuBarVisibility@CFrameWnd@@UBEKXZ 00423834 f   mfc100d:mfc100d.dll
 0001:0002283a       ?SetMenuBarState@CFrameWnd@@UAEHK@Z 0042383a f   mfc100d:mfc100d.dll
 0001:00022840       ?GetMenuBarState@CFrameWnd@@UBEKXZ 00423840 f   mfc100d:mfc100d.dll
 0001:00022846       ?OnSetPreviewMode@CFrameWnd@@UAEXHPAUCPrintPreviewState@@@Z 00423846 f   mfc100d:mfc100d.dll
 0001:0002284c       ?GetMessageBar@CFrameWnd@@UAEPAVCWnd@@XZ 0042384c f   mfc100d:mfc100d.dll
 0001:00022852       ?NegotiateBorderSpace@CFrameWnd@@UAEHIPAUtagRECT@@@Z 00423852 f   mfc100d:mfc100d.dll
 0001:00022858       ?OnCreateClient@CFrameWnd@@MAEHPAUtagCREATESTRUCTA@@PAUCCreateContext@@@Z 00423858 f   mfc100d:mfc100d.dll
 0001:0002285e       ?OnUpdateFrameTitle@CFrameWnd@@UAEXH@Z 0042385e f   mfc100d:mfc100d.dll
 0001:00022864       ?OnUpdateFrameMenu@CFrameWnd@@UAEXPAUHMENU__@@@Z 00423864 f   mfc100d:mfc100d.dll
 0001:0002286a       ?GetDefaultAccelerator@CFrameWnd@@UAEPAUHACCEL__@@XZ 0042386a f   mfc100d:mfc100d.dll
 0001:00022870       ?DelayUpdateFrameMenu@CFrameWnd@@UAEXPAUHMENU__@@@Z 00423870 f   mfc100d:mfc100d.dll
 0001:00022876       ?ExitHelpMode@CFrameWnd@@UAEXXZ 00423876 f   mfc100d:mfc100d.dll
 0001:0002287c       ?OnShowMenuBar@CFrameWnd@@MAEXXZ 0042387c f   mfc100d:mfc100d.dll
 0001:00022882       ?OnHideMenuBar@CFrameWnd@@MAEXXZ 00423882 f   mfc100d:mfc100d.dll
 0001:00022888       ??1CFrameWnd@@UAE@XZ       00423888 f   mfc100d:mfc100d.dll
 0001:0002288e       ?PreCreateWindow@CFrameWnd@@MAEHAAUtagCREATESTRUCTA@@@Z 0042388e f   mfc100d:mfc100d.dll
 0001:00022894       ??0CWinApp@@QAE@PBD@Z      00423894 f   mfc100d:mfc100d.dll
 0001:0002289a       ?GetRuntimeClass@CWinApp@@UBEPAUCRuntimeClass@@XZ 0042389a f   mfc100d:mfc100d.dll
 0001:000228a0       ?AssertValid@CWinApp@@UBEXXZ 004238a0 f   mfc100d:mfc100d.dll
 0001:000228a6       ?Dump@CWinApp@@UBEXAAVCDumpContext@@@Z 004238a6 f   mfc100d:mfc100d.dll
 0001:000228ac       ?OnFinalRelease@CCmdTarget@@UAEXXZ 004238ac f   mfc100d:mfc100d.dll
 0001:000228b2       ?GetMessageMap@CWinApp@@MBEPBUAFX_MSGMAP@@XZ 004238b2 f   mfc100d:mfc100d.dll
 0001:000228b8       ?GetInterfaceMap@CCmdTarget@@MBEPBUAFX_INTERFACEMAP@@XZ 004238b8 f   mfc100d:mfc100d.dll
 0001:000228be       ?Run@CWinApp@@UAEHXZ       004238be f   mfc100d:mfc100d.dll
 0001:000228c4       ?PreTranslateMessage@CWinThread@@UAEHPAUtagMSG@@@Z 004238c4 f   mfc100d:mfc100d.dll
 0001:000228ca       ?PumpMessage@CWinThread@@UAEHXZ 004238ca f   mfc100d:mfc100d.dll
 0001:000228d0       ?OnIdle@CWinApp@@UAEHJ@Z   004238d0 f   mfc100d:mfc100d.dll
 0001:000228d6       ?IsIdleMessage@CWinThread@@UAEHPAUtagMSG@@@Z 004238d6 f   mfc100d:mfc100d.dll
 0001:000228dc       ?ProcessWndProcException@CWinApp@@UAEJPAVCException@@PBUtagMSG@@@Z 004238dc f   mfc100d:mfc100d.dll
 0001:000228e2       ?ProcessMessageFilter@CWinThread@@UAEHHPAUtagMSG@@@Z 004238e2 f   mfc100d:mfc100d.dll
 0001:000228e8       ?GetMainWnd@CWinThread@@UAEPAVCWnd@@XZ 004238e8 f   mfc100d:mfc100d.dll
 0001:000228ee       ?Delete@CWinThread@@UAEXXZ 004238ee f   mfc100d:mfc100d.dll
 0001:000228f4       ?GetProfileIntA@CWinApp@@UAEIPBD0H@Z 004238f4 f   mfc100d:mfc100d.dll
 0001:000228fa       ?WriteProfileInt@CWinApp@@UAEHPBD0H@Z 004238fa f   mfc100d:mfc100d.dll
 0001:00022900       ?GetProfileStringA@CWinApp@@UAE?AV?$CStringT@DV?$StrTraitMFC_DLL@DV?$ChTraitsCRT@D@ATL@@@@@ATL@@PBD00@Z 00423900 f   mfc100d:mfc100d.dll
 0001:00022906       ?WriteProfileStringA@CWinApp@@UAEHPBD00@Z 00423906 f   mfc100d:mfc100d.dll
 0001:0002290c       ?GetProfileBinary@CWinApp@@UAEHPBD0PAPAEPAI@Z 0042390c f   mfc100d:mfc100d.dll
 0001:00022912       ?WriteProfileBinary@CWinApp@@UAEHPBD0PAEI@Z 00423912 f   mfc100d:mfc100d.dll
 0001:00022918       ?InitLibId@CWinApp@@UAEXXZ 00423918 f   mfc100d:mfc100d.dll
 0001:0002291e       ?Register@CWinApp@@UAEHXZ  0042391e f   mfc100d:mfc100d.dll
 0001:00022924       ?Unregister@CWinApp@@UAEHXZ 00423924 f   mfc100d:mfc100d.dll
 0001:0002292a       ?OpenDocumentFile@CWinApp@@UAEPAVCDocument@@PBDH@Z 0042392a f   mfc100d:mfc100d.dll
 0001:00022930       ?OpenDocumentFile@CWinApp@@UAEPAVCDocument@@PBD@Z 00423930 f   mfc100d:mfc100d.dll
 0001:00022936       ?AddToRecentFileList@CWinApp@@UAEXPBD@Z 00423936 f   mfc100d:mfc100d.dll
 0001:0002293c       ?InitApplication@CWinApp@@UAEHXZ 0042393c f   mfc100d:mfc100d.dll
 0001:00022942       ?SaveAllModified@CWinApp@@UAEHXZ 00423942 f   mfc100d:mfc100d.dll
 0001:00022948       ?DoMessageBox@CWinApp@@UAEHPBDII@Z 00423948 f   mfc100d:mfc100d.dll
 0001:0002294e       ?DoWaitCursor@CWinApp@@UAEXH@Z 0042394e f   mfc100d:mfc100d.dll
 0001:00022954       ?OnDDECommand@CWinApp@@UAEHPAD@Z 00423954 f   mfc100d:mfc100d.dll
 0001:0002295a       ?WinHelpA@CWinApp@@UAEXKI@Z 0042395a f   mfc100d:mfc100d.dll
 0001:00022960       ?HtmlHelpA@CWinApp@@UAEXKI@Z 00423960 f   mfc100d:mfc100d.dll
 0001:00022966       ?WinHelpInternal@CWinApp@@UAEXKI@Z 00423966 f   mfc100d:mfc100d.dll
 0001:0002296c       ?RegisterWithRestartManager@CWinApp@@UAEJPB_WKP6GKPAX@Z1KK@Z 0042396c f   mfc100d:mfc100d.dll
 0001:00022972       ?RegisterWithRestartManager@CWinApp@@UAEJHABV?$CStringT@DV?$StrTraitMFC_DLL@DV?$ChTraitsCRT@D@ATL@@@@@ATL@@@Z 00423972 f   mfc100d:mfc100d.dll
 0001:00022978       ?ApplicationRecoveryCallback@CWinApp@@UAEKPAX@Z 00423978 f   mfc100d:mfc100d.dll
 0001:0002297e       ?GetDataRecoveryHandler@CWinApp@@UAEPAVCDataRecoveryHandler@@XZ 0042397e f   mfc100d:mfc100d.dll
 0001:00022984       ?IsTaskbarInteractionEnabled@CWinApp@@UAEHXZ 00423984 f   mfc100d:mfc100d.dll
 0001:0002298a       ?RestartInstance@CWinApp@@UAEHXZ 0042398a f   mfc100d:mfc100d.dll
 0001:00022990       ?LoadAppLangResourceDLL@CWinApp@@UAEPAUHINSTANCE__@@XZ 00423990 f   mfc100d:mfc100d.dll
 0001:00022996       ?LoadSysPolicies@CWinApp@@UAEHXZ 00423996 f   mfc100d:mfc100d.dll
 0001:0002299c       ??1CWinApp@@UAE@XZ         0042399c f   mfc100d:mfc100d.dll
 0001:000229a2       ??1CCommandLineInfo@@UAE@XZ 004239a2 f   mfc100d:mfc100d.dll
 0001:000229a8       ?ProcessShellCommand@CWinApp@@QAEHAAVCCommandLineInfo@@@Z 004239a8 f   mfc100d:mfc100d.dll
 0001:000229ae       ?ParseCommandLine@CWinApp@@QAEXAAVCCommandLineInfo@@@Z 004239ae f   mfc100d:mfc100d.dll
 0001:000229b4       ??0CCommandLineInfo@@QAE@XZ 004239b4 f   mfc100d:mfc100d.dll
 0001:000229ba       ?AddDocTemplate@CWinApp@@QAEXPAVCDocTemplate@@@Z 004239ba f   mfc100d:mfc100d.dll
 0001:000229c0       ??0CSingleDocTemplate@@QAE@IPAUCRuntimeClass@@00@Z 004239c0 f   mfc100d:mfc100d.dll
 0001:000229c6       ?LoadStdProfileSettings@CWinApp@@IAEXI@Z 004239c6 f   mfc100d:mfc100d.dll
 0001:000229cc       ?AfxEnableControlContainer@@YAXPAVCOccManager@@@Z 004239cc f   mfc100d:mfc100d.dll
 0001:000229d2       ?ExitInstance@CWinApp@@UAEHXZ 004239d2 f   mfc100d:mfc100d.dll
 0001:000229d8       ??1CSliderCtrl@@UAE@XZ     004239d8 f   mfc100d:mfc100d.dll
 0001:000229de       ?ShowWindow@CWnd@@QAEHH@Z  004239de f   mfc100d:mfc100d.dll
 0001:000229e4       ??0CSliderCtrl@@QAE@XZ     004239e4 f   mfc100d:mfc100d.dll
 0001:000229ea       ?GetRuntimeClass@CDialog@@UBEPAUCRuntimeClass@@XZ 004239ea f   mfc100d:mfc100d.dll
 0001:000229f0       ?DDX_Check@@YGXPAVCDataExchange@@HAAH@Z 004239f0 f   mfc100d:mfc100d.dll
 0001:000229f6       ?DDX_Slider@@YGXPAVCDataExchange@@HAAH@Z 004239f6 f   mfc100d:mfc100d.dll
 0001:000229fc       ?DDV_MinMaxInt@@YGXPAVCDataExchange@@HHH@Z 004239fc f   mfc100d:mfc100d.dll
 0001:00022a02       ?DDX_Text@@YGXPAVCDataExchange@@HAAH@Z 00423a02 f   mfc100d:mfc100d.dll
 0001:00022a08       ?OnTimer@CWnd@@IAEXI@Z     00423a08 f   mfc100d:mfc100d.dll
 0001:00022a0e       ?AfxMessageBox@@YGHPBDII@Z 00423a0e f   mfc100d:mfc100d.dll
 0001:00022a14       ?UpdateData@CWnd@@QAEHH@Z  00423a14 f   mfc100d:mfc100d.dll
 0001:00022a1a       ??1CStatic@@UAE@XZ         00423a1a f   mfc100d:mfc100d.dll
 0001:00022a20       ??1CBitmap@@UAE@XZ         00423a20 f   mfc100d:mfc100d.dll
 0001:00022a26       ??_U@YAPAXI@Z              00423a26 f   mfc100d:mfc100d.dll
 0001:00022a2c       ??0CStatic@@QAE@XZ         00423a2c f   mfc100d:mfc100d.dll
 0001:00022a32       ??0CBitmap@@QAE@XZ         00423a32 f   mfc100d:mfc100d.dll
 0001:00022a38       ?DDX_Control@@YGXPAVCDataExchange@@HAAVCWnd@@@Z 00423a38 f   mfc100d:mfc100d.dll
 0001:00022a3e       ??_V@YAXPAX@Z              00423a3e f   mfc100d:mfc100d.dll
 0001:00022a44       ?DeleteObject@CGdiObject@@QAEHXZ 00423a44 f   mfc100d:mfc100d.dll
 0001:00022a4a       ??1CClientDC@@UAE@XZ       00423a4a f   mfc100d:mfc100d.dll
 0001:00022a50       ?GetObjectA@CGdiObject@@QBEHHPAX@Z 00423a50 f   mfc100d:mfc100d.dll
 0001:00022a56       ?CreateCompatibleBitmap@CBitmap@@QAEHPAVCDC@@HH@Z 00423a56 f   mfc100d:mfc100d.dll
 0001:00022a5c       ??0CClientDC@@QAE@PAVCWnd@@@Z 00423a5c f   mfc100d:mfc100d.dll
 0001:00022a62       ?MoveWindow@CWnd@@QAEXHHHHH@Z 00423a62 f   mfc100d:mfc100d.dll
 0001:00022a68       ??1CDC@@UAE@XZ             00423a68 f   mfc100d:mfc100d.dll
 0001:00022a6e       ??1CPen@@UAE@XZ            00423a6e f   mfc100d:mfc100d.dll
 0001:00022a74       ?LineTo@CDC@@QAEHHH@Z      00423a74 f   mfc100d:mfc100d.dll
 0001:00022a7a       ?MoveTo@CDC@@QAE?AVCPoint@@HH@Z 00423a7a f   mfc100d:mfc100d.dll
 0001:00022a80       ?SelectObject@CDC@@QAEPAVCPen@@PAV2@@Z 00423a80 f   mfc100d:mfc100d.dll
 0001:00022a86       ??0CPen@@QAE@HHK@Z         00423a86 f   mfc100d:mfc100d.dll
 0001:00022a8c       ?StretchBlt@CDC@@QAEHHHHHPAV1@HHHHK@Z 00423a8c f   mfc100d:mfc100d.dll
 0001:00022a92       ?SetViewportExt@CDC@@UAE?AVCSize@@HH@Z 00423a92 f   mfc100d:mfc100d.dll
 0001:00022a98       ?SetViewportOrg@CDC@@UAE?AVCPoint@@HH@Z 00423a98 f   mfc100d:mfc100d.dll
 0001:00022a9e       ?SetMapMode@CDC@@UAEHH@Z   00423a9e f   mfc100d:mfc100d.dll
 0001:00022aa4       ?SelectObject@CDC@@QAEPAVCBitmap@@PAV2@@Z 00423aa4 f   mfc100d:mfc100d.dll
 0001:00022aaa       ?GetBitmap@CBitmap@@QAEHPAUtagBITMAP@@@Z 00423aaa f   mfc100d:mfc100d.dll
 0001:00022ab0       ?CreateCompatibleDC@CDC@@QAEHPAV1@@Z 00423ab0 f   mfc100d:mfc100d.dll
 0001:00022ab6       ??0CDC@@QAE@XZ             00423ab6 f   mfc100d:mfc100d.dll
 0001:00022abc       ?SetBitmapBits@CBitmap@@QAEKKPBX@Z 00423abc f   mfc100d:mfc100d.dll
 0001:00022ac2       ?Format@?$CStringT@DV?$StrTraitMFC_DLL@DV?$ChTraitsCRT@D@ATL@@@@@ATL@@QAAXPBDZZ 00423ac2 f   mfc100d:mfc100d.dll
 0001:00022ac8       ??4?$CStringT@DV?$StrTraitMFC_DLL@DV?$ChTraitsCRT@D@ATL@@@@@ATL@@QAEAAV01@ABV01@@Z 00423ac8 f   mfc100d:mfc100d.dll
 0001:00022ace       ??4?$CStringT@DV?$StrTraitMFC_DLL@DV?$ChTraitsCRT@D@ATL@@@@@ATL@@QAEAAV01@PBD@Z 00423ace f   mfc100d:mfc100d.dll
 0001:00022ad4       ?SetWindowTextA@CWnd@@QAEXPBD@Z 00423ad4 f   mfc100d:mfc100d.dll
 0001:00022ada       ?AppendFormat@?$CStringT@DV?$StrTraitMFC_DLL@DV?$ChTraitsCRT@D@ATL@@@@@ATL@@QAAXPBDZZ 00423ada f   mfc100d:mfc100d.dll
 0001:00022ae0       ??0?$CStringT@DV?$StrTraitMFC_DLL@DV?$ChTraitsCRT@D@ATL@@@@@ATL@@QAE@ABV01@@Z 00423ae0 f   mfc100d:mfc100d.dll
 0001:00022ae6       ?Concatenate@?$CSimpleStringT@D$00@ATL@@KAXAAV12@PBDH1H@Z 00423ae6 f   mfc100d:mfc100d.dll
 0001:00022aec       ?GetLength@?$CSimpleStringT@D$00@ATL@@QBEHXZ 00423aec f   mfc100d:mfc100d.dll
 0001:00022af2       ??0?$CStringT@DV?$StrTraitMFC_DLL@DV?$ChTraitsCRT@D@ATL@@@@@ATL@@QAE@PAUIAtlStringMgr@1@@Z 00423af2 f   mfc100d:mfc100d.dll
 0001:00022af8       ?GetManager@?$CStringT@DV?$StrTraitMFC_DLL@DV?$ChTraitsCRT@D@ATL@@@@@ATL@@QBEPAUIAtlStringMgr@2@XZ 00423af8 f   mfc100d:mfc100d.dll
 0001:00022afe       ??1CButton@@UAE@XZ         00423afe f   mfc100d:mfc100d.dll
 0001:00022b04       ?Append@?$CSimpleStringT@D$00@ATL@@QAEXPBD@Z 00423b04 f   mfc100d:mfc100d.dll
 0001:00022b0a       ?ReleaseBuffer@?$CSimpleStringT@D$00@ATL@@QAEXH@Z 00423b0a f   mfc100d:mfc100d.dll
 0001:00022b10       ?GetBufferSetLength@?$CSimpleStringT@D$00@ATL@@QAEPADH@Z 00423b10 f   mfc100d:mfc100d.dll
 0001:00022b16       ?AfxAssertFailedLine@@YGHPBDH@Z 00423b16 f   mfc100d:mfc100d.dll
 0001:00022b1c       ?LoadBitmapA@CBitmap@@QAEHI@Z 00423b1c f   mfc100d:mfc100d.dll
 0001:00022b22       ??0?$CStringT@DV?$StrTraitMFC_DLL@DV?$ChTraitsCRT@D@ATL@@@@@ATL@@QAE@PBD@Z 00423b22 f   mfc100d:mfc100d.dll
 0001:00022b28       ??0CButton@@QAE@XZ         00423b28 f   mfc100d:mfc100d.dll
 0001:00022b2e       ?DDX_Text@@YGXPAVCDataExchange@@HAAV?$CStringT@DV?$StrTraitMFC_DLL@DV?$ChTraitsCRT@D@ATL@@@@@ATL@@@Z 00423b2e f   mfc100d:mfc100d.dll
 0001:00022b34       ?DDX_Radio@@YGXPAVCDataExchange@@HAAH@Z 00423b34 f   mfc100d:mfc100d.dll
 0001:00022b3a       ?DDV_MinMaxDouble@@YGXPAVCDataExchange@@ABNNN@Z 00423b3a f   mfc100d:mfc100d.dll
 0001:00022b40       ?DDX_Text@@YGXPAVCDataExchange@@HAAN@Z 00423b40 f   mfc100d:mfc100d.dll
 0001:00022b46       ?DDV_MinMaxLong@@YGXPAVCDataExchange@@JJJ@Z 00423b46 f   mfc100d:mfc100d.dll
 0001:00022b4c       ?DDX_Text@@YGXPAVCDataExchange@@HAAK@Z 00423b4c f   mfc100d:mfc100d.dll
 0001:00022b52       ?CheckDlgButton@CWnd@@QAEXHI@Z 00423b52 f   mfc100d:mfc100d.dll
 0001:00022b58       ?EnableWindow@CWnd@@QAEHH@Z 00423b58 f   mfc100d:mfc100d.dll
 0001:00022b5e       ?GetDlgItem@CWnd@@QBEPAV1@H@Z 00423b5e f   mfc100d:mfc100d.dll
 0001:00022b64       ?SetTimer@CWnd@@QAEIIIP6GXPAUHWND__@@IIK@Z@Z 00423b64 f   mfc100d:mfc100d.dll
 0001:00022b6a       ?KillTimer@CWnd@@QAEHI@Z   00423b6a f   mfc100d:mfc100d.dll
 0001:00022b70       ?SetBitmap@CStatic@@QAEPAUHBITMAP__@@PAU2@@Z 00423b70 f   mfc100d:mfc100d.dll
 0001:00022b76       ??BCBitmap@@QBEPAUHBITMAP__@@XZ 00423b76 f   mfc100d:mfc100d.dll
 0001:00022b7c       ??1CFileDialog@@UAE@XZ     00423b7c f   mfc100d:mfc100d.dll
 0001:00022b82       ?Left@?$CStringT@DV?$StrTraitMFC_DLL@DV?$ChTraitsCRT@D@ATL@@@@@ATL@@QBE?AV12@H@Z 00423b82 f   mfc100d:mfc100d.dll
 0001:00022b88       ?Find@?$CStringT@DV?$StrTraitMFC_DLL@DV?$ChTraitsCRT@D@ATL@@@@@ATL@@QBEHPBDH@Z 00423b88 f   mfc100d:mfc100d.dll
 0001:00022b8e       ?GetPathName@CFileDialog@@QBE?AV?$CStringT@DV?$StrTraitMFC_DLL@DV?$ChTraitsCRT@D@ATL@@@@@ATL@@XZ 00423b8e f   mfc100d:mfc100d.dll
 0001:00022b94       ?DoModal@CFileDialog@@UAEHXZ 00423b94 f   mfc100d:mfc100d.dll
 0001:00022b9a       ??0CFileDialog@@QAE@HPBD0K0PAVCWnd@@KH@Z 00423b9a f   mfc100d:mfc100d.dll
 0001:00022ba0       ?GetCheck@CButton@@QBEHXZ  00423ba0 f   mfc100d:mfc100d.dll
 0001:00022ba6       ?StringLength@?$CSimpleStringT@D$00@ATL@@SAHPBD@Z 00423ba6 f   mfc100d:mfc100d.dll
 0001:00022bac       ?GetThisClass@CDocument@@SGPAUCRuntimeClass@@XZ 00423bac f   mfc100d:mfc100d.dll
 0001:00022bb2       ??0CDocument@@QAE@XZ       00423bb2 f   mfc100d:mfc100d.dll
 0001:00022bb8       ?AssertValid@CDocument@@UBEXXZ 00423bb8 f   mfc100d:mfc100d.dll
 0001:00022bbe       ?Dump@CDocument@@UBEXAAVCDumpContext@@@Z 00423bbe f   mfc100d:mfc100d.dll
 0001:00022bc4       ?OnCmdMsg@CDocument@@UAEHIHPAXPAUAFX_CMDHANDLERINFO@@@Z 00423bc4 f   mfc100d:mfc100d.dll
 0001:00022bca       ?OnFinalRelease@CDocument@@UAEXXZ 00423bca f   mfc100d:mfc100d.dll
 0001:00022bd0       ?GetMessageMap@CDocument@@MBEPBUAFX_MSGMAP@@XZ 00423bd0 f   mfc100d:mfc100d.dll
 0001:00022bd6       ?SetTitle@CDocument@@UAEXPBD@Z 00423bd6 f   mfc100d:mfc100d.dll
 0001:00022bdc       ?SetPathName@CDocument@@UAEXPBDH@Z 00423bdc f   mfc100d:mfc100d.dll
 0001:00022be2       ?ClearPathName@CDocument@@UAEXXZ 00423be2 f   mfc100d:mfc100d.dll
 0001:00022be8       ?IsModified@CDocument@@UAEHXZ 00423be8 f   mfc100d:mfc100d.dll
 0001:00022bee       ?SetModifiedFlag@CDocument@@UAEXH@Z 00423bee f   mfc100d:mfc100d.dll
 0001:00022bf4       ?GetFirstViewPosition@CDocument@@UBEPAU__POSITION@@XZ 00423bf4 f   mfc100d:mfc100d.dll
 0001:00022bfa       ?GetNextView@CDocument@@UBEPAVCView@@AAPAU__POSITION@@@Z 00423bfa f   mfc100d:mfc100d.dll
 0001:00022c00       ?OnChangedViewList@CDocument@@UAEXXZ 00423c00 f   mfc100d:mfc100d.dll
 0001:00022c06       ?DeleteContents@CDocument@@UAEXXZ 00423c06 f   mfc100d:mfc100d.dll
 0001:00022c0c       ?OnOpenDocument@CDocument@@UAEHPBD@Z 00423c0c f   mfc100d:mfc100d.dll
 0001:00022c12       ?OnSaveDocument@CDocument@@UAEHPBD@Z 00423c12 f   mfc100d:mfc100d.dll
 0001:00022c18       ?OnCloseDocument@CDocument@@UAEXXZ 00423c18 f   mfc100d:mfc100d.dll
 0001:00022c1e       ?ReportSaveLoadException@CDocument@@UAEXPBDPAVCException@@HI@Z 00423c1e f   mfc100d:mfc100d.dll
 0001:00022c24       ?GetFile@CDocument@@UAEPAVCFile@@PBDIPAVCFileException@@@Z 00423c24 f   mfc100d:mfc100d.dll
 0001:00022c2a       ?ReleaseFile@CDocument@@UAEXPAVCFile@@H@Z 00423c2a f   mfc100d:mfc100d.dll
 0001:00022c30       ?OnRichPreviewUnload@CDocument@@UAEXXZ 00423c30 f   mfc100d:mfc100d.dll
 0001:00022c36       ?LoadDocumentFromStream@CDocument@@UAEJPAUIStream@@K@Z 00423c36 f   mfc100d:mfc100d.dll
 0001:00022c3c       ?GetThumbnail@CDocument@@UAEHIPAPAUHBITMAP__@@PAW4WTS_ALPHATYPE@@@Z 00423c3c f   mfc100d:mfc100d.dll
 0001:00022c42       ?ClearChunkList@CDocument@@UAEXXZ 00423c42 f   mfc100d:mfc100d.dll
 0001:00022c48       ?SetChunkValue@CDocument@@UAEHPAUIFilterChunkValue@ATL@@@Z 00423c48 f   mfc100d:mfc100d.dll
 0001:00022c4e       ?BeginReadChunks@CDocument@@UAEXXZ 00423c4e f   mfc100d:mfc100d.dll
 0001:00022c54       ?ReadNextChunkValue@CDocument@@UAEHPAPAUIFilterChunkValue@ATL@@@Z 00423c54 f   mfc100d:mfc100d.dll
 0001:00022c5a       ?RemoveChunk@CDocument@@UAEXABU_GUID@@K@Z 00423c5a f   mfc100d:mfc100d.dll
 0001:00022c60       ?FindChunk@CDocument@@UAEPAU__POSITION@@ABU_GUID@@K@Z 00423c60 f   mfc100d:mfc100d.dll
 0001:00022c66       ?OnDocumentEvent@CDocument@@UAEXW4DocumentEvent@1@@Z 00423c66 f   mfc100d:mfc100d.dll
 0001:00022c6c       ?CanCloseFrame@CDocument@@UAEHPAVCFrameWnd@@@Z 00423c6c f   mfc100d:mfc100d.dll
 0001:00022c72       ?SaveModified@CDocument@@UAEHXZ 00423c72 f   mfc100d:mfc100d.dll
 0001:00022c78       ?PreCloseFrame@CDocument@@UAEXPAVCFrameWnd@@@Z 00423c78 f   mfc100d:mfc100d.dll
 0001:00022c7e       ?DoSave@CDocument@@UAEHPBDH@Z 00423c7e f   mfc100d:mfc100d.dll
 0001:00022c84       ?DoFileSave@CDocument@@UAEHXZ 00423c84 f   mfc100d:mfc100d.dll
 0001:00022c8a       ?UpdateFrameCounts@CDocument@@UAEXXZ 00423c8a f   mfc100d:mfc100d.dll
 0001:00022c90       ?GetDefaultMenu@CDocument@@UAEPAUHMENU__@@XZ 00423c90 f   mfc100d:mfc100d.dll
 0001:00022c96       ?GetDefaultAccelerator@CDocument@@UAEPAUHACCEL__@@XZ 00423c96 f   mfc100d:mfc100d.dll
 0001:00022c9c       ?OnIdle@CDocument@@UAEXXZ  00423c9c f   mfc100d:mfc100d.dll
 0001:00022ca2       ?OnLoadDocumentFromStream@CDocument@@UAEJPAUIStream@@K@Z 00423ca2 f   mfc100d:mfc100d.dll
 0001:00022ca8       ?OnPreviewHandlerQueryFocus@CDocument@@UAEJPAPAUHWND__@@@Z 00423ca8 f   mfc100d:mfc100d.dll
 0001:00022cae       ?OnPreviewHandlerTranslateAccelerator@CDocument@@UAEJPAUtagMSG@@@Z 00423cae f   mfc100d:mfc100d.dll
 0001:00022cb4       ?OnCreatePreviewFrame@CDocument@@UAEHXZ 00423cb4 f   mfc100d:mfc100d.dll
 0001:00022cba       ?OnUnloadHandler@CDocument@@UAEXXZ 00423cba f   mfc100d:mfc100d.dll
 0001:00022cc0       ?OnDrawThumbnail@CDocument@@UAEXAAVCDC@@PAUtagRECT@@@Z 00423cc0 f   mfc100d:mfc100d.dll
 0001:00022cc6       ?Delete@CException@@QAEXXZ 00423cc6 f   mfc100d:mfc100d.dll
 0001:00022ccc       ??2@YAPAXI@Z               00423ccc f   mfc100d:mfc100d.dll
 0001:00022cd2       ?AfxAssertValidObject@@YGXPBVCObject@@PBDH@Z 00423cd2 f   mfc100d:mfc100d.dll
 0001:00022cd8       ??1CDocument@@UAE@XZ       00423cd8 f   mfc100d:mfc100d.dll
 0001:00022cde       ??1CEdit@@UAE@XZ           00423cde f   mfc100d:mfc100d.dll
 0001:00022ce4       ?SetDlgItemInt@CWnd@@QAEXHIH@Z 00423ce4 f   mfc100d:mfc100d.dll
 0001:00022cea       ?SetTicFreq@CSliderCtrl@@QAEXH@Z 00423cea f   mfc100d:mfc100d.dll
 0001:00022cf0       ?SetPos@CSliderCtrl@@QAEXH@Z 00423cf0 f   mfc100d:mfc100d.dll
 0001:00022cf6       ?SetRange@CSliderCtrl@@QAEXHHH@Z 00423cf6 f   mfc100d:mfc100d.dll
 0001:00022cfc       ??0CEdit@@QAE@XZ           00423cfc f   mfc100d:mfc100d.dll
 0001:00022d02       ?GetPos@CSliderCtrl@@QBEHXZ 00423d02 f   mfc100d:mfc100d.dll
 0001:00022d08       ?InvokeHelper@CWnd@@QAAXJGGPAXPBEZZ 00423d08 f   mfc100d:mfc100d.dll
 0001:00022d0e       ?SetProperty@CWnd@@QAAXJGZZ 00423d0e f   mfc100d:mfc100d.dll
 0001:00022d14       ?Append@?$CSimpleStringT@D$00@ATL@@QAEXABV12@@Z 00423d14 f   mfc100d:mfc100d.dll
 0001:00022d1a       ?AfxThrowOleException@@YGXJ@Z 00423d1a f   mfc100d:mfc100d.dll
 0001:00022d20       ?AfxThrowMemoryException@@YGXXZ 00423d20 f   mfc100d:mfc100d.dll
 0001:00022d26       ?IsWindowVisible@CWnd@@QBEHXZ 00423d26 f   mfc100d:mfc100d.dll
 0001:00022d2c       ?GetBuffer@?$CSimpleStringT@D$00@ATL@@QAEPADXZ 00423d2c f   mfc100d:mfc100d.dll
 0001:00022d32       ?Compare@?$CStringT@DV?$StrTraitMFC_DLL@DV?$ChTraitsCRT@D@ATL@@@@@ATL@@QBEHPBD@Z 00423d32 f   mfc100d:mfc100d.dll
 0001:00022d38       ??A?$CSimpleStringT@D$00@ATL@@QBEDH@Z 00423d38 f   mfc100d:mfc100d.dll
 0001:00022d3e       ??1CListBox@@UAE@XZ        00423d3e f   mfc100d:mfc100d.dll
 0001:00022d44       ??0CListBox@@QAE@XZ        00423d44 f   mfc100d:mfc100d.dll
 0001:00022d4a       ?DDX_LBIndex@@YGXPAVCDataExchange@@HAAH@Z 00423d4a f   mfc100d:mfc100d.dll
 0001:00022d50       ??1CFile@@UAE@XZ           00423d50 f   mfc100d:mfc100d.dll
 0001:00022d56       ?Close@CStdioFile@@UAEXXZ  00423d56 f   mfc100d:mfc100d.dll
 0001:00022d5c       ?AddString@CListBox@@QAEHPBD@Z 00423d5c f   mfc100d:mfc100d.dll
 0001:00022d62       ??1CStdioFile@@UAE@XZ      00423d62 f   mfc100d:mfc100d.dll
 0001:00022d68       ?InsertString@CListBox@@QAEHHPBD@Z 00423d68 f   mfc100d:mfc100d.dll
 0001:00022d6e       ?Right@?$CStringT@DV?$StrTraitMFC_DLL@DV?$ChTraitsCRT@D@ATL@@@@@ATL@@QBE?AV12@H@Z 00423d6e f   mfc100d:mfc100d.dll
 0001:00022d74       ?Trim@?$CStringT@DV?$StrTraitMFC_DLL@DV?$ChTraitsCRT@D@ATL@@@@@ATL@@QAEAAV12@XZ 00423d74 f   mfc100d:mfc100d.dll
 0001:00022d7a       ?ReadString@CStdioFile@@UAEHAAV?$CStringT@DV?$StrTraitMFC_DLL@DV?$ChTraitsCRT@D@ATL@@@@@ATL@@@Z 00423d7a f   mfc100d:mfc100d.dll
 0001:00022d80       ?GetCount@CListBox@@QBEHXZ 00423d80 f   mfc100d:mfc100d.dll
 0001:00022d86       ??0CStdioFile@@QAE@PBDI@Z  00423d86 f   mfc100d:mfc100d.dll
 0001:00022d8c       ?GetFileName@CFileDialog@@QBE?AV?$CStringT@DV?$StrTraitMFC_DLL@DV?$ChTraitsCRT@D@ATL@@@@@ATL@@XZ 00423d8c f   mfc100d:mfc100d.dll
 0001:00022d92       ?ResetContent@CListBox@@QAEXXZ 00423d92 f   mfc100d:mfc100d.dll
 0001:00022d98       ??0CFile@@QAE@XZ           00423d98 f   mfc100d:mfc100d.dll
 0001:00022d9e       ?MakeLower@?$CStringT@DV?$StrTraitMFC_DLL@DV?$ChTraitsCRT@D@ATL@@@@@ATL@@QAEAAV12@XZ 00423d9e f   mfc100d:mfc100d.dll
 0001:00022da4       ?GetText@CListBox@@QBEXHAAV?$CStringT@DV?$StrTraitMFC_DLL@DV?$ChTraitsCRT@D@ATL@@@@@ATL@@@Z 00423da4 f   mfc100d:mfc100d.dll
 0001:00022daa       ?GetThisClass@CFormView@@SGPAUCRuntimeClass@@XZ 00423daa f   mfc100d:mfc100d.dll
 0001:00022db0       ?GetThisMessageMap@CFormView@@KGPBUAFX_MSGMAP@@XZ 00423db0 f   mfc100d:mfc100d.dll
 0001:00022db6       ??0CFormView@@IAE@I@Z      00423db6 f   mfc100d:mfc100d.dll
 0001:00022dbc       ?AssertValid@CFormView@@UBEXXZ 00423dbc f   mfc100d:mfc100d.dll
 0001:00022dc2       ?Dump@CFormView@@UBEXAAVCDumpContext@@@Z 00423dc2 f   mfc100d:mfc100d.dll
 0001:00022dc8       ?OnCmdMsg@CView@@UAEHIHPAXPAUAFX_CMDHANDLERINFO@@@Z 00423dc8 f   mfc100d:mfc100d.dll
 0001:00022dce       ?Create@CFormView@@MAEHPBD0KABUtagRECT@@PAVCWnd@@IPAUCCreateContext@@@Z 00423dce f   mfc100d:mfc100d.dll
 0001:00022dd4       ?PreCreateWindow@CView@@MAEHAAUtagCREATESTRUCTA@@@Z 00423dd4 f   mfc100d:mfc100d.dll
 0001:00022dda       ?CalcWindowRect@CScrollView@@UAEXPAUtagRECT@@I@Z 00423dda f   mfc100d:mfc100d.dll
 0001:00022de0       ?GetScrollBarCtrl@CView@@UBEPAVCScrollBar@@H@Z 00423de0 f   mfc100d:mfc100d.dll
 0001:00022de6       ?PreTranslateMessage@CFormView@@MAEHPAUtagMSG@@@Z 00423de6 f   mfc100d:mfc100d.dll
 0001:00022dec       ?PostNcDestroy@CView@@MAEXXZ 00423dec f   mfc100d:mfc100d.dll
 0001:00022df2       ?SetOccDialogInfo@CFormView@@MAEHPAU_AFX_OCC_DIALOG_INFO@@@Z 00423df2 f   mfc100d:mfc100d.dll
 0001:00022df8       ?GetOccDialogInfo@CFormView@@MAEPAU_AFX_OCC_DIALOG_INFO@@XZ 00423df8 f   mfc100d:mfc100d.dll
 0001:00022dfe       ?IsSelected@CView@@UBEHPBVCObject@@@Z 00423dfe f   mfc100d:mfc100d.dll
 0001:00022e04       ?OnScroll@CScrollView@@UAEHIIH@Z 00423e04 f   mfc100d:mfc100d.dll
 0001:00022e0a       ?OnScrollBy@CScrollView@@UAEHVCSize@@H@Z 00423e0a f   mfc100d:mfc100d.dll
 0001:00022e10       ?OnDragEnter@CView@@UAEKPAVCOleDataObject@@KVCPoint@@@Z 00423e10 f   mfc100d:mfc100d.dll
 0001:00022e16       ?OnDragOver@CView@@UAEKPAVCOleDataObject@@KVCPoint@@@Z 00423e16 f   mfc100d:mfc100d.dll
 0001:00022e1c       ?OnDragLeave@CView@@UAEXXZ 00423e1c f   mfc100d:mfc100d.dll
 0001:00022e22       ?OnDrop@CView@@UAEHPAVCOleDataObject@@KVCPoint@@@Z 00423e22 f   mfc100d:mfc100d.dll
 0001:00022e28       ?OnDropEx@CView@@UAEKPAVCOleDataObject@@KKVCPoint@@@Z 00423e28 f   mfc100d:mfc100d.dll
 0001:00022e2e       ?OnDragScroll@CView@@UAEKKVCPoint@@@Z 00423e2e f   mfc100d:mfc100d.dll
 0001:00022e34       ?OnPrepareDC@CScrollView@@UAEXPAVCDC@@PAUCPrintInfo@@@Z 00423e34 f   mfc100d:mfc100d.dll
 0001:00022e3a       ?OnActivateView@CFormView@@MAEXHPAVCView@@0@Z 00423e3a f   mfc100d:mfc100d.dll
 0001:00022e40       ?OnActivateFrame@CFormView@@MAEXIPAVCFrameWnd@@@Z 00423e40 f   mfc100d:mfc100d.dll
 0001:00022e46       ?OnUpdate@CView@@MAEXPAV1@JPAVCObject@@@Z 00423e46 f   mfc100d:mfc100d.dll
 0001:00022e4c       ?OnDraw@CFormView@@MAEXPAVCDC@@@Z 00423e4c f   mfc100d:mfc100d.dll
 0001:00022e52       ?OnPreparePrinting@CView@@MAEHPAUCPrintInfo@@@Z 00423e52 f   mfc100d:mfc100d.dll
 0001:00022e58       ?OnBeginPrinting@CView@@MAEXPAVCDC@@PAUCPrintInfo@@@Z 00423e58 f   mfc100d:mfc100d.dll
 0001:00022e5e       ?OnPrint@CView@@MAEXPAVCDC@@PAUCPrintInfo@@@Z 00423e5e f   mfc100d:mfc100d.dll
 0001:00022e64       ?OnEndPrinting@CView@@MAEXPAVCDC@@PAUCPrintInfo@@@Z 00423e64 f   mfc100d:mfc100d.dll
 0001:00022e6a       ?OnEndPrintPreview@CView@@MAEXPAVCDC@@PAUCPrintInfo@@UtagPOINT@@PAVCPreviewView@@@Z 00423e6a f   mfc100d:mfc100d.dll
 0001:00022e70       ?GetWheelScrollDistance@CScrollView@@UAE?AVCSize@@V2@HH@Z 00423e70 f   mfc100d:mfc100d.dll
 0001:00022e76       ?GetAccessibleChild@CWnd@@QAEJUtagVARIANT@@PAPAUIDispatch@@@Z 00423e76 f   mfc100d:mfc100d.dll
 0001:00022e7c       ?GetAccessibleChildCount@CWnd@@QAEJXZ 00423e7c f   mfc100d:mfc100d.dll
 0001:00022e82       ?GetAccessibleName@CWnd@@QAEJUtagVARIANT@@PAPA_W@Z 00423e82 f   mfc100d:mfc100d.dll
 0001:00022e88       ?GetAccessibilityLocation@CWnd@@QAEJUtagVARIANT@@PAJ111@Z 00423e88 f   mfc100d:mfc100d.dll
 0001:00022e8e       ?GetAccessibilityHitTest@CWnd@@QAEJJJPAUtagVARIANT@@@Z 00423e8e f   mfc100d:mfc100d.dll
 0001:00022e94       ?OnInitialUpdate@CFormView@@UAEXXZ 00423e94 f   mfc100d:mfc100d.dll
 0001:00022e9a       ??1CFormView@@UAE@XZ       00423e9a f   mfc100d:mfc100d.dll
 0001:00022ea0       ??_Estringdispid@CComTypeInfoHolder@ATL@@QAEPAXI@Z 00423ea0 f i mfcs100d:nolib.obj
 0001:00022f10       ??1stringdispid@CComTypeInfoHolder@ATL@@QAE@XZ 00423f10 f i mfcs100d:nolib.obj
 0001:00022f30       ??1CComBSTR@ATL@@QAE@XZ    00423f30 f i mfcs100d:nolib.obj
 0001:00022f4a       ___CxxFrameHandler3        00423f4a f   msvcrtd:MSVCR100D.dll
 0001:00022f50       @__security_check_cookie@4 00423f50 f   msvcrtd:secchk.obj
 0001:00022f60       ??0type_info@@AAE@ABV0@@Z  00423f60 f   msvcrtd:ti_inst.obj
 0001:00022f80       ??_Etype_info@@UAEPAXI@Z   00423f80 f i msvcrtd:ti_inst.obj
 0001:00022ff0       ??4type_info@@AAEAAV0@ABV0@@Z 00423ff0 f   msvcrtd:ti_inst.obj
 0001:00023002       _strlen                    00424002 f   msvcrtd:MSVCR100D.dll
 0001:00023010       __onexit                   00424010 f   msvcrtd:atonexit.obj
 0001:00023110       _atexit                    00424110 f   msvcrtd:atonexit.obj
 0001:00023130       __ftol2_sse                00424130 f   msvcrtd:ftol2.obj
 0001:00023139       __ftol2_pentium4           00424139 f   msvcrtd:ftol2.obj
 0001:0002314c       __ftol2_sse_excpt          0042414c f   msvcrtd:ftol2.obj
 0001:00023166       __ftol2                    00424166 f   msvcrtd:ftol2.obj
 0001:000231dc       _fclose                    004241dc f   msvcrtd:MSVCR100D.dll
 0001:000231e2       _exp                       004241e2 f   msvcrtd:MSVCR100D.dll
 0001:000231e8       _srand                     004241e8 f   msvcrtd:MSVCR100D.dll
 0001:000231ee       __getpid                   004241ee f   msvcrtd:MSVCR100D.dll
 0001:000231f4       _cos                       004241f4 f   msvcrtd:MSVCR100D.dll
 0001:000231fa       _sqrt                      004241fa f   msvcrtd:MSVCR100D.dll
 0001:00023200       _log                       00424200 f   msvcrtd:MSVCR100D.dll
 0001:00023206       _rand                      00424206 f   msvcrtd:MSVCR100D.dll
 0001:0002320c       _fopen                     0042420c f   msvcrtd:MSVCR100D.dll
 0001:00023212       _fwrite                    00424212 f   msvcrtd:MSVCR100D.dll
 0001:00023218       _fflush                    00424218 f   msvcrtd:MSVCR100D.dll
 0001:0002321e       _fprintf                   0042421e f   msvcrtd:MSVCR100D.dll
 0001:00023224       _pow                       00424224 f   msvcrtd:MSVCR100D.dll
 0001:0002322a       __purecall                 0042422a f   msvcrtd:MSVCR100D.dll
 0001:00023230       _strftime                  00424230 f   msvcrtd:MSVCR100D.dll
 0001:00023236       __localtime64_s            00424236 f   msvcrtd:MSVCR100D.dll
 0001:0002323c       _atof                      0042423c f   msvcrtd:MSVCR100D.dll
 0001:00023242       _atol                      00424242 f   msvcrtd:MSVCR100D.dll
 0001:00023248       _sprintf                   00424248 f   msvcrtd:MSVCR100D.dll
 0001:0002324e       _sscanf                    0042424e f   msvcrtd:MSVCR100D.dll
 0001:00023254       _system                    00424254 f   msvcrtd:MSVCR100D.dll
 0001:00023350       _WinMainCRTStartup         00424350 f   msvcrtd:crtexew.obj
 0001:00023670       _NtCurrentTeb              00424670 f i msvcrtd:crtexew.obj
 0001:000236ee       _free                      004246ee f   msvcrtd:MSVCR100D.dll
 0001:000236f4       __finite                   004246f4 f   msvcrtd:MSVCR100D.dll
 0001:000236fa       _malloc                    004246fa f   msvcrtd:MSVCR100D.dll
 0001:00023700       ___iob_func                00424700 f   msvcrtd:MSVCR100D.dll
 0001:00023706       _exit                      00424706 f   msvcrtd:MSVCR100D.dll
 0001:0002370c       __CIlog10                  0042470c f   msvcrtd:MSVCR100D.dll
 0001:00023712       __CIsqrt                   00424712 f   msvcrtd:MSVCR100D.dll
 0001:00023718       _memcpy                    00424718 f   msvcrtd:MSVCR100D.dll
 0001:00023720       ??_M@YGXPAXIHP6EX0@Z@Z     00424720 f   msvcrtd:ehvecdtr.obj
 0001:000237e0       ?__ArrayUnwind@@YGXPAXIHP6EX0@Z@Z 004247e0 f   msvcrtd:ehvecdtr.obj
 0001:000238a0       ___report_gsfailure        004248a0 f   msvcrtd:gs_report.obj
 0001:000239ae       __unlock                   004249ae f   msvcrtd:MSVCR100D.dll
 0001:000239b4       ___dllonexit               004249b4 f   msvcrtd:MSVCR100D.dll
 0001:000239ba       __lock                     004249ba f   msvcrtd:MSVCR100D.dll
 0001:000239c0       __except_handler4          004249c0 f   msvcrtd:chandler4gs.obj
 0001:000239f0       ___sse2_available_init     004249f0 f   msvcrtd:cpu_disp.obj
 0001:00023a10       ?__CxxUnhandledExceptionFilter@@YGJPAU_EXCEPTION_POINTERS@@@Z 00424a10 f   msvcrtd:unhandld.obj
 0001:00023a80       ___CxxSetUnhandledExceptionFilter 00424a80 f   msvcrtd:unhandld.obj
 0001:00023a94       __configthreadlocale       00424a94 f   msvcrtd:MSVCR100D.dll
 0001:00023aa0       __setdefaultprecision      00424aa0 f   msvcrtd:fp8.obj
 0001:00023ae0       __invoke_watson_if_error   00424ae0 f i msvcrtd:fp8.obj
 0001:00023b08       ___setusermatherr          00424b08 f   msvcrtd:MSVCR100D.dll
 0001:00023b10       __matherr                  00424b10 f   msvcrtd:merr.obj
 0001:00023b20       __setargv                  00424b20 f   msvcrtd:dllargv.obj
 0001:00023b30       __RTC_Initialize           00424b30 f   msvcrtd:_initsect_.obj
 0001:00023b60       __RTC_Terminate            00424b60 f   msvcrtd:_initsect_.obj
 0001:00023b86       ___set_app_type            00424b86 f   msvcrtd:MSVCR100D.dll
 0001:00023b8c       __amsg_exit                00424b8c f   msvcrtd:MSVCR100D.dll
 0001:00023b92       ___getmainargs             00424b92 f   msvcrtd:MSVCR100D.dll
 0001:00023ba0       ___security_init_cookie    00424ba0 f   msvcrtd:gs_support.obj
 0001:00023c80       __exit                     00424c80 f   msvcrtd:MSVCR100D.dll
 0001:00023c86       __XcptFilter               00424c86 f   msvcrtd:MSVCR100D.dll
 0001:00023c8c       __cexit                    00424c8c f   msvcrtd:MSVCR100D.dll
 0001:00023c92       __ismbblead                00424c92 f   msvcrtd:MSVCR100D.dll
 0001:00023c98       __CrtSetCheckCount         00424c98 f   msvcrtd:MSVCR100D.dll
 0001:00023ca0       __ValidateImageBase        00424ca0 f   msvcrtd:pesect.obj
 0001:00023d00       __FindPESection            00424d00 f   msvcrtd:pesect.obj
 0001:00023d80       __IsNonwritableInCurrentImage 00424d80 f   msvcrtd:pesect.obj
 0001:00023e92       __CrtDbgReportW            00424e92 f   msvcrtd:MSVCR100D.dll
 0001:00023e98       __initterm                 00424e98 f   msvcrtd:MSVCR100D.dll
 0001:00023e9e       __initterm_e               00424e9e f   msvcrtd:MSVCR100D.dll
 0001:00023ea4       ?terminate@@YAXXZ          00424ea4 f   msvcrtd:MSVCR100D.dll
 0001:00023eaa       __crt_debugger_hook        00424eaa f   msvcrtd:MSVCR100D.dll
 0001:00023eb0       ?_type_info_dtor_internal_method@type_info@@QAEXXZ 00424eb0 f   msvcrtd:MSVCR100D.dll
 0001:00023eb0       ??1type_info@@UAE@XZ       00424eb0 f   msvcrtd:MSVCR100D.dll
 0001:00023eb6       __except_handler4_common   00424eb6 f   msvcrtd:MSVCR100D.dll
 0001:00023ebc       __controlfp_s              00424ebc f   msvcrtd:MSVCR100D.dll
 0001:00023ec2       __invoke_watson            00424ec2 f   msvcrtd:MSVCR100D.dll
 0001:00023ec8       _CloseHandle@4             00424ec8 f   kernel32:KERNEL32.dll
 0001:00023ece       _SetCommState@8            00424ece f   kernel32:KERNEL32.dll
 0001:00023ed4       _SetCommTimeouts@8         00424ed4 f   kernel32:KERNEL32.dll
 0001:00023eda       _GetCommState@8            00424eda f   kernel32:KERNEL32.dll
 0001:00023ee0       _CreateFileA@28            00424ee0 f   kernel32:KERNEL32.dll
 0001:00023ee6       _GetLastError@0            00424ee6 f   kernel32:KERNEL32.dll
 0001:00023eec       _WriteFile@20              00424eec f   kernel32:KERNEL32.dll
 0001:00023ef2       _CreateEventA@16           00424ef2 f   kernel32:KERNEL32.dll
 0001:00023ef8       _GetOverlappedResult@16    00424ef8 f   kernel32:KERNEL32.dll
 0001:00023efe       _ReadFile@20               00424efe f   kernel32:KERNEL32.dll
 0001:00023f04       _GetCurrentDirectoryA@8    00424f04 f   kernel32:KERNEL32.dll
 0001:00023f0a       _Sleep@4                   00424f0a f   kernel32:KERNEL32.dll
 0001:00023f10       _CreateThread@24           00424f10 f   kernel32:KERNEL32.dll
 0001:00023f16       _WaitForSingleObject@8     00424f16 f   kernel32:KERNEL32.dll
 0001:00023f1c       _QueryPerformanceCounter@4 00424f1c f   kernel32:KERNEL32.dll
 0001:00023f22       _QueryPerformanceFrequency@4 00424f22 f   kernel32:KERNEL32.dll
 0001:00023f28       _InterlockedIncrement@4    00424f28 f   kernel32:KERNEL32.dll
 0001:00023f2e       _InterlockedDecrement@4    00424f2e f   kernel32:KERNEL32.dll
 0001:00023f34       _FreeLibrary@4             00424f34 f   kernel32:KERNEL32.dll
 0001:00023f3a       _GetProcAddress@8          00424f3a f   kernel32:KERNEL32.dll
 0001:00023f40       _LoadLibraryA@4            00424f40 f   kernel32:KERNEL32.dll
 0001:00023f46       _EncodePointer@4           00424f46 f   kernel32:KERNEL32.dll
 0001:00023f4c       _DecodePointer@4           00424f4c f   kernel32:KERNEL32.dll
 0001:00023f52       _InterlockedExchange@8     00424f52 f   kernel32:KERNEL32.dll
 0001:00023f58       _InterlockedCompareExchange@12 00424f58 f   kernel32:KERNEL32.dll
 0001:00023f5e       _HeapSetInformation@16     00424f5e f   kernel32:KERNEL32.dll
 0001:00023f64       _GetStartupInfoW@4         00424f64 f   kernel32:KERNEL32.dll
 0001:00023f6a       _TerminateProcess@8        00424f6a f   kernel32:KERNEL32.dll
 0001:00023f70       _GetCurrentProcess@0       00424f70 f   kernel32:KERNEL32.dll
 0001:00023f76       _UnhandledExceptionFilter@4 00424f76 f   kernel32:KERNEL32.dll
 0001:00023f7c       _SetUnhandledExceptionFilter@4 00424f7c f   kernel32:KERNEL32.dll
 0001:00023f82       _IsDebuggerPresent@0       00424f82 f   kernel32:KERNEL32.dll
 0001:00023f88       _IsProcessorFeaturePresent@4 00424f88 f   kernel32:KERNEL32.dll
 0001:00023f8e       _GetTickCount@0            00424f8e f   kernel32:KERNEL32.dll
 0001:00023f94       _GetCurrentThreadId@0      00424f94 f   kernel32:KERNEL32.dll
 0001:00023f9a       _GetCurrentProcessId@0     00424f9a f   kernel32:KERNEL32.dll
 0001:00023fa0       _GetSystemTimeAsFileTime@4 00424fa0 f   kernel32:KERNEL32.dll
 0001:00023fa6       _InitCommonControlsEx@4    00424fa6 f   comctl32:COMCTL32.dll
 0001:00023fb0       ??0CAtlAllocator@@QAE@XZ   00424fb0 f i atlsd:Externs.obj
 0001:00024000       ??0CTraceSnapshot@@QAE@XZ  00425000 f i atlsd:Externs.obj
 0001:00024030       ??0?$CSimpleArray@UCModuleInfo@CTraceSnapshot@@V?$CSimpleArrayEqualHelper@UCModuleInfo@CTraceSnapshot@@@ATL@@@ATL@@QAE@XZ 00425030 f i atlsd:Externs.obj
 0001:00024060       ??0?$CSimpleArray@KV?$CSimpleArrayEqualHelper@K@ATL@@@ATL@@QAE@XZ 00425060 f i atlsd:Externs.obj
 0001:00024180       ??0CAtlException@ATL@@QAE@J@Z 00425180 f i atlsd:Externs.obj
 0001:000241a0       ?AtlCrtErrorCheck@ATL@@YAHH@Z 004251a0 f i atlsd:Externs.obj
 0001:00024260       ?_AtlRaiseException@ATL@@YAXKK@Z 00425260 f i atlsd:Externs.obj
 0001:00024280       ??0CTrace@ATL@@AAE@P6AHHPBDH00ZZ@Z 00425280 f i atlsd:Externs.obj
 0001:000242c0       ??1CAtlAllocator@@QAE@XZ   004252c0 f i atlsd:Externs.obj
 0001:000242e0       ??1CTraceSnapshot@@QAE@XZ  004252e0 f i atlsd:Externs.obj
 0001:00024300       ??1?$CSimpleArray@UCModuleInfo@CTraceSnapshot@@V?$CSimpleArrayEqualHelper@UCModuleInfo@CTraceSnapshot@@@ATL@@@ATL@@QAE@XZ 00425300 f i atlsd:Externs.obj
 0001:00024320       ??1?$CSimpleArray@KV?$CSimpleArrayEqualHelper@K@ATL@@@ATL@@QAE@XZ 00425320 f i atlsd:Externs.obj
 0001:00024340       ?RemoveAll@?$CSimpleArray@UCModuleInfo@CTraceSnapshot@@V?$CSimpleArrayEqualHelper@UCModuleInfo@CTraceSnapshot@@@ATL@@@ATL@@QAEXXZ 00425340 f i atlsd:Externs.obj
 0001:000243b0       ?RemoveAll@?$CSimpleArray@KV?$CSimpleArrayEqualHelper@K@ATL@@@ATL@@QAEXXZ 004253b0 f i atlsd:Externs.obj
 0001:00024420       ??1CTrace@ATL@@AAE@XZ      00425420 f i atlsd:Externs.obj
 0001:00024440       ??0CTraceCategory@ATL@@QAE@PBDI@Z 00425440 f i atlsd:atltrace.obj
 0001:00024490       ?ChangeCategory@CTrace@ATL@@QAE_NKIW4ATLTRACESTATUS@2@@Z 00425490 f i atlsd:atltrace.obj
 0001:000244c0       ?RegisterCategory@CTrace@ATL@@QAEKPBD@Z 004254c0 f i atlsd:atltrace.obj
 0001:000244e0       ?NotifyTool@ATL@@YGXXZ     004254e0 f   atlsd:AtlDebugAPI.obj
 0001:00024520       _AtlTraceRegister@8        00425520 f   atlsd:AtlDebugAPI.obj
 0001:000245a0       _AtlTraceUnregister@4      004255a0 f   atlsd:AtlDebugAPI.obj
 0001:000245d0       _AtlTraceRegisterCategoryA@8 004255d0 f   atlsd:AtlDebugAPI.obj
 0001:00024640       _AtlTraceRegisterCategoryU@8 00425640 f   atlsd:AtlDebugAPI.obj
 0001:00024690       _AtlTraceModifyProcess@20  00425690 f   atlsd:AtlDebugAPI.obj
 0001:00024730       ?GetProcess@CAtlAllocator@@QBEPAVCAtlTraceProcess@@XZ 00425730 f i atlsd:AtlDebugAPI.obj
 0001:00024750       _AtlTraceModifyModule@16   00425750 f   atlsd:AtlDebugAPI.obj
 0001:00024840       _AtlTraceModifyCategory@16 00425840 f   atlsd:AtlDebugAPI.obj
 0001:000248f0       _AtlTraceGetProcess@20     004258f0 f   atlsd:AtlDebugAPI.obj
 0001:000249d0       _AtlTraceGetModule@16      004259d0 f   atlsd:AtlDebugAPI.obj
 0001:00024ae0       _AtlTraceGetCategory@16    00425ae0 f   atlsd:AtlDebugAPI.obj
 0001:00024bc0       _AtlTraceGetUpdateEventNameA@4 00425bc0 f   atlsd:AtlDebugAPI.obj
 0001:00024bf0       _AtlTraceGetUpdateEventNameA_s@8 00425bf0 f   atlsd:AtlDebugAPI.obj
 0001:00024c20       _AtlTraceGetUpdateEventNameU@4 00425c20 f   atlsd:AtlDebugAPI.obj
 0001:00024c90       _AtlTraceGetUpdateEventNameU_s@8 00425c90 f   atlsd:AtlDebugAPI.obj
 0001:00024d00       _AtlTraceVA                00425d00 f   atlsd:AtlDebugAPI.obj
 0001:00025020       ?Name@CAtlTraceCategory@@QBEPB_WXZ 00426020 f i atlsd:AtlDebugAPI.obj
 0001:00025040       _AtlTraceVU                00426040 f   atlsd:AtlDebugAPI.obj
 0001:00025390       _AtlTraceOpenProcess@4     00426390 f   atlsd:AtlDebugAPI.obj
 0001:00025490       ??_GCAtlAllocator@@QAEPAXI@Z 00426490 f i atlsd:AtlDebugAPI.obj
 0001:000254c0       _AtlTraceCloseProcess@4    004264c0 f   atlsd:AtlDebugAPI.obj
 0001:00025560       _AtlTraceSnapshotProcess@4 00426560 f   atlsd:AtlDebugAPI.obj
 0001:000255d0       _AtlTraceGetProcessInfo@8  004265d0 f   atlsd:AtlDebugAPI.obj
 0001:00025770       ?Path@CAtlTraceModuleInfo@@QBEPB_WXZ 00426770 f i atlsd:AtlDebugAPI.obj
 0001:00025790       ?Name@CAtlTraceModuleInfo@@QBEPB_WXZ 00426790 f i atlsd:AtlDebugAPI.obj
 0001:000257b0       ?Id@CAtlTraceProcess@@QBEKXZ 004267b0 f i atlsd:AtlDebugAPI.obj
 0001:000257d0       _AtlTraceGetModuleInfo@12  004267d0 f   atlsd:AtlDebugAPI.obj
 0001:00025970       _AtlTraceGetCategoryInfo@16 00426970 f   atlsd:AtlDebugAPI.obj
 0001:00025d00       ?CrtDbgReport@CAtlTraceModule@@QBEP6AHHPBDH00ZZXZ 00426d00 f i atlsd:AtlDebugAPI.obj
 0001:00025d20       ?_IsTracingEnabled@ATL@@YA_NKKI@Z 00426d20 f   atlsd:AtlDebugAPI.obj
 0001:00025d60       ?GetSize@?$CSimpleArray@UCModuleInfo@CTraceSnapshot@@V?$CSimpleArrayEqualHelper@UCModuleInfo@CTraceSnapshot@@@ATL@@@ATL@@QBEHXZ 00426d60 f i atlsd:AtlDebugAPI.obj
 0001:00025d80       ??A?$CSimpleArray@UCModuleInfo@CTraceSnapshot@@V?$CSimpleArrayEqualHelper@UCModuleInfo@CTraceSnapshot@@@ATL@@@ATL@@QAEAAUCModuleInfo@CTraceSnapshot@@H@Z 00426d80 f i atlsd:AtlDebugAPI.obj
 0001:00025df0       ?strcpy_s@Checked@ATL@@YAXPADIPBD@Z 00426df0 f i atlsd:AtlDebugAPI.obj
 0001:00025e20       ?wcscpy_s@Checked@ATL@@YAXPA_WIPB_W@Z 00426e20 f i atlsd:AtlDebugAPI.obj
 0001:00025e50       ??0?$CA2WEX@$0IA@@ATL@@QAE@PBD@Z 00426e50 f i atlsd:AtlDebugAPI.obj
 0001:00025e80       ?_AtlGetConversionACP@ATL@@YGIXZ 00426e80 f i atlsd:AtlDebugAPI.obj
 0001:00025e90       ??1?$CA2WEX@$0IA@@ATL@@QAE@XZ 00426e90 f i atlsd:AtlDebugAPI.obj
 0001:00025ec0       ??B?$CA2WEX@$0IA@@ATL@@QBEPA_WXZ 00426ec0 f i atlsd:AtlDebugAPI.obj
 0001:00025ee0       ?Init@?$CA2WEX@$0IA@@ATL@@AAEXPBDI@Z 00426ee0 f i atlsd:AtlDebugAPI.obj
 0001:00025fe0       ?AtlThrowLastWin32@ATL@@YGXXZ 00426fe0 f i atlsd:AtlDebugAPI.obj
 0001:00026010       _HRESULT_FROM_WIN32        00427010 f i atlsd:AtlDebugAPI.obj
 0001:00026050       ??$AtlConvFreeMemory@_W@ATL@@YAXPA_W0H@Z 00427050 f i atlsd:AtlDebugAPI.obj
 0001:00026090       ??$AtlConvAllocMemory@_W@ATL@@YAXPAPA_WHPA_WH@Z 00427090 f i atlsd:AtlDebugAPI.obj
 0001:00026220       ??0CSize@@QAE@XZ           00427220 f   atlsd:atltypes.obj
 0001:00026250       ??0CSize@@QAE@HH@Z         00427250 f   atlsd:atltypes.obj
 0001:00026280       ??0CSize@@QAE@UtagSIZE@@@Z 00427280 f   atlsd:atltypes.obj
 0001:000262a0       ??0CSize@@QAE@UtagPOINT@@@Z 004272a0 f   atlsd:atltypes.obj
 0001:000262c0       ??0CSize@@QAE@K@Z          004272c0 f   atlsd:atltypes.obj
 0001:00026300       ??8CSize@@QBEHUtagSIZE@@@Z 00427300 f   atlsd:atltypes.obj
 0001:00026340       ??9CSize@@QBEHUtagSIZE@@@Z 00427340 f   atlsd:atltypes.obj
 0001:00026380       ??YCSize@@QAEXUtagSIZE@@@Z 00427380 f   atlsd:atltypes.obj
 0001:000263b0       ??ZCSize@@QAEXUtagSIZE@@@Z 004273b0 f   atlsd:atltypes.obj
 0001:000263e0       ?SetSize@CSize@@QAEXHH@Z   004273e0 f   atlsd:atltypes.obj
 0001:00026400       ??HCSize@@QBE?AV0@UtagSIZE@@@Z 00427400 f   atlsd:atltypes.obj
 0001:00026430       ??GCSize@@QBE?AV0@UtagSIZE@@@Z 00427430 f   atlsd:atltypes.obj
 0001:00026460       ??GCSize@@QBE?AV0@XZ       00427460 f   atlsd:atltypes.obj
 0001:00026490       ??HCSize@@QBE?AVCPoint@@UtagPOINT@@@Z 00427490 f   atlsd:atltypes.obj
 0001:000264c0       ??GCSize@@QBE?AVCPoint@@UtagPOINT@@@Z 004274c0 f   atlsd:atltypes.obj
 0001:000264f0       ??HCSize@@QBE?AVCRect@@PBUtagRECT@@@Z 004274f0 f   atlsd:atltypes.obj
 0001:00026550       ??GCSize@@QBE?AVCRect@@PBUtagRECT@@@Z 00427550 f   atlsd:atltypes.obj
 0001:000265b0       ??0CPoint@@QAE@XZ          004275b0 f   atlsd:atltypes.obj
 0001:000265e0       ??0CPoint@@QAE@HH@Z        004275e0 f   atlsd:atltypes.obj
 0001:00026610       ??0CPoint@@QAE@UtagPOINT@@@Z 00427610 f   atlsd:atltypes.obj
 0001:00026630       ??0CPoint@@QAE@UtagSIZE@@@Z 00427630 f   atlsd:atltypes.obj
 0001:00026650       ??0CPoint@@QAE@J@Z         00427650 f   atlsd:atltypes.obj
 0001:00026690       ?Offset@CPoint@@QAEXHH@Z   00427690 f   atlsd:atltypes.obj
 0001:000266c0       ?Offset@CPoint@@QAEXUtagPOINT@@@Z 004276c0 f   atlsd:atltypes.obj
 0001:000266f0       ?Offset@CPoint@@QAEXUtagSIZE@@@Z 004276f0 f   atlsd:atltypes.obj
 0001:00026720       ?SetPoint@CPoint@@QAEXHH@Z 00427720 f   atlsd:atltypes.obj
 0001:00026740       ??8CPoint@@QBEHUtagPOINT@@@Z 00427740 f   atlsd:atltypes.obj
 0001:00026780       ??9CPoint@@QBEHUtagPOINT@@@Z 00427780 f   atlsd:atltypes.obj
 0001:000267c0       ??YCPoint@@QAEXUtagSIZE@@@Z 004277c0 f   atlsd:atltypes.obj
 0001:000267f0       ??ZCPoint@@QAEXUtagSIZE@@@Z 004277f0 f   atlsd:atltypes.obj
 0001:00026820       ??YCPoint@@QAEXUtagPOINT@@@Z 00427820 f   atlsd:atltypes.obj
 0001:00026850       ??ZCPoint@@QAEXUtagPOINT@@@Z 00427850 f   atlsd:atltypes.obj
 0001:00026880       ??HCPoint@@QBE?AV0@UtagSIZE@@@Z 00427880 f   atlsd:atltypes.obj
 0001:000268b0       ??GCPoint@@QBE?AV0@UtagSIZE@@@Z 004278b0 f   atlsd:atltypes.obj
 0001:000268e0       ??GCPoint@@QBE?AV0@XZ      004278e0 f   atlsd:atltypes.obj
 0001:00026910       ??HCPoint@@QBE?AV0@UtagPOINT@@@Z 00427910 f   atlsd:atltypes.obj
 0001:00026940       ??GCPoint@@QBE?AVCSize@@UtagPOINT@@@Z 00427940 f   atlsd:atltypes.obj
 0001:00026970       ??HCPoint@@QBE?AVCRect@@PBUtagRECT@@@Z 00427970 f   atlsd:atltypes.obj
 0001:000269d0       ??GCPoint@@QBE?AVCRect@@PBUtagRECT@@@Z 004279d0 f   atlsd:atltypes.obj
 0001:00026a30       ??0CRect@@QAE@XZ           00427a30 f   atlsd:atltypes.obj
 0001:00026a70       ??0CRect@@QAE@HHHH@Z       00427a70 f   atlsd:atltypes.obj
 0001:00026ab0       ??0CRect@@QAE@ABUtagRECT@@@Z 00427ab0 f   atlsd:atltypes.obj
 0001:00026ad0       ??0CRect@@QAE@PBUtagRECT@@@Z 00427ad0 f   atlsd:atltypes.obj
 0001:00026af0       ??0CRect@@QAE@UtagPOINT@@UtagSIZE@@@Z 00427af0 f   atlsd:atltypes.obj
 0001:00026b30       ??0CRect@@QAE@UtagPOINT@@0@Z 00427b30 f   atlsd:atltypes.obj
 0001:00026b70       ?Width@CRect@@QBEHXZ       00427b70 f   atlsd:atltypes.obj
 0001:00026b90       ?Height@CRect@@QBEHXZ      00427b90 f   atlsd:atltypes.obj
 0001:00026bb0       ?Size@CRect@@QBE?AVCSize@@XZ 00427bb0 f   atlsd:atltypes.obj
 0001:00026bf0       ?TopLeft@CRect@@QAEAAVCPoint@@XZ 00427bf0 f   atlsd:atltypes.obj
 0001:00026c00       ?BottomRight@CRect@@QAEAAVCPoint@@XZ 00427c00 f   atlsd:atltypes.obj
 0001:00026c20       ?TopLeft@CRect@@QBEABVCPoint@@XZ 00427c20 f   atlsd:atltypes.obj
 0001:00026c30       ?BottomRight@CRect@@QBEABVCPoint@@XZ 00427c30 f   atlsd:atltypes.obj
 0001:00026c50       ?CenterPoint@CRect@@QBE?AVCPoint@@XZ 00427c50 f   atlsd:atltypes.obj
 0001:00026c90       ?SwapLeftRight@CRect@@QAEXXZ 00427c90 f   atlsd:atltypes.obj
 0001:00026cb0       ?SwapLeftRight@CRect@@SGXPAUtagRECT@@@Z 00427cb0 f   atlsd:atltypes.obj
 0001:00026ce0       ??BCRect@@QAEPAUtagRECT@@XZ 00427ce0 f   atlsd:atltypes.obj
 0001:00026cf0       ??BCRect@@QBEPBUtagRECT@@XZ 00427cf0 f   atlsd:atltypes.obj
 0001:00026d00       ?IsRectEmpty@CRect@@QBEHXZ 00427d00 f   atlsd:atltypes.obj
 0001:00026d20       ?IsRectNull@CRect@@QBEHXZ  00427d20 f   atlsd:atltypes.obj
 0001:00026d70       ?PtInRect@CRect@@QBEHUtagPOINT@@@Z 00427d70 f   atlsd:atltypes.obj
 0001:00026da0       ?SetRect@CRect@@QAEXHHHH@Z 00427da0 f   atlsd:atltypes.obj
 0001:00026dd0       ?SetRect@CRect@@QAEXUtagPOINT@@0@Z 00427dd0 f   atlsd:atltypes.obj
 0001:00026e00       ?SetRectEmpty@CRect@@QAEXXZ 00427e00 f   atlsd:atltypes.obj
 0001:00026e20       ?CopyRect@CRect@@QAEXPBUtagRECT@@@Z 00427e20 f   atlsd:atltypes.obj
 0001:00026e40       ?EqualRect@CRect@@QBEHPBUtagRECT@@@Z 00427e40 f   atlsd:atltypes.obj
 0001:00026e60       ?InflateRect@CRect@@QAEXHH@Z 00427e60 f   atlsd:atltypes.obj
 0001:00026e90       ?InflateRect@CRect@@QAEXUtagSIZE@@@Z 00427e90 f   atlsd:atltypes.obj
 0001:00026ec0       ?DeflateRect@CRect@@QAEXHH@Z 00427ec0 f   atlsd:atltypes.obj
 0001:00026ef0       ?DeflateRect@CRect@@QAEXUtagSIZE@@@Z 00427ef0 f   atlsd:atltypes.obj
 0001:00026f20       ?OffsetRect@CRect@@QAEXHH@Z 00427f20 f   atlsd:atltypes.obj
 0001:00026f50       ?OffsetRect@CRect@@QAEXUtagPOINT@@@Z 00427f50 f   atlsd:atltypes.obj
 0001:00026f80       ?OffsetRect@CRect@@QAEXUtagSIZE@@@Z 00427f80 f   atlsd:atltypes.obj
 0001:00026fb0       ?MoveToY@CRect@@QAEXH@Z    00427fb0 f   atlsd:atltypes.obj
 0001:00026fe0       ?MoveToX@CRect@@QAEXH@Z    00427fe0 f   atlsd:atltypes.obj
 0001:00027010       ?MoveToXY@CRect@@QAEXHH@Z  00428010 f   atlsd:atltypes.obj
 0001:00027040       ?MoveToXY@CRect@@QAEXUtagPOINT@@@Z 00428040 f   atlsd:atltypes.obj
 0001:00027070       ?IntersectRect@CRect@@QAEHPBUtagRECT@@0@Z 00428070 f   atlsd:atltypes.obj
 0001:000270a0       ?UnionRect@CRect@@QAEHPBUtagRECT@@0@Z 004280a0 f   atlsd:atltypes.obj
 0001:000270d0       ??4CRect@@QAEXABUtagRECT@@@Z 004280d0 f   atlsd:atltypes.obj
 0001:000270f0       ??8CRect@@QBEHABUtagRECT@@@Z 004280f0 f   atlsd:atltypes.obj
 0001:00027110       ??9CRect@@QBEHABUtagRECT@@@Z 00428110 f   atlsd:atltypes.obj
 0001:00027140       ??YCRect@@QAEXUtagPOINT@@@Z 00428140 f   atlsd:atltypes.obj
 0001:00027170       ??YCRect@@QAEXUtagSIZE@@@Z 00428170 f   atlsd:atltypes.obj
 0001:000271a0       ??YCRect@@QAEXPBUtagRECT@@@Z 004281a0 f   atlsd:atltypes.obj
 0001:000271c0       ??ZCRect@@QAEXUtagPOINT@@@Z 004281c0 f   atlsd:atltypes.obj
 0001:000271f0       ??ZCRect@@QAEXUtagSIZE@@@Z 004281f0 f   atlsd:atltypes.obj
 0001:00027220       ??ZCRect@@QAEXPBUtagRECT@@@Z 00428220 f   atlsd:atltypes.obj
 0001:00027240       ??_4CRect@@QAEXABUtagRECT@@@Z 00428240 f   atlsd:atltypes.obj
 0001:00027270       ??_5CRect@@QAEXABUtagRECT@@@Z 00428270 f   atlsd:atltypes.obj
 0001:000272a0       ??HCRect@@QBE?AV0@UtagPOINT@@@Z 004282a0 f   atlsd:atltypes.obj
 0001:00027310       ??GCRect@@QBE?AV0@UtagPOINT@@@Z 00428310 f   atlsd:atltypes.obj
 0001:00027390       ??HCRect@@QBE?AV0@UtagSIZE@@@Z 00428390 f   atlsd:atltypes.obj
 0001:00027400       ??GCRect@@QBE?AV0@UtagSIZE@@@Z 00428400 f   atlsd:atltypes.obj
 0001:00027480       ??HCRect@@QBE?AV0@PBUtagRECT@@@Z 00428480 f   atlsd:atltypes.obj
 0001:000274e0       ??GCRect@@QBE?AV0@PBUtagRECT@@@Z 004284e0 f   atlsd:atltypes.obj
 0001:00027540       ??ICRect@@QBE?AV0@ABUtagRECT@@@Z 00428540 f   atlsd:atltypes.obj
 0001:000275a0       ??UCRect@@QBE?AV0@ABUtagRECT@@@Z 004285a0 f   atlsd:atltypes.obj
 0001:00027600       ?SubtractRect@CRect@@QAEHPBUtagRECT@@0@Z 00428600 f   atlsd:atltypes.obj
 0001:00027630       ?NormalizeRect@CRect@@QAEXXZ 00428630 f   atlsd:atltypes.obj
 0001:000276a0       ?InflateRect@CRect@@QAEXPBUtagRECT@@@Z 004286a0 f   atlsd:atltypes.obj
 0001:00027700       ?InflateRect@CRect@@QAEXHHHH@Z 00428700 f   atlsd:atltypes.obj
 0001:00027750       ?DeflateRect@CRect@@QAEXPBUtagRECT@@@Z 00428750 f   atlsd:atltypes.obj
 0001:000277b0       ?DeflateRect@CRect@@QAEXHHHH@Z 004287b0 f   atlsd:atltypes.obj
 0001:00027800       ?MulDiv@CRect@@QBE?AV1@HH@Z 00428800 f   atlsd:atltypes.obj
 0001:00027880       ??0CTimeSpan@ATL@@QAE@XZ   00428880 f   atlsd:atltime.obj
 0001:000278a0       ??0CTimeSpan@ATL@@QAE@_J@Z 004288a0 f   atlsd:atltime.obj
 0001:000278c0       ??0CTimeSpan@ATL@@QAE@JHHH@Z 004288c0 f   atlsd:atltime.obj
 0001:00027940       ?GetDays@CTimeSpan@ATL@@QBE_JXZ 00428940 f   atlsd:atltime.obj
 0001:00027970       ?GetTotalHours@CTimeSpan@ATL@@QBE_JXZ 00428970 f   atlsd:atltime.obj
 0001:000279a0       ?GetHours@CTimeSpan@ATL@@QBEJXZ 004289a0 f   atlsd:atltime.obj
 0001:000279e0       ?GetTotalMinutes@CTimeSpan@ATL@@QBE_JXZ 004289e0 f   atlsd:atltime.obj
 0001:00027a00       ?GetMinutes@CTimeSpan@ATL@@QBEJXZ 00428a00 f   atlsd:atltime.obj
 0001:00027a40       ?GetTotalSeconds@CTimeSpan@ATL@@QBE_JXZ 00428a40 f   atlsd:atltime.obj
 0001:00027a60       ?GetSeconds@CTimeSpan@ATL@@QBEJXZ 00428a60 f   atlsd:atltime.obj
 0001:00027aa0       ?GetTimeSpan@CTimeSpan@ATL@@QBE_JXZ 00428aa0 f   atlsd:atltime.obj
 0001:00027ac0       ??HCTimeSpan@ATL@@QBE?AV01@V01@@Z 00428ac0 f   atlsd:atltime.obj
 0001:00027af0       ??GCTimeSpan@ATL@@QBE?AV01@V01@@Z 00428af0 f   atlsd:atltime.obj
 0001:00027b20       ??YCTimeSpan@ATL@@QAEAAV01@V01@@Z 00428b20 f   atlsd:atltime.obj
 0001:00027b50       ??ZCTimeSpan@ATL@@QAEAAV01@V01@@Z 00428b50 f   atlsd:atltime.obj
 0001:00027b80       ??8CTimeSpan@ATL@@QBE_NV01@@Z 00428b80 f   atlsd:atltime.obj
 0001:00027bc0       ??9CTimeSpan@ATL@@QBE_NV01@@Z 00428bc0 f   atlsd:atltime.obj
 0001:00027c00       ??MCTimeSpan@ATL@@QBE_NV01@@Z 00428c00 f   atlsd:atltime.obj
 0001:00027c50       ??OCTimeSpan@ATL@@QBE_NV01@@Z 00428c50 f   atlsd:atltime.obj
 0001:00027ca0       ??NCTimeSpan@ATL@@QBE_NV01@@Z 00428ca0 f   atlsd:atltime.obj
 0001:00027cf0       ??PCTimeSpan@ATL@@QBE_NV01@@Z 00428cf0 f   atlsd:atltime.obj
 0001:00027d40       ?GetTickCount@CTime@ATL@@SG?AV12@XZ 00428d40 f   atlsd:atltime.obj
 0001:00027d60       ?IsValidFILETIME@CTime@ATL@@SGHABU_FILETIME@@@Z 00428d60 f   atlsd:atltime.obj
 0001:00027dc0       ??0CTime@ATL@@QAE@XZ       00428dc0 f   atlsd:atltime.obj
 0001:00027de0       ??0CTime@ATL@@QAE@_J@Z     00428de0 f   atlsd:atltime.obj
 0001:00027e00       ??0CTime@ATL@@QAE@HHHHHHH@Z 00428e00 f   atlsd:atltime.obj
 0001:00028120       ??0CTime@ATL@@QAE@GGH@Z    00429120 f   atlsd:atltime.obj
 0001:00028220       ??0CTime@ATL@@QAE@ABU_SYSTEMTIME@@H@Z 00429220 f   atlsd:atltime.obj
 0001:000282c0       ??0CTime@ATL@@QAE@ABU_FILETIME@@H@Z 004292c0 f   atlsd:atltime.obj
 0001:00028370       ??4CTime@ATL@@QAEAAV01@_J@Z 00429370 f   atlsd:atltime.obj
 0001:00028390       ??YCTime@ATL@@QAEAAV01@VCTimeSpan@1@@Z 00429390 f   atlsd:atltime.obj
 0001:000283c0       ??ZCTime@ATL@@QAEAAV01@VCTimeSpan@1@@Z 004293c0 f   atlsd:atltime.obj
 0001:000283f0       ??GCTime@ATL@@QBE?AVCTimeSpan@1@V01@@Z 004293f0 f   atlsd:atltime.obj
 0001:00028420       ??GCTime@ATL@@QBE?AV01@VCTimeSpan@1@@Z 00429420 f   atlsd:atltime.obj
 0001:00028460       ??HCTime@ATL@@QBE?AV01@VCTimeSpan@1@@Z 00429460 f   atlsd:atltime.obj
 0001:00028490       ??8CTime@ATL@@QBE_NV01@@Z  00429490 f   atlsd:atltime.obj
 0001:000284d0       ??9CTime@ATL@@QBE_NV01@@Z  004294d0 f   atlsd:atltime.obj
 0001:00028510       ??MCTime@ATL@@QBE_NV01@@Z  00429510 f   atlsd:atltime.obj
 0001:00028560       ??OCTime@ATL@@QBE_NV01@@Z  00429560 f   atlsd:atltime.obj
 0001:000285b0       ??NCTime@ATL@@QBE_NV01@@Z  004295b0 f   atlsd:atltime.obj
 0001:00028600       ??PCTime@ATL@@QBE_NV01@@Z  00429600 f   atlsd:atltime.obj
 0001:00028650       ?GetGmtTm@CTime@ATL@@QBEPAUtm@@PAU3@@Z 00429650 f   atlsd:atltime.obj
 0001:00028700       ?GetLocalTm@CTime@ATL@@QBEPAUtm@@PAU3@@Z 00429700 f   atlsd:atltime.obj
 0001:000287b0       ?GetAsSystemTime@CTime@ATL@@QBE_NAAU_SYSTEMTIME@@@Z 004297b0 f   atlsd:atltime.obj
 0001:00028860       ?GetTime@CTime@ATL@@QBE_JXZ 00429860 f   atlsd:atltime.obj
 0001:00028880       ?GetYear@CTime@ATL@@QBEHXZ 00429880 f   atlsd:atltime.obj
 0001:000288e0       ?GetMonth@CTime@ATL@@QBEHXZ 004298e0 f   atlsd:atltime.obj
 0001:00028930       ?GetDay@CTime@ATL@@QBEHXZ  00429930 f   atlsd:atltime.obj
 0001:00028980       ?GetHour@CTime@ATL@@QBEHXZ 00429980 f   atlsd:atltime.obj
 0001:000289d0       ?GetMinute@CTime@ATL@@QBEHXZ 004299d0 f   atlsd:atltime.obj
 0001:00028a20       ?GetSecond@CTime@ATL@@QBEHXZ 00429a20 f   atlsd:atltime.obj
 0001:00028a70       ?GetDayOfWeek@CTime@ATL@@QBEHXZ 00429a70 f   atlsd:atltime.obj
 0001:00028ac0       ??0CFileTimeSpan@ATL@@QAE@XZ 00429ac0 f   atlsd:atltime.obj
 0001:00028ae0       ??0CFileTimeSpan@ATL@@QAE@ABV01@@Z 00429ae0 f   atlsd:atltime.obj
 0001:00028b10       ??0CFileTimeSpan@ATL@@QAE@_J@Z 00429b10 f   atlsd:atltime.obj
 0001:00028b30       ??4CFileTimeSpan@ATL@@QAEAAV01@ABV01@@Z 00429b30 f   atlsd:atltime.obj
 0001:00028b60       ??YCFileTimeSpan@ATL@@QAEAAV01@V01@@Z 00429b60 f   atlsd:atltime.obj
 0001:00028b90       ??ZCFileTimeSpan@ATL@@QAEAAV01@V01@@Z 00429b90 f   atlsd:atltime.obj
 0001:00028bc0       ??HCFileTimeSpan@ATL@@QBE?AV01@V01@@Z 00429bc0 f   atlsd:atltime.obj
 0001:00028bf0       ??GCFileTimeSpan@ATL@@QBE?AV01@V01@@Z 00429bf0 f   atlsd:atltime.obj
 0001:00028c20       ??8CFileTimeSpan@ATL@@QBE_NV01@@Z 00429c20 f   atlsd:atltime.obj
 0001:00028c60       ??9CFileTimeSpan@ATL@@QBE_NV01@@Z 00429c60 f   atlsd:atltime.obj
 0001:00028ca0       ??MCFileTimeSpan@ATL@@QBE_NV01@@Z 00429ca0 f   atlsd:atltime.obj
 0001:00028cf0       ??OCFileTimeSpan@ATL@@QBE_NV01@@Z 00429cf0 f   atlsd:atltime.obj
 0001:00028d40       ??NCFileTimeSpan@ATL@@QBE_NV01@@Z 00429d40 f   atlsd:atltime.obj
 0001:00028d90       ??PCFileTimeSpan@ATL@@QBE_NV01@@Z 00429d90 f   atlsd:atltime.obj
 0001:00028de0       ?GetTimeSpan@CFileTimeSpan@ATL@@QBE_JXZ 00429de0 f   atlsd:atltime.obj
 0001:00028e00       ?SetTimeSpan@CFileTimeSpan@ATL@@QAEX_J@Z 00429e00 f   atlsd:atltime.obj
 0001:00028e20       ??0CFileTime@ATL@@QAE@XZ   00429e20 f   atlsd:atltime.obj
 0001:00028e50       ??0CFileTime@ATL@@QAE@ABU_FILETIME@@@Z 00429e50 f   atlsd:atltime.obj
 0001:00028e80       ??0CFileTime@ATL@@QAE@_K@Z 00429e80 f   atlsd:atltime.obj
 0001:00028eb0       ??4CFileTime@ATL@@QAEAAV01@ABU_FILETIME@@@Z 00429eb0 f   atlsd:atltime.obj
 0001:00028ee0       ?GetTickCount@CFileTime@ATL@@SG?AV12@XZ 00429ee0 f   atlsd:atltime.obj
 0001:00028f20       ??YCFileTime@ATL@@QAEAAV01@VCFileTimeSpan@1@@Z 00429f20 f   atlsd:atltime.obj
 0001:00028f60       ??ZCFileTime@ATL@@QAEAAV01@VCFileTimeSpan@1@@Z 00429f60 f   atlsd:atltime.obj
 0001:00028fa0       ??HCFileTime@ATL@@QBE?AV01@VCFileTimeSpan@1@@Z 00429fa0 f   atlsd:atltime.obj
 0001:00028fe0       ??GCFileTime@ATL@@QBE?AV01@VCFileTimeSpan@1@@Z 00429fe0 f   atlsd:atltime.obj
 0001:00029020       ??GCFileTime@ATL@@QBE?AVCFileTimeSpan@1@V01@@Z 0042a020 f   atlsd:atltime.obj
 0001:00029060       ??8CFileTime@ATL@@QBE_NV01@@Z 0042a060 f   atlsd:atltime.obj
 0001:000290c0       ??9CFileTime@ATL@@QBE_NV01@@Z 0042a0c0 f   atlsd:atltime.obj
 0001:00029120       ??MCFileTime@ATL@@QBE_NV01@@Z 0042a120 f   atlsd:atltime.obj
 0001:00029180       ??OCFileTime@ATL@@QBE_NV01@@Z 0042a180 f   atlsd:atltime.obj
 0001:000291e0       ??NCFileTime@ATL@@QBE_NV01@@Z 0042a1e0 f   atlsd:atltime.obj
 0001:00029240       ??PCFileTime@ATL@@QBE_NV01@@Z 0042a240 f   atlsd:atltime.obj
 0001:000292a0       ?GetTime@CFileTime@ATL@@QBE_KXZ 0042a2a0 f   atlsd:atltime.obj
 0001:000292d0       ?SetTime@CFileTime@ATL@@QAEX_K@Z 0042a2d0 f   atlsd:atltime.obj
 0001:00029300       ?UTCToLocal@CFileTime@ATL@@QBE?AV12@XZ 0042a300 f   atlsd:atltime.obj
 0001:00029340       ?LocalToUTC@CFileTime@ATL@@QBE?AV12@XZ 0042a340 f   atlsd:atltime.obj
 0001:00029380       ?Init@CAtlAllocator@@QAE_NPBDK@Z 0042a380 f   atlsd:Allocate.obj
 0001:000296b0       ?IncRef@CAtlTraceProcess@@QAEIXZ 0042a6b0 f i atlsd:Allocate.obj
 0001:000296e0       ?Base@CAtlTraceProcess@@QBEPAXXZ 0042a6e0 f i atlsd:Allocate.obj
 0001:00029700       ?Open@CAtlAllocator@@QAE_NPBD@Z 0042a700 f   atlsd:Allocate.obj
 0001:00029840       ?Close@CAtlAllocator@@QAEX_N@Z 0042a840 f   atlsd:Allocate.obj
 0001:000298b0       ?DecRef@CAtlTraceProcess@@QAEIXZ 0042a8b0 f i atlsd:Allocate.obj
 0001:000298e0       ?GetModule@CAtlAllocator@@QBEPAVCAtlTraceModule@@H@Z 0042a8e0 f   atlsd:Allocate.obj
 0001:00029970       ?ModuleCount@CAtlTraceProcess@@QBEHXZ 0042a970 f i atlsd:Allocate.obj
 0001:00029990       ?GetCategory@CAtlAllocator@@QBEPAVCAtlTraceCategory@@H@Z 0042a990 f   atlsd:Allocate.obj
 0001:00029a40       ?MaxSize@CAtlTraceProcess@@QBEKXZ 0042aa40 f i atlsd:Allocate.obj
 0001:00029a60       ?CategoryCount@CAtlTraceProcess@@QBEHXZ 0042aa60 f i atlsd:Allocate.obj
 0001:00029a80       ?GetCategoryCount@CAtlAllocator@@QBEHH@Z 0042aa80 f   atlsd:Allocate.obj
 0001:00029b00       ?GetCategoryCount@CAtlAllocator@@QBEHABVCAtlTraceModule@@@Z 0042ab00 f   atlsd:Allocate.obj
 0001:00029b70       ?GetModuleCount@CAtlAllocator@@QBEHXZ 0042ab70 f   atlsd:Allocate.obj
 0001:00029bd0       ?FindModule@CAtlAllocator@@QBE_NPB_WPAI@Z 0042abd0 f   atlsd:Allocate.obj
 0001:00029c50       ?AddModule@CAtlAllocator@@QAEHPAUHINSTANCE__@@@Z 0042ac50 f   atlsd:Allocate.obj
 0001:00029e20       ?TryAllocate@CAtlTraceSettings@@QAE_NXZ 0042ae20 f i atlsd:Allocate.obj
 0001:00029e60       ?MarkValid@CAtlTraceSettings@@QAEXJ@Z 0042ae60 f i atlsd:Allocate.obj
 0001:00029ea0       ?IncModuleCount@CAtlTraceProcess@@QAEXI@Z 0042aea0 f i atlsd:Allocate.obj
 0001:00029ed0       ?AddCategory@CAtlAllocator@@QAEHHPB_W@Z 0042aed0 f   atlsd:Allocate.obj
 0001:0002a100       ?TryAddRef@CAtlTraceSettings@@QAE_NXZ 0042b100 f i atlsd:Allocate.obj
 0001:0002a140       ?Release@CAtlTraceSettings@@QAEXXZ 0042b140 f i atlsd:Allocate.obj
 0001:0002a170       ?IncCategoryCount@CAtlTraceProcess@@QAEXI@Z 0042b170 f i atlsd:Allocate.obj
 0001:0002a1a0       ?RemoveModule@CAtlAllocator@@QAE_NH@Z 0042b1a0 f   atlsd:Allocate.obj
 0001:0002a250       ?CleanUp@CAtlAllocator@@QAEXXZ 0042b250 f   atlsd:Allocate.obj
 0001:0002a270       ?TakeSnapshot@CAtlAllocator@@QAEXXZ 0042b270 f   atlsd:Allocate.obj
 0001:0002a460       ?ReleaseSnapshot@CAtlAllocator@@QAEXXZ 0042b460 f   atlsd:Allocate.obj
 0001:0002a540       ?Add@?$CSimpleArray@UCModuleInfo@CTraceSnapshot@@V?$CSimpleArrayEqualHelper@UCModuleInfo@CTraceSnapshot@@@ATL@@@ATL@@QAEHABUCModuleInfo@CTraceSnapshot@@@Z 0042b540 f i atlsd:Allocate.obj
 0001:0002a670       ?GetSize@?$CSimpleArray@KV?$CSimpleArrayEqualHelper@K@ATL@@@ATL@@QBEHXZ 0042b670 f i atlsd:Allocate.obj
 0001:0002a690       ?Add@?$CSimpleArray@KV?$CSimpleArrayEqualHelper@K@ATL@@@ATL@@QAEHABK@Z 0042b690 f i atlsd:Allocate.obj
 0001:0002a7c0       ?RemoveAt@?$CSimpleArray@KV?$CSimpleArrayEqualHelper@K@ATL@@@ATL@@QAEHH@Z 0042b7c0 f i atlsd:Allocate.obj
 0001:0002a880       ??A?$CSimpleArray@KV?$CSimpleArrayEqualHelper@K@ATL@@@ATL@@QAEAAKH@Z 0042b880 f i atlsd:Allocate.obj
 0001:0002a8f0       ?InternalSetAtIndex@?$CSimpleArray@UCModuleInfo@CTraceSnapshot@@V?$CSimpleArrayEqualHelper@UCModuleInfo@CTraceSnapshot@@@ATL@@@ATL@@QAEXHABUCModuleInfo@CTraceSnapshot@@@Z 0042b8f0 f i atlsd:Allocate.obj
 0001:0002a940       ?InternalSetAtIndex@?$CSimpleArray@KV?$CSimpleArrayEqualHelper@K@ATL@@@ATL@@QAEXHABK@Z 0042b940 f i atlsd:Allocate.obj
 0001:0002a990       ??0Wrapper@?$CSimpleArray@UCModuleInfo@CTraceSnapshot@@V?$CSimpleArrayEqualHelper@UCModuleInfo@CTraceSnapshot@@@ATL@@@ATL@@QAE@ABUCModuleInfo@CTraceSnapshot@@@Z 0042b990 f i atlsd:Allocate.obj
 0001:0002a9c0       ??0Wrapper@?$CSimpleArray@KV?$CSimpleArrayEqualHelper@K@ATL@@@ATL@@QAE@ABK@Z 0042b9c0 f i atlsd:Allocate.obj
 0001:0002a9e0       ??$?2UCModuleInfo@CTraceSnapshot@@@Wrapper@?$CSimpleArray@UCModuleInfo@CTraceSnapshot@@V?$CSimpleArrayEqualHelper@UCModuleInfo@CTraceSnapshot@@@ATL@@@ATL@@SAPAXIPAUCModuleInfo@CTraceSnapshot@@@Z 0042b9e0 f i atlsd:Allocate.obj
 0001:0002a9f0       ??$?2K@Wrapper@?$CSimpleArray@KV?$CSimpleArrayEqualHelper@K@ATL@@@ATL@@SAPAXIPAK@Z 0042b9f0 f i atlsd:Allocate.obj
 0001:0002aa00       ?memmove_s@Checked@ATL@@YAXPAXIPBXI@Z 0042ba00 f i atlsd:Allocate.obj
 0001:0002aa30       ??2@YAPAXIPAX@Z            0042ba30 f i atlsd:Allocate.obj
 0001:0002aa40       ??0CAtlTraceModuleInfo@@QAE@XZ 0042ba40 f   atlsd:AtlTraceModuleManager.obj
 0001:0002aa90       ?Reset@CAtlTraceModuleInfo@@QAEXPAUHINSTANCE__@@@Z 0042ba90 f   atlsd:AtlTraceModuleManager.obj
 0001:0002abd0       ??0CAtlTraceCategory@@QAE@XZ 0042bbd0 f   atlsd:AtlTraceModuleManager.obj
 0001:0002ac10       ??0CAtlTraceSettings@@QAE@XZ 0042bc10 f i atlsd:AtlTraceModuleManager.obj
 0001:0002ac50       ?Reset@CAtlTraceCategory@@QAEXPB_WJ@Z 0042bc50 f   atlsd:AtlTraceModuleManager.obj
 0001:0002aca0       ??0CAtlTraceModule@@QAE@XZ 0042bca0 f   atlsd:AtlTraceModuleManager.obj
 0001:0002ace0       ?CrtDbgReport@CAtlTraceModule@@QAEXP6AHHPBDH00ZZ@Z 0042bce0 f   atlsd:AtlTraceModuleManager.obj
 0001:0002ad20       ??0CAtlTraceProcess@@QAE@K@Z 0042bd20 f   atlsd:AtlTraceModuleManager.obj
 0001:0002adf0       ?GetNextCookie@CAtlTraceProcess@@QAEJXZ 0042bdf0 f   atlsd:AtlTraceModuleManager.obj
 0001:0002ae0c       _SysFreeString@4           0042be0c f   oleaut32:OLEAUT32.dll
 0001:0002ae12       __snprintf_s               0042be12 f   MSVCRT:MSVCR100.dll
 0001:0002ae18       __errno                    0042be18 f   MSVCRT:MSVCR100.dll
 0001:0002ae1e       __CxxThrowException@8      0042be1e f   MSVCRT:MSVCR100.dll
 0001:0002ae24       _strcpy                    0042be24 f   MSVCRT:MSVCR100.dll
 0001:0002ae2a       _wcscpy                    0042be2a f   MSVCRT:MSVCR100.dll
 0001:0002ae30       __vsnprintf_s              0042be30 f   MSVCRT:MSVCR100.dll
 0001:0002ae36       _memset                    0042be36 f   MSVCRT:MSVCR100.dll
 0001:0002ae3c       __vsnwprintf_s             0042be3c f   MSVCRT:MSVCR100.dll
 0001:0002ae42       __snwprintf_s              0042be42 f   MSVCRT:MSVCR100.dll
 0001:0002ae48       _wcscpy_s                  0042be48 f   MSVCRT:MSVCR100.dll
 0001:0002ae4e       _wcsncpy_s                 0042be4e f   MSVCRT:MSVCR100.dll
 0001:0002ae54       _strcpy_s                  0042be54 f   MSVCRT:MSVCR100.dll
 0001:0002ae5a       _calloc                    0042be5a f   MSVCRT:MSVCR100.dll
 0001:0002ae60       __recalloc                 0042be60 f   MSVCRT:MSVCR100.dll
 0001:0002ae70       __allmul                   0042be70 f   MSVCRT:llmul.obj
 0001:0002aeb0       __alldiv                   0042beb0 f   MSVCRT:lldiv.obj
 0001:0002af5a       __time64                   0042bf5a f   MSVCRT:MSVCR100.dll
 0001:0002af60       __mktime64                 0042bf60 f   MSVCRT:MSVCR100.dll
 0001:0002af66       __gmtime64_s               0042bf66 f   MSVCRT:MSVCR100.dll
 0001:0002af70       __aullshr                  0042bf70 f   MSVCRT:ullshr.obj
 0001:0002af90       __allshl                   0042bf90 f   MSVCRT:llshl.obj
 0001:0002afb0       _memcmp                    0042bfb0 f   MSVCRT:MSVCR100.dll
 0001:0002afb6       __wcsicmp                  0042bfb6 f   MSVCRT:MSVCR100.dll
 0001:0002afbc       _memmove_s                 0042bfbc f   MSVCRT:MSVCR100.dll
 0001:0002afc2       _wcslen                    0042bfc2 f   MSVCRT:MSVCR100.dll
 0001:0002afd0       _sgemm_                    0042bfd0 f   blas:sgemm.obj
 0001:0002ba90       _dgemm_                    0042ca90 f   blas:dgemm.obj
 0001:0002c4e0       _xerbla_                   0042d4e0 f   blas:xerbla.obj
 0001:0002c500       _lsame_                    0042d500 f   blas:lsame.obj
 0001:0002c540       _sgesvd_                   0042d540 f   lapack:sgesvd.obj
 0001:000341b0       _spotf2_                   004351b0 f   lapack:spotf2.obj
 0001:00034530       _dgesvd_                   00435530 f   lapack:dgesvd.obj
 0001:0003c190       _dpotf2_                   0043d190 f   lapack:dpotf2.obj
 0001:0003c520       _dtrtrs_                   0043d520 f   lapack:dtrtrs.obj
 0001:0003c740       _dorgqr_                   0043d740 f   lapack:dorgqr.obj
 0001:0003cc30       _dgeqrf_                   0043dc30 f   lapack:dgeqrf.obj
 0001:0003d040       _dpotrs_                   0043e040 f   lapack:dpotrs.obj
 0001:0003d210       _dpotrf_                   0043e210 f   lapack:dpotrf.obj
 0001:0003d680       _dgetrs_                   0043e680 f   lapack:dgetrs.obj
 0001:0003d8f0       _dgetrf_                   0043e8f0 f   lapack:dgetrf.obj
 0001:0003dc60       _dsytrs_                   0043ec60 f   lapack:dsytrs.obj
 0001:0003e640       _dsytrf_                   0043f640 f   lapack:dsytrf.obj
 0001:0003e9f0       _strtrs_                   0043f9f0 f   lapack:strtrs.obj
 0001:0003ec10       _sorgqr_                   0043fc10 f   lapack:sorgqr.obj
 0001:0003f120       _sgeqrf_                   00440120 f   lapack:sgeqrf.obj
 0001:0003f530       _spotrs_                   00440530 f   lapack:spotrs.obj
 0001:0003f700       _spotrf_                   00440700 f   lapack:spotrf.obj
 0001:0003fb70       _sgetrs_                   00440b70 f   lapack:sgetrs.obj
 0001:0003fde0       _sgetrf_                   00440de0 f   lapack:sgetrf.obj
 0001:00040150       _ssytrs_                   00441150 f   lapack:ssytrs.obj
 0001:00040c10       _ssytrf_                   00441c10 f   lapack:ssytrf.obj
 0001:00040fc0       _sorglq_                   00441fc0 f   lapack:sorglq.obj
 0001:000414b0       _sgelqf_                   004424b0 f   lapack:sgelqf.obj
 0001:000418e0       _sormbr_                   004428e0 f   lapack:sormbr.obj
 0001:00041f70       _slacpy_                   00442f70 f   lapack:slacpy.obj
 0001:000422e0       _sbdsqr_                   004432e0 f   lapack:sbdsqr.obj
 0001:00044230       _sorgbr_                   00445230 f   lapack:sorgbr.obj
 0001:00044770       _sgebrd_                   00445770 f   lapack:sgebrd.obj
 0001:00044d10       _slaset_                   00445d10 f   lapack:slaset.obj
 0001:00045020       _slascl_                   00446020 f   lapack:slascl.obj
 0001:00045a20       _slange_                   00446a20 f   lapack:slange.obj
 0001:000460d0       _slamc3_                   004470d0 f   lapack:slamch.obj
 0001:000460f0       _slamc4_                   004470f0 f   lapack:slamch.obj
 0001:00046360       _slamc5_                   00447360 f   lapack:slamch.obj
 0001:00046650       _slamc1_                   00447650 f   lapack:slamch.obj
 0001:00046890       _slamc2_                   00447890 f   lapack:slamch.obj
 0001:00046ca0       _slamch_                   00447ca0 f   lapack:slamch.obj
 0001:00046ef0       _ilaenv_                   00447ef0 f   lapack:ilaenv.obj
 0001:000480c0       _sisnan_                   004490c0 f   lapack:sisnan.obj
 0001:000480d0       _dorglq_                   004490d0 f   lapack:dorglq.obj
 0001:000485d0       _dgelqf_                   004495d0 f   lapack:dgelqf.obj
 0001:00048a00       _dormbr_                   00449a00 f   lapack:dormbr.obj
 0001:000490a0       _dlacpy_                   0044a0a0 f   lapack:dlacpy.obj
 0001:00049410       _dbdsqr_                   0044a410 f   lapack:dbdsqr.obj
 0001:0004af90       _dorgbr_                   0044bf90 f   lapack:dorgbr.obj
 0001:0004b490       _dgebrd_                   0044c490 f   lapack:dgebrd.obj
 0001:0004ba20       _dlaset_                   0044ca20 f   lapack:dlaset.obj
 0001:0004bd40       _dlascl_                   0044cd40 f   lapack:dlascl.obj
 0001:0004c670       _dlange_                   0044d670 f   lapack:dlange.obj
 0001:0004cb60       _dlamc3_                   0044db60 f   lapack:dlamch.obj
 0001:0004cb70       _dlamc4_                   0044db70 f   lapack:dlamch.obj
 0001:0004cd10       _dlamc5_                   0044dd10 f   lapack:dlamch.obj
 0001:0004cf30       _dlamc1_                   0044df30 f   lapack:dlamch.obj
 0001:0004d090       _dlamc2_                   0044e090 f   lapack:dlamch.obj
 0001:0004d440       _dlamch_                   0044e440 f   lapack:dlamch.obj
 0001:0004d6f0       _disnan_                   0044e6f0 f   lapack:disnan.obj
 0001:0004d700       _dlarfb_                   0044e700 f   lapack:dlarfb.obj
 0001:0004f580       _dlarft_                   00450580 f   lapack:dlarft.obj
 0001:0004fbf0       _dorg2r_                   00450bf0 f   lapack:dorg2r.obj
 0001:0004fe80       _dgeqr2_                   00450e80 f   lapack:dgeqr2.obj
 0001:00050020       _dlaswp_                   00451020 f   lapack:dlaswp.obj
 0001:000504b0       _dgetf2_                   004514b0 f   lapack:dgetf2.obj
 0001:00050730       _dsytf2_                   00451730 f   lapack:dsytf2.obj
 0001:000513e0       _dlasyf_                   004523e0 f   lapack:dlasyf.obj
 0001:000525a0       _slarfb_                   004535a0 f   lapack:slarfb.obj
 0001:00054430       _slarft_                   00455430 f   lapack:slarft.obj
 0001:00054ab0       _sorg2r_                   00455ab0 f   lapack:sorg2r.obj
 0001:00054d40       _sgeqr2_                   00455d40 f   lapack:sgeqr2.obj
 0001:00054ee0       _slaswp_                   00455ee0 f   lapack:slaswp.obj
 0001:00055400       _sgetf2_                   00456400 f   lapack:sgetf2.obj
 0001:00055680       _ssytf2_                   00456680 f   lapack:ssytf2.obj
 0001:00056460       _slasyf_                   00457460 f   lapack:slasyf.obj
 0001:000579b0       _sorgl2_                   004589b0 f   lapack:sorgl2.obj
 0001:00057c50       _sgelq2_                   00458c50 f   lapack:sgelq2.obj
 0001:00057df0       _sormlq_                   00458df0 f   lapack:sormlq.obj
 0001:000584a0       _sormqr_                   004594a0 f   lapack:sormqr.obj
 0001:00058b10       _slas2_                    00459b10 f   lapack:slas2.obj
 0001:00058da0       _slasv2_                   00459da0 f   lapack:slasv2.obj
 0001:000592a0       _slasr_                    0045a2a0 f   lapack:slasr.obj
 0001:0005afe0       _slartg_                   0045bfe0 f   lapack:slartg.obj
 0001:0005b390       _slasq1_                   0045c390 f   lapack:slasq1.obj
 0001:0005b6d0       _sgebd2_                   0045c6d0 f   lapack:sgebd2.obj
 0001:0005bba0       _slabrd_                   0045cba0 f   lapack:slabrd.obj
 0001:0005cb70       _slassq_                   0045db70 f   lapack:slassq.obj
 0001:0005cc40       _iparmq_                   0045dc40 f   lapack:iparmq.obj
 0001:0005cd80       _ieeeck_                   0045dd80 f   lapack:ieeeck.obj
 0001:0005cf30       _slaisnan_                 0045df30 f   lapack:slaisnan.obj
 0001:0005cf50       _dorgl2_                   0045df50 f   lapack:dorgl2.obj
 0001:0005d1f0       _dgelq2_                   0045e1f0 f   lapack:dgelq2.obj
 0001:0005d380       _dormlq_                   0045e380 f   lapack:dormlq.obj
 0001:0005da20       _dormqr_                   0045ea20 f   lapack:dormqr.obj
 0001:0005e090       _dlas2_                    0045f090 f   lapack:dlas2.obj
 0001:0005e270       _dlasv2_                   0045f270 f   lapack:dlasv2.obj
 0001:0005e6a0       _dlasr_                    0045f6a0 f   lapack:dlasr.obj
 0001:00060100       _dlartg_                   00461100 f   lapack:dlartg.obj
 0001:00060400       _dlasq1_                   00461400 f   lapack:dlasq1.obj
 0001:000606f0       _dgebd2_                   004616f0 f   lapack:dgebd2.obj
 0001:00060bc0       _dlabrd_                   00461bc0 f   lapack:dlabrd.obj
 0001:00061b90       _dlassq_                   00462b90 f   lapack:dlassq.obj
 0001:00061c30       _dlaisnan_                 00462c30 f   lapack:dlaisnan.obj
 0001:00061c50       _iladlc_                   00462c50 f   lapack:iladlc.obj
 0001:00061cf0       _iladlr_                   00462cf0 f   lapack:iladlr.obj
 0001:00061e00       _dlarf_                    00462e00 f   lapack:dlarf.obj
 0001:00061ff0       _dlarfp_                   00462ff0 f   lapack:dlarfp.obj
 0001:00062240       _ilaslc_                   00463240 f   lapack:ilaslc.obj
 0001:000622e0       _ilaslr_                   004632e0 f   lapack:ilaslr.obj
 0001:000623f0       _slarf_                    004633f0 f   lapack:slarf.obj
 0001:000625e0       _slarfp_                   004635e0 f   lapack:slarfp.obj
 0001:00062870       _sorml2_                   00463870 f   lapack:sorml2.obj
 0001:00062b30       _sorm2r_                   00463b30 f   lapack:sorm2r.obj
 0001:00062df0       _slasq2_                   00463df0 f   lapack:slasq2.obj
 0001:00063cf0       _slasrt_                   00464cf0 f   lapack:slasrt.obj
 0001:00064150       _slarfg_                   00465150 f   lapack:slarfg.obj
 0001:00064350       _dorml2_                   00465350 f   lapack:dorml2.obj
 0001:00064620       _dorm2r_                   00465620 f   lapack:dorm2r.obj
 0001:00064900       _dlasq2_                   00465900 f   lapack:dlasq2.obj
 0001:000656a0       _dlasrt_                   004666a0 f   lapack:dlasrt.obj
 0001:00065ac0       _dlarfg_                   00466ac0 f   lapack:dlarfg.obj
 0001:00065c90       _dlapy2_                   00466c90 f   lapack:dlapy2.obj
 0001:00065d10       _slapy2_                   00466d10 f   lapack:slapy2.obj
 0001:00065dc0       _slasq3_                   00466dc0 f   lapack:slasq3.obj
 0001:00066540       _dlasq3_                   00467540 f   lapack:dlasq3.obj
 0001:00066b40       _slasq6_                   00467b40 f   lapack:slasq6.obj
 0001:00066f90       _slasq5_                   00467f90 f   lapack:slasq5.obj
 0001:000674a0       _slasq4_                   004684a0 f   lapack:slasq4.obj
 0001:00068050       _dlasq6_                   00469050 f   lapack:dlasq6.obj
 0001:00068390       _dlasq5_                   00469390 f   lapack:dlasq5.obj
 0001:00068730       _dlasq4_                   00469730 f   lapack:dlasq4.obj
 0001:000690e0       _s_cat                     0046a0e0 f   libf2c:s_cat.obj
 0001:00069200       _r_sign                    0046a200 f   libf2c:r_sign.obj
 0001:00069230       _pow_dd                    0046a230 f   libf2c:pow_dd.obj
 0001:00069250       _e_rsfe                    0046a250 f   libf2c:sfe.obj
 0001:00069260       _c_sfe                     0046a260 f   libf2c:sfe.obj
 0001:00069340       _e_wsfe                    0046a340 f   libf2c:sfe.obj
 0001:00069c90       _do_fio                    0046ac90 f   libf2c:fmt.obj
 0001:00069ff0       _en_fio                    0046aff0 f   libf2c:fmt.obj
 0001:0006a010       _fmt_bg                    0046b010 f   libf2c:fmt.obj
 0001:0006a0b0       _pars_f                    0046b0b0 f   libf2c:fmt.obj
 0001:0006a0e0       _x_wSL                     0046b0e0 f   libf2c:wsfe.obj
 0001:0006a1b0       _s_wsfe                    0046b1b0 f   libf2c:wsfe.obj
 0001:0006a310       _pow_ri                    0046b310 f   libf2c:pow_ri.obj
 0001:0006a350       _s_cmp                     0046b350 f   libf2c:s_cmp.obj
 0001:0006a3e0       _s_copy                    0046b3e0 f   libf2c:s_copy.obj
 0001:0006a480       _d_sign                    0046b480 f   libf2c:d_sign.obj
 0001:0006a4b0       _pow_di                    0046b4b0 f   libf2c:pow_di.obj
 0001:0006a4f0       _i_nint                    0046b4f0 f   libf2c:i_nint.obj
 0001:0006a540       _F77_aloc                  0046b540 f   libf2c:f77_aloc.obj
 0001:0006a590       _f__canseek                0046b590 f   libf2c:err.obj
 0001:0006a5a0       _f__fatal                  0046b5a0 f   libf2c:err.obj
 0001:0006a720       _f_init                    0046b720 f   libf2c:err.obj
 0001:0006a7a0       _f__nowreading             0046b7a0 f   libf2c:err.obj
 0001:0006a850       _f__nowwriting             0046b850 f   libf2c:err.obj
 0001:0006a930       _err__fl                   0046b930 f   libf2c:err.obj
 0001:0006aa00       _f__putbuf                 0046ba00 f   libf2c:open.obj
 0001:0006aab0       _x_putc                    0046bab0 f   libf2c:open.obj
 0001:0006ab40       _f_open                    0046bb40 f   libf2c:open.obj
 0001:0006b040       _fk_open                   0046c040 f   libf2c:open.obj
 0001:0006b100       _sig_die                   0046c100 f   libf2c:sig_die.obj
 0001:0006b700       _wrt_L                     0046c700 f   libf2c:wrtfmt.obj
 0001:0006b8f0       _w_ed                      0046c8f0 f   libf2c:wrtfmt.obj
 0001:0006bae0       _w_ned                     0046cae0 f   libf2c:wrtfmt.obj
 0001:0006bbb0       _exit_                     0046cbb0 f   libf2c:exit_.obj
 0001:0006bbc0       _g_char                    0046cbc0 f   libf2c:util.obj
 0001:0006bc00       _b_char                    0046cc00 f   libf2c:util.obj
 0001:0006bc40       _f_clos                    0046cc40 f   libf2c:close.obj
 0001:0006bce0       _f_exit                    0046cce0 f   libf2c:close.obj
 0001:0006bd20       _flush_                    0046cd20 f   libf2c:close.obj
 0001:0006bd60       _f__icvt                   0046cd60 f   libf2c:fmtlib.obj
 0001:0006bde0       _wrt_E                     0046cde0 f   libf2c:wref.obj
 0001:0006c1f0       _wrt_F                     0046d1f0 f   libf2c:wref.obj
 0001:0006c440       _t_runc                    0046d440 f   libf2c:endfile.obj
 0001:0006c640       _f_end                     0046d640 f   libf2c:endfile.obj
 0001:0006c730       _WinMain@16                0046d730 f   mfcs100d:appmodul.obj
 0001:0006c750       ?AfxInitialize@@YGHHK@Z    0046d750 f   mfcs100d:appmodul.obj
 0001:0006c7a6       __CrtDbgReport             0046d7a6 f   msvcrtd:MSVCR100D.dll
 0001:0006c7ac       _printf                    0046d7ac f   msvcrtd:MSVCR100D.dll
 0001:0006c7c0       __chkstk                   0046d7c0 f   msvcrtd:chkstk.obj
 0001:0006c7c0       __alloca_probe             0046d7c0     msvcrtd:chkstk.obj
 0001:0006c7ec       __CIlog                    0046d7ec f   msvcrtd:MSVCR100D.dll
 0001:0006c7f2       __CIpow                    0046d7f2 f   msvcrtd:MSVCR100D.dll
 0001:0006c7f8       _floor                     0046d7f8 f   msvcrtd:MSVCR100D.dll
 0001:0006c7fe       _perror                    0046d7fe f   msvcrtd:MSVCR100D.dll
 0001:0006c804       _fseek                     0046d804 f   msvcrtd:MSVCR100D.dll
 0001:0006c80a       _freopen                   0046d80a f   msvcrtd:MSVCR100D.dll
 0001:0006c810       _ftell                     0046d810 f   msvcrtd:MSVCR100D.dll
 0001:0006c816       _putc                      0046d816 f   msvcrtd:MSVCR100D.dll
 0001:0006c81c       _fputs                     0046d81c f   msvcrtd:MSVCR100D.dll
 0001:0006c822       _rewind                    0046d822 f   msvcrtd:MSVCR100D.dll
 0001:0006c828       _tmpfile                   0046d828 f   msvcrtd:MSVCR100D.dll
 0001:0006c82e       _strncmp                   0046d82e f   msvcrtd:MSVCR100D.dll
 0001:0006c834       _abort                     0046d834 f   msvcrtd:MSVCR100D.dll
 0001:0006c83a       _signal                    0046d83a f   msvcrtd:MSVCR100D.dll
 0001:0006c840       _remove                    0046d840 f   msvcrtd:MSVCR100D.dll
 0001:0006c846       _atoi                      0046d846 f   msvcrtd:MSVCR100D.dll
 0001:0006c84c       _fread                     0046d84c f   msvcrtd:MSVCR100D.dll
 0001:0006c852       __setmbcp                  0046d852 f   msvcrtd:MSVCR100D.dll
 0001:0006c858       _RaiseException@16         0046d858 f   kernel32:KERNEL32.dll
 0001:0006c85e       _SetEvent@4                0046d85e f   kernel32:KERNEL32.dll
 0001:0006c864       _OpenEventA@12             0046d864 f   kernel32:KERNEL32.dll
 0001:0006c86a       _OutputDebugStringA@4      0046d86a f   kernel32:KERNEL32.dll
 0001:0006c870       _OutputDebugStringW@4      0046d870 f   kernel32:KERNEL32.dll
 0001:0006c876       _MultiByteToWideChar@24    0046d876 f   kernel32:KERNEL32.dll
 0001:0006c87c       _lstrlenA@4                0046d87c f   kernel32:KERNEL32.dll
 0001:0006c882       _MulDiv@12                 0046d882 f   kernel32:KERNEL32.dll
 0001:0006c888       _FileTimeToSystemTime@8    0046d888 f   kernel32:KERNEL32.dll
 0001:0006c88e       _FileTimeToLocalFileTime@8 0046d88e f   kernel32:KERNEL32.dll
 0001:0006c894       _LocalFileTimeToFileTime@8 0046d894 f   kernel32:KERNEL32.dll
 0001:0006c89a       _VirtualAlloc@16           0046d89a f   kernel32:KERNEL32.dll
 0001:0006c8a0       _UnmapViewOfFile@4         0046d8a0 f   kernel32:KERNEL32.dll
 0001:0006c8a6       _GetSystemInfo@4           0046d8a6 f   kernel32:KERNEL32.dll
 0001:0006c8ac       _MapViewOfFile@20          0046d8ac f   kernel32:KERNEL32.dll
 0001:0006c8b2       _CreateFileMappingA@24     0046d8b2 f   kernel32:KERNEL32.dll
 0001:0006c8b8       _GetCurrentThread@0        0046d8b8 f   kernel32:KERNEL32.dll
 0001:0006c8be       _OpenFileMappingA@12       0046d8be f   kernel32:KERNEL32.dll
 0001:0006c8c4       _GetModuleFileNameW@12     0046d8c4 f   kernel32:KERNEL32.dll
 0001:0006c8ca       _CopyRect@8                0046d8ca f   user32:USER32.dll
 0001:0006c8d0       _IsRectEmpty@4             0046d8d0 f   user32:USER32.dll
 0001:0006c8d6       _PtInRect@12               0046d8d6 f   user32:USER32.dll
 0001:0006c8dc       _SetRect@20                0046d8dc f   user32:USER32.dll
 0001:0006c8e2       _SetRectEmpty@4            0046d8e2 f   user32:USER32.dll
 0001:0006c8e8       _EqualRect@8               0046d8e8 f   user32:USER32.dll
 0001:0006c8ee       _InflateRect@12            0046d8ee f   user32:USER32.dll
 0001:0006c8f4       _OffsetRect@12             0046d8f4 f   user32:USER32.dll
 0001:0006c8fa       _IntersectRect@12          0046d8fa f   user32:USER32.dll
 0001:0006c900       _UnionRect@12              0046d900 f   user32:USER32.dll
 0001:0006c906       _SubtractRect@12           0046d906 f   user32:USER32.dll
 0001:0006c90c       _SetThreadToken@8          0046d90c f   advapi32:ADVAPI32.dll
 0001:0006c912       _RevertToSelf@0            0046d912 f   advapi32:ADVAPI32.dll
 0001:0006c918       _OpenThreadToken@16        0046d918 f   advapi32:ADVAPI32.dll
 0001:0006c91e       __access                   0046d91e f   MSVCRT:MSVCR100.dll
 0001:0006c930       _sscal_                    0046d930 f   blas:sscal.obj
 0001:0006ca60       _sgemv_                    0046da60 f   blas:sgemv.obj
 0001:0006d1e0       _sdot_                     0046e1e0 f   blas:sdot.obj
 0001:0006d430       _dscal_                    0046e430 f   blas:dscal.obj
 0001:0006d560       _dgemv_                    0046e560 f   blas:dgemv.obj
 0001:0006dcd0       _ddot_                     0046ecd0 f   blas:ddot.obj
 0001:0006dec0       _dtrsm_                    0046eec0 f   blas:dtrsm.obj
 0001:0006f1e0       _dsyrk_                    004701e0 f   blas:dsyrk.obj
 0001:0006fcc0       _dger_                     00470cc0 f   blas:dger.obj
 0001:0006fff0       _dswap_                    00470ff0 f   blas:dswap.obj
 0001:000701f0       _strsm_                    004711f0 f   blas:strsm.obj
 0001:000715d0       _ssyrk_                    004725d0 f   blas:ssyrk.obj
 0001:000720e0       _sger_                     004730e0 f   blas:sger.obj
 0001:00072410       _sswap_                    00473410 f   blas:sswap.obj
 0001:00072680       _srot_                     00473680 f   blas:srot.obj
 0001:00072990       _drot_                     00473990 f   blas:drot.obj
 0001:00072c50       _dtrmm_                    00473c50 f   blas:dtrmm.obj
 0001:00073d00       _dcopy_                    00474d00 f   blas:dcopy.obj
 0001:00073ed0       _dtrmv_                    00474ed0 f   blas:dtrmv.obj
 0001:000749d0       _idamax_                   004759d0 f   blas:idamax.obj
 0001:00074c60       _dsyr_                     00475c60 f   blas:dsyr.obj
 0001:00075210       _strmm_                    00476210 f   blas:strmm.obj
 0001:00076370       _scopy_                    00477370 f   blas:scopy.obj
 0001:00076540       _strmv_                    00477540 f   blas:strmv.obj
 0001:00077100       _isamax_                   00478100 f   blas:isamax.obj
 0001:00077510       _ssyr_                     00478510 f   blas:ssyr.obj
 0001:00077a90       _dnrm2_                    00478a90 f   blas:dnrm2.obj
 0001:00077b70       _snrm2_                    00478b70 f   blas:snrm2.obj
 0001:00077c9a       ?AfxWinMain@@YGHPAUHINSTANCE__@@0PADH@Z 00478c9a f   mfc100d:mfc100d.dll
 0001:00077ca0       ?AfxGetModuleState@@YGPAVAFX_MODULE_STATE@@XZ 00478ca0 f   mfc100d:mfc100d.dll
 0002:00000000       ___xc_a                    00497000     msvcrtd:cinitexe.obj
 0002:000005bc       ___xc_z                    004975bc     msvcrtd:cinitexe.obj
 0002:000006c0       ___xi_a                    004976c0     msvcrtd:cinitexe.obj
 0002:00000ad0       ___xi_z                    00497ad0     msvcrtd:cinitexe.obj
 0002:000022a0       ?_Min@?$AtlLimits@H@ATL@@2HB 004992a0     APTMotor.obj
 0002:000022a4       ?_Max@?$AtlLimits@H@ATL@@2HB 004992a4     APTMotor.obj
 0002:000022a8       ?_Min@?$AtlLimits@I@ATL@@2IB 004992a8     APTMotor.obj
 0002:000022ac       ?_Max@?$AtlLimits@I@ATL@@2IB 004992ac     APTMotor.obj
 0002:000022b0       ?_Min@?$AtlLimits@J@ATL@@2JB 004992b0     APTMotor.obj
 0002:000022b4       ?_Max@?$AtlLimits@J@ATL@@2JB 004992b4     APTMotor.obj
 0002:000022b8       ?_Min@?$AtlLimits@K@ATL@@2KB 004992b8     APTMotor.obj
 0002:000022bc       ?_Max@?$AtlLimits@K@ATL@@2KB 004992bc     APTMotor.obj
 0002:000022c0       ?_Min@?$AtlLimits@_J@ATL@@2_JB 004992c0     APTMotor.obj
 0002:000022d0       ?_Max@?$AtlLimits@_J@ATL@@2_JB 004992d0     APTMotor.obj
 0002:000022e0       ?_Min@?$AtlLimits@_K@ATL@@2_KB 004992e0     APTMotor.obj
 0002:000022f0       ?_Max@?$AtlLimits@_K@ATL@@2_KB 004992f0     APTMotor.obj
 0002:000022fc       ?VT@?$_CVarTypeInfo@D@ATL@@2GB 004992fc     APTMotor.obj
 0002:00002300       ?pmField@?$_CVarTypeInfo@D@ATL@@2QQtagVARIANT@@DQ3@ 00499300     APTMotor.obj
 0002:00002304       ?VT@?$_CVarTypeInfo@E@ATL@@2GB 00499304     APTMotor.obj
 0002:00002308       ?pmField@?$_CVarTypeInfo@E@ATL@@2QQtagVARIANT@@EQ3@ 00499308     APTMotor.obj
 0002:0000230c       ?VT@?$_CVarTypeInfo@PAD@ATL@@2GB 0049930c     APTMotor.obj
 0002:00002310       ?pmField@?$_CVarTypeInfo@PAD@ATL@@2QQtagVARIANT@@PADQ3@ 00499310     APTMotor.obj
 0002:00002314       ?VT@?$_CVarTypeInfo@PAE@ATL@@2GB 00499314     APTMotor.obj
 0002:00002318       ?pmField@?$_CVarTypeInfo@PAE@ATL@@2QQtagVARIANT@@PAEQ3@ 00499318     APTMotor.obj
 0002:0000231c       ?VT@?$_CVarTypeInfo@F@ATL@@2GB 0049931c     APTMotor.obj
 0002:00002320       ?pmField@?$_CVarTypeInfo@F@ATL@@2QQtagVARIANT@@FQ3@ 00499320     APTMotor.obj
 0002:00002324       ?VT@?$_CVarTypeInfo@PAF@ATL@@2GB 00499324     APTMotor.obj
 0002:00002328       ?pmField@?$_CVarTypeInfo@PAF@ATL@@2QQtagVARIANT@@PAFQ3@ 00499328     APTMotor.obj
 0002:0000232c       ?VT@?$_CVarTypeInfo@G@ATL@@2GB 0049932c     APTMotor.obj
 0002:00002330       ?pmField@?$_CVarTypeInfo@G@ATL@@2QQtagVARIANT@@GQ3@ 00499330     APTMotor.obj
 0002:00002334       ?VT@?$_CVarTypeInfo@PAG@ATL@@2GB 00499334     APTMotor.obj
 0002:00002338       ?pmField@?$_CVarTypeInfo@PAG@ATL@@2QQtagVARIANT@@PAGQ3@ 00499338     APTMotor.obj
 0002:0000233c       ?VT@?$_CVarTypeInfo@H@ATL@@2GB 0049933c     APTMotor.obj
 0002:00002340       ?pmField@?$_CVarTypeInfo@H@ATL@@2QQtagVARIANT@@HQ3@ 00499340     APTMotor.obj
 0002:00002344       ?VT@?$_CVarTypeInfo@PAH@ATL@@2GB 00499344     APTMotor.obj
 0002:00002348       ?pmField@?$_CVarTypeInfo@PAH@ATL@@2QQtagVARIANT@@PAHQ3@ 00499348     APTMotor.obj
 0002:0000234c       ?VT@?$_CVarTypeInfo@I@ATL@@2GB 0049934c     APTMotor.obj
 0002:00002350       ?pmField@?$_CVarTypeInfo@I@ATL@@2QQtagVARIANT@@IQ3@ 00499350     APTMotor.obj
 0002:00002354       ?VT@?$_CVarTypeInfo@PAI@ATL@@2GB 00499354     APTMotor.obj
 0002:00002358       ?pmField@?$_CVarTypeInfo@PAI@ATL@@2QQtagVARIANT@@PAIQ3@ 00499358     APTMotor.obj
 0002:0000235c       ?VT@?$_CVarTypeInfo@J@ATL@@2GB 0049935c     APTMotor.obj
 0002:00002360       ?pmField@?$_CVarTypeInfo@J@ATL@@2QQtagVARIANT@@JQ3@ 00499360     APTMotor.obj
 0002:00002364       ?VT@?$_CVarTypeInfo@PAJ@ATL@@2GB 00499364     APTMotor.obj
 0002:00002368       ?pmField@?$_CVarTypeInfo@PAJ@ATL@@2QQtagVARIANT@@PAJQ3@ 00499368     APTMotor.obj
 0002:0000236c       ?VT@?$_CVarTypeInfo@K@ATL@@2GB 0049936c     APTMotor.obj
 0002:00002370       ?pmField@?$_CVarTypeInfo@K@ATL@@2QQtagVARIANT@@KQ3@ 00499370     APTMotor.obj
 0002:00002374       ?VT@?$_CVarTypeInfo@PAK@ATL@@2GB 00499374     APTMotor.obj
 0002:00002378       ?pmField@?$_CVarTypeInfo@PAK@ATL@@2QQtagVARIANT@@PAKQ3@ 00499378     APTMotor.obj
 0002:0000237c       ?VT@?$_CVarTypeInfo@_J@ATL@@2GB 0049937c     APTMotor.obj
 0002:00002380       ?pmField@?$_CVarTypeInfo@_J@ATL@@2QQtagVARIANT@@_JQ3@ 00499380     APTMotor.obj
 0002:00002384       ?VT@?$_CVarTypeInfo@PA_J@ATL@@2GB 00499384     APTMotor.obj
 0002:00002388       ?pmField@?$_CVarTypeInfo@PA_J@ATL@@2QQtagVARIANT@@PA_JQ3@ 00499388     APTMotor.obj
 0002:0000238c       ?VT@?$_CVarTypeInfo@_K@ATL@@2GB 0049938c     APTMotor.obj
 0002:00002390       ?pmField@?$_CVarTypeInfo@_K@ATL@@2QQtagVARIANT@@_KQ3@ 00499390     APTMotor.obj
 0002:00002394       ?VT@?$_CVarTypeInfo@PA_K@ATL@@2GB 00499394     APTMotor.obj
 0002:00002398       ?pmField@?$_CVarTypeInfo@PA_K@ATL@@2QQtagVARIANT@@PA_KQ3@ 00499398     APTMotor.obj
 0002:0000239c       ?VT@?$_CVarTypeInfo@M@ATL@@2GB 0049939c     APTMotor.obj
 0002:000023a0       ?pmField@?$_CVarTypeInfo@M@ATL@@2QQtagVARIANT@@MQ3@ 004993a0     APTMotor.obj
 0002:000023a4       ?VT@?$_CVarTypeInfo@PAM@ATL@@2GB 004993a4     APTMotor.obj
 0002:000023a8       ?pmField@?$_CVarTypeInfo@PAM@ATL@@2QQtagVARIANT@@PAMQ3@ 004993a8     APTMotor.obj
 0002:000023ac       ?VT@?$_CVarTypeInfo@N@ATL@@2GB 004993ac     APTMotor.obj
 0002:000023b0       ?pmField@?$_CVarTypeInfo@N@ATL@@2QQtagVARIANT@@NQ3@ 004993b0     APTMotor.obj
 0002:000023b4       ?VT@?$_CVarTypeInfo@PAN@ATL@@2GB 004993b4     APTMotor.obj
 0002:000023b8       ?pmField@?$_CVarTypeInfo@PAN@ATL@@2QQtagVARIANT@@PANQ3@ 004993b8     APTMotor.obj
 0002:000023bc       ?VT@?$_CVarTypeInfo@PAUtagVARIANT@@@ATL@@2GB 004993bc     APTMotor.obj
 0002:000023c0       ?VT@?$_CVarTypeInfo@PA_W@ATL@@2GB 004993c0     APTMotor.obj
 0002:000023c4       ?pmField@?$_CVarTypeInfo@PA_W@ATL@@2QQtagVARIANT@@PA_WQ3@ 004993c4     APTMotor.obj
 0002:000023c8       ?VT@?$_CVarTypeInfo@PAPA_W@ATL@@2GB 004993c8     APTMotor.obj
 0002:000023cc       ?pmField@?$_CVarTypeInfo@PAPA_W@ATL@@2QQtagVARIANT@@PAPA_WQ3@ 004993cc     APTMotor.obj
 0002:000023d0       ?VT@?$_CVarTypeInfo@PAUIUnknown@@@ATL@@2GB 004993d0     APTMotor.obj
 0002:000023d4       ?pmField@?$_CVarTypeInfo@PAUIUnknown@@@ATL@@2QQtagVARIANT@@PAUIUnknown@@Q3@ 004993d4     APTMotor.obj
 0002:000023d8       ?VT@?$_CVarTypeInfo@PAPAUIUnknown@@@ATL@@2GB 004993d8     APTMotor.obj
 0002:000023dc       ?pmField@?$_CVarTypeInfo@PAPAUIUnknown@@@ATL@@2QQtagVARIANT@@PAPAUIUnknown@@Q3@ 004993dc     APTMotor.obj
 0002:000023e0       ?VT@?$_CVarTypeInfo@PAUIDispatch@@@ATL@@2GB 004993e0     APTMotor.obj
 0002:000023e4       ?pmField@?$_CVarTypeInfo@PAUIDispatch@@@ATL@@2QQtagVARIANT@@PAUIDispatch@@Q3@ 004993e4     APTMotor.obj
 0002:000023e8       ?VT@?$_CVarTypeInfo@PAPAUIDispatch@@@ATL@@2GB 004993e8     APTMotor.obj
 0002:000023ec       ?pmField@?$_CVarTypeInfo@PAPAUIDispatch@@@ATL@@2QQtagVARIANT@@PAPAUIDispatch@@Q3@ 004993ec     APTMotor.obj
 0002:000023f0       ?VT@?$_CVarTypeInfo@TtagCY@@@ATL@@2GB 004993f0     APTMotor.obj
 0002:000023f4       ?pmField@?$_CVarTypeInfo@TtagCY@@@ATL@@2QQtagVARIANT@@TtagCY@@Q3@ 004993f4     APTMotor.obj
 0002:000023f8       ?VT@?$_CVarTypeInfo@PATtagCY@@@ATL@@2GB 004993f8     APTMotor.obj
 0002:000023fc       ?pmField@?$_CVarTypeInfo@PATtagCY@@@ATL@@2QQtagVARIANT@@PATtagCY@@Q3@ 004993fc     APTMotor.obj
 0002:00002400       ?c_bIsMFCDLLTraits@?$_MFCDLLTraitsCheck@DV?$StrTraitMFC_DLL@DV?$ChTraitsCRT@D@ATL@@@@@_CSTRING_IMPL_@ATL@@2_NB 00499400     APTMotor.obj
 0002:00002401       ?c_bIsMFCDLLTraits@?$_MFCDLLTraitsCheck@_WV?$StrTraitMFC_DLL@_WV?$ChTraitsCRT@_W@ATL@@@@@_CSTRING_IMPL_@ATL@@2_NB 00499401     APTMotor.obj
 0002:00002404       ?generic@CArchiveException@@2HB 00499404     APTMotor.obj
 0002:00002408       ?generic@CFileException@@2HB 00499408     APTMotor.obj
 0002:00002410       ?Millisecond@CFileTime@ATL@@2_KB 00499410     APTMotor.obj
 0002:00002420       ?Second@CFileTime@ATL@@2_KB 00499420     APTMotor.obj
 0002:00002430       ?Minute@CFileTime@ATL@@2_KB 00499430     APTMotor.obj
 0002:00002440       ?Hour@CFileTime@ATL@@2_KB  00499440     APTMotor.obj
 0002:00002450       ?Day@CFileTime@ATL@@2_KB   00499450     APTMotor.obj
 0002:00002460       ?Week@CFileTime@ATL@@2_KB  00499460     APTMotor.obj
 0002:0000246c       ?szInvalidDateTime@ATL@@3QBDB 0049946c     APTMotor.obj
 0002:00002470       ?szInvalidDateTimeSpan@ATL@@3QBDB 00499470     APTMotor.obj
 0002:00002474       _LIBID_ATLLib              00499474     APTMotor.obj
 0002:00002488       _CLSID_Registrar           00499488     APTMotor.obj
 0002:0000249c       _IID_IRegistrar            0049949c     APTMotor.obj
 0002:000024b0       _IID_IAxWinHostWindow      004994b0     APTMotor.obj
 0002:000024c4       _IID_IAxWinAmbientDispatch 004994c4     APTMotor.obj
 0002:000024d8       _IID_IInternalConnection   004994d8     APTMotor.obj
 0002:000024ec       _IID_IDocHostUIHandlerDispatch 004994ec     APTMotor.obj
 0002:00002500       _IID_IAxWinHostWindowLic   00499500     APTMotor.obj
 0002:00002514       _IID_IAxWinAmbientDispatchEx 00499514     APTMotor.obj
 0002:00002528       ?MAX_VALUE@CRegParser@ATL@@1HB 00499528     APTMotor.obj
 0002:0000252c       ?MAX_TYPE@CRegParser@ATL@@1HB 0049952c     APTMotor.obj
 0002:00002530       ?rgszNeverDelete@CRegParser@ATL@@1QBQBDB 00499530     APTMotor.obj
 0002:0000256c       ?cbNeverDelete@CRegParser@ATL@@1HB 0049956c     APTMotor.obj
 0002:00002570       ?c_bIsMFCDLLTraits@?$_MFCDLLTraitsCheck@DV?$StrTraitATL@DV?$ChTraitsCRT@D@ATL@@@ATL@@@_CSTRING_IMPL_@ATL@@2_NB 00499570     APTMotor.obj
 0002:00002571       ?c_bIsMFCDLLTraits@?$_MFCDLLTraitsCheck@_WV?$StrTraitATL@_WV?$ChTraitsCRT@_W@ATL@@@ATL@@@_CSTRING_IMPL_@ATL@@2_NB 00499571     APTMotor.obj
 0002:00002574       ?sc_redShift@ColorF@D2D1@@0IB 00499574     APTMotor.obj
 0002:00002578       ?sc_greenShift@ColorF@D2D1@@0IB 00499578     APTMotor.obj
 0002:0000257c       ?sc_blueShift@ColorF@D2D1@@0IB 0049957c     APTMotor.obj
 0002:00002580       ?sc_redMask@ColorF@D2D1@@0IB 00499580     APTMotor.obj
 0002:00002584       ?sc_greenMask@ColorF@D2D1@@0IB 00499584     APTMotor.obj
 0002:00002588       ?sc_blueMask@ColorF@D2D1@@0IB 00499588     APTMotor.obj
 0002:0000258c       ?CLSID_WinFormsControl@@3U_GUID@@B 0049958c     APTMotor.obj
 0002:000025a0       ?classCMgmotorctrl1@CMgmotorctrl1@@2UCRuntimeClass@@B 004995a0     APTMotor.obj
 0002:000025cc       ??_7CMgmotorctrl1@@6B@     004995cc     APTMotor.obj
 0002:0000277c       ?clsid@?1??GetClsid@CMgmotorctrl1@@QAEABU_GUID@@XZ@4U3@B 0049977c     APTMotor.obj
 0002:00002794       ??_7Thank_you@Define_the_symbol__ATL_MIXED@@6B@ 00499794     APTMotor.obj
 0002:00003e34       ?classAPT_system@APT_system@@2UCRuntimeClass@@B 0049ae34     APTSystem.obj
 0002:00003e5c       ??_7APT_system@@6B@        0049ae5c     APTSystem.obj
 0002:0000400c       ?clsid@?1??GetClsid@APT_system@@QAEABU_GUID@@XZ@4U3@B 0049b00c     APTSystem.obj
 0002:00006d50       ?classDisplayDialog@DisplayDialog@@2UCRuntimeClass@@B 0049dd50     DisplayDialog.obj
 0002:00006d7c       ??_7DisplayDialog@@6B@     0049dd7c     DisplayDialog.obj
 0002:0000861c       ?classCMainFrame@CMainFrame@@2UCRuntimeClass@@B 0049f61c     MainFrm.obj
 0002:00008644       ??_7CMainFrame@@6B@        0049f644     MainFrm.obj
 0002:00009ef4       ??_7COctopusApp@@6B@       004a0ef4     Octopus.obj
 0002:0000b854       __real@00000000            004a2854     Octopus_LED.obj
 0002:0000b85c       ??_7Octopus_LED@@6B@       004a285c     Octopus_LED.obj
 0002:0000bbe0       __real@0000000000000000    004a2be0     Octopus_LED.obj
 0002:0000bbf0       __real@4090000000000000    004a2bf0     Octopus_LED.obj
 0002:0000bc00       __real@4059000000000000    004a2c00     Octopus_LED.obj
 0002:0000d50a       ?value@?$integral_constant@_N$0A@@tr1@std@@2_NB 004a450a     OctopusCameraDisplay.obj
 0002:0000d50b       ?value@?$integral_constant@_N$00@tr1@std@@2_NB 004a450b     OctopusCameraDisplay.obj
 0002:0000d50c       ?value@?$integral_constant@I$0A@@tr1@std@@2IB 004a450c     OctopusCameraDisplay.obj
 0002:0000d510       ?_Rank@?$_Arithmetic_traits@_N@std@@2HB 004a4510     OctopusCameraDisplay.obj
 0002:0000d514       ?_Rank@?$_Arithmetic_traits@D@std@@2HB 004a4514     OctopusCameraDisplay.obj
 0002:0000d518       ?_Rank@?$_Arithmetic_traits@C@std@@2HB 004a4518     OctopusCameraDisplay.obj
 0002:0000d51c       ?_Rank@?$_Arithmetic_traits@E@std@@2HB 004a451c     OctopusCameraDisplay.obj
 0002:0000d520       ?_Rank@?$_Arithmetic_traits@F@std@@2HB 004a4520     OctopusCameraDisplay.obj
 0002:0000d524       ?_Rank@?$_Arithmetic_traits@G@std@@2HB 004a4524     OctopusCameraDisplay.obj
 0002:0000d528       ?_Rank@?$_Arithmetic_traits@H@std@@2HB 004a4528     OctopusCameraDisplay.obj
 0002:0000d52c       ?_Rank@?$_Arithmetic_traits@I@std@@2HB 004a452c     OctopusCameraDisplay.obj
 0002:0000d530       ?_Rank@?$_Arithmetic_traits@J@std@@2HB 004a4530     OctopusCameraDisplay.obj
 0002:0000d534       ?_Rank@?$_Arithmetic_traits@K@std@@2HB 004a4534     OctopusCameraDisplay.obj
 0002:0000d538       ?_Rank@?$_Arithmetic_traits@_J@std@@2HB 004a4538     OctopusCameraDisplay.obj
 0002:0000d53c       ?_Rank@?$_Arithmetic_traits@_K@std@@2HB 004a453c     OctopusCameraDisplay.obj
 0002:0000d540       ?_Rank@?$_Arithmetic_traits@M@std@@2HB 004a4540     OctopusCameraDisplay.obj
 0002:0000d544       ?_Rank@?$_Arithmetic_traits@N@std@@2HB 004a4544     OctopusCameraDisplay.obj
 0002:0000d548       ?_Rank@?$_Arithmetic_traits@O@std@@2HB 004a4548     OctopusCameraDisplay.obj
 0002:0000d54c       ?collate@?$_Locbase@H@std@@2HB 004a454c     OctopusCameraDisplay.obj
 0002:0000d550       ?ctype@?$_Locbase@H@std@@2HB 004a4550     OctopusCameraDisplay.obj
 0002:0000d554       ?monetary@?$_Locbase@H@std@@2HB 004a4554     OctopusCameraDisplay.obj
 0002:0000d558       ?numeric@?$_Locbase@H@std@@2HB 004a4558     OctopusCameraDisplay.obj
 0002:0000d55c       ?time@?$_Locbase@H@std@@2HB 004a455c     OctopusCameraDisplay.obj
 0002:0000d560       ?messages@?$_Locbase@H@std@@2HB 004a4560     OctopusCameraDisplay.obj
 0002:0000d564       ?all@?$_Locbase@H@std@@2HB 004a4564     OctopusCameraDisplay.obj
 0002:0000d568       ?none@?$_Locbase@H@std@@2HB 004a4568     OctopusCameraDisplay.obj
 0002:0000d56c       ?skipws@?$_Iosb@H@std@@2W4_Fmtflags@12@B 004a456c     OctopusCameraDisplay.obj
 0002:0000d570       ?unitbuf@?$_Iosb@H@std@@2W4_Fmtflags@12@B 004a4570     OctopusCameraDisplay.obj
 0002:0000d574       ?uppercase@?$_Iosb@H@std@@2W4_Fmtflags@12@B 004a4574     OctopusCameraDisplay.obj
 0002:0000d578       ?showbase@?$_Iosb@H@std@@2W4_Fmtflags@12@B 004a4578     OctopusCameraDisplay.obj
 0002:0000d57c       ?showpoint@?$_Iosb@H@std@@2W4_Fmtflags@12@B 004a457c     OctopusCameraDisplay.obj
 0002:0000d580       ?showpos@?$_Iosb@H@std@@2W4_Fmtflags@12@B 004a4580     OctopusCameraDisplay.obj
 0002:0000d584       ?left@?$_Iosb@H@std@@2W4_Fmtflags@12@B 004a4584     OctopusCameraDisplay.obj
 0002:0000d588       ?right@?$_Iosb@H@std@@2W4_Fmtflags@12@B 004a4588     OctopusCameraDisplay.obj
 0002:0000d58c       ?internal@?$_Iosb@H@std@@2W4_Fmtflags@12@B 004a458c     OctopusCameraDisplay.obj
 0002:0000d590       ?dec@?$_Iosb@H@std@@2W4_Fmtflags@12@B 004a4590     OctopusCameraDisplay.obj
 0002:0000d594       ?oct@?$_Iosb@H@std@@2W4_Fmtflags@12@B 004a4594     OctopusCameraDisplay.obj
 0002:0000d598       ?hex@?$_Iosb@H@std@@2W4_Fmtflags@12@B 004a4598     OctopusCameraDisplay.obj
 0002:0000d59c       ?scientific@?$_Iosb@H@std@@2W4_Fmtflags@12@B 004a459c     OctopusCameraDisplay.obj
 0002:0000d5a0       ?fixed@?$_Iosb@H@std@@2W4_Fmtflags@12@B 004a45a0     OctopusCameraDisplay.obj
 0002:0000d5a4       ?hexfloat@?$_Iosb@H@std@@2W4_Fmtflags@12@B 004a45a4     OctopusCameraDisplay.obj
 0002:0000d5a8       ?boolalpha@?$_Iosb@H@std@@2W4_Fmtflags@12@B 004a45a8     OctopusCameraDisplay.obj
 0002:0000d5ac       ?_Stdio@?$_Iosb@H@std@@2W4_Fmtflags@12@B 004a45ac     OctopusCameraDisplay.obj
 0002:0000d5b0       ?adjustfield@?$_Iosb@H@std@@2W4_Fmtflags@12@B 004a45b0     OctopusCameraDisplay.obj
 0002:0000d5b4       ?basefield@?$_Iosb@H@std@@2W4_Fmtflags@12@B 004a45b4     OctopusCameraDisplay.obj
 0002:0000d5b8       ?floatfield@?$_Iosb@H@std@@2W4_Fmtflags@12@B 004a45b8     OctopusCameraDisplay.obj
 0002:0000d5bc       ?goodbit@?$_Iosb@H@std@@2W4_Iostate@12@B 004a45bc     OctopusCameraDisplay.obj
 0002:0000d5c0       ?eofbit@?$_Iosb@H@std@@2W4_Iostate@12@B 004a45c0     OctopusCameraDisplay.obj
 0002:0000d5c4       ?failbit@?$_Iosb@H@std@@2W4_Iostate@12@B 004a45c4     OctopusCameraDisplay.obj
 0002:0000d5c8       ?badbit@?$_Iosb@H@std@@2W4_Iostate@12@B 004a45c8     OctopusCameraDisplay.obj
 0002:0000d5cc       ?_Hardfail@?$_Iosb@H@std@@2W4_Iostate@12@B 004a45cc     OctopusCameraDisplay.obj
 0002:0000d5d0       ?in@?$_Iosb@H@std@@2W4_Openmode@12@B 004a45d0     OctopusCameraDisplay.obj
 0002:0000d5d4       ?out@?$_Iosb@H@std@@2W4_Openmode@12@B 004a45d4     OctopusCameraDisplay.obj
 0002:0000d5d8       ?ate@?$_Iosb@H@std@@2W4_Openmode@12@B 004a45d8     OctopusCameraDisplay.obj
 0002:0000d5dc       ?app@?$_Iosb@H@std@@2W4_Openmode@12@B 004a45dc     OctopusCameraDisplay.obj
 0002:0000d5e0       ?trunc@?$_Iosb@H@std@@2W4_Openmode@12@B 004a45e0     OctopusCameraDisplay.obj
 0002:0000d5e4       ?_Nocreate@?$_Iosb@H@std@@2W4_Openmode@12@B 004a45e4     OctopusCameraDisplay.obj
 0002:0000d5e8       ?_Noreplace@?$_Iosb@H@std@@2W4_Openmode@12@B 004a45e8     OctopusCameraDisplay.obj
 0002:0000d5ec       ?binary@?$_Iosb@H@std@@2W4_Openmode@12@B 004a45ec     OctopusCameraDisplay.obj
 0002:0000d5f0       ?beg@?$_Iosb@H@std@@2W4_Seekdir@12@B 004a45f0     OctopusCameraDisplay.obj
 0002:0000d5f4       ?cur@?$_Iosb@H@std@@2W4_Seekdir@12@B 004a45f4     OctopusCameraDisplay.obj
 0002:0000d5f8       ?end@?$_Iosb@H@std@@2W4_Seekdir@12@B 004a45f8     OctopusCameraDisplay.obj
 0002:0000d600       __real@3ff0000000000000    004a4600     OctopusCameraDisplay.obj
 0002:0000d610       __real@40efffe000000000    004a4610     OctopusCameraDisplay.obj
 0002:0000d620       __real@3fa999999999999a    004a4620     OctopusCameraDisplay.obj
 0002:0000d634       ??_7COctopusPictureDisplay@@6B@ 004a4634     OctopusCameraDisplay.obj
 0002:0000d8b0       __real@402e000000000000    004a48b0     OctopusCameraDisplay.obj
 0002:0000d8c0       __real@4018000000000000    004a48c0     OctopusCameraDisplay.obj
 0002:0000d8d0       __real@3f50624dd2f1a9fc    004a48d0     OctopusCameraDisplay.obj
 0002:0000d8e0       __real@406fe00000000000    004a48e0     OctopusCameraDisplay.obj
 0002:0000d8f0       __real@41dfffffffc00000    004a48f0     OctopusCameraDisplay.obj
 0002:0000d900       __real@3fef5c28f5c28f5c    004a4900     OctopusCameraDisplay.obj
 0002:0000d910       __real@3fb999999999999a    004a4910     OctopusCameraDisplay.obj
 0002:0000d920       __real@4014000000000000    004a4920     OctopusCameraDisplay.obj
 0002:0000d930       __real@bfb999999999999a    004a4930     OctopusCameraDisplay.obj
 0002:0000d940       __real@4034000000000000    004a4940     OctopusCameraDisplay.obj
 0002:0000d950       __real@4002d4fdf3b645a2    004a4950     OctopusCameraDisplay.obj
 0002:0000d960       __real@4004000000000000    004a4960     OctopusCameraDisplay.obj
 0002:0000d970       __real@4000000000000000    004a4970     OctopusCameraDisplay.obj
 0002:0000d980       __real@3eb0c6f7a0b5ed8d    004a4980     OctopusCameraDisplay.obj
 0002:0000d990       __real@3bc79ca10c924223    004a4990     OctopusCameraDisplay.obj
 0002:0000d9a0       __real@3cd203af9ee75616    004a49a0     OctopusCameraDisplay.obj
 0002:0000d9b0       __real@40191eb851eb851f    004a49b0     OctopusCameraDisplay.obj
 0002:0000d9c0       __real@c000000000000000    004a49c0     OctopusCameraDisplay.obj
 0002:0000d9d0       __real@40dfffc000000000    004a49d0     OctopusCameraDisplay.obj
 0002:0000d9e0       __real@bfe0000000000000    004a49e0     OctopusCameraDisplay.obj
 0002:0000f57c       ??_7COctopusCamera@@6B@    004a657c     OctopusCameraDlg.obj
 0002:0000f760       __real@3f1a36e2eb1c432d    004a6760     OctopusCameraDlg.obj
 0002:0000f770       __real@4024000000000000    004a6770     OctopusCameraDlg.obj
 0002:0000fae8       __real@c014000000000000    004a6ae8     OctopusCameraDlg.obj
 0002:00011188       ??_7COctopusGoodClock@@6B@ 004a8188     OctopusClock.obj
 0002:00011190       __real@408f400000000000    004a8190     OctopusClock.obj
 0002:00012834       ?classCOctopusDoc@COctopusDoc@@2UCRuntimeClass@@B 004a9834     OctopusDoc.obj
 0002:0001285c       ??_7COctopusDoc@@6B@       004a985c     OctopusDoc.obj
 0002:000129b0       ??_7CDocumentAdapter@CDocument@@6B@ 004a99b0     OctopusDoc.obj
 0002:000129f4       ??_7IDocument@ATL@@6B@     004a99f4     OctopusDoc.obj
 0002:00012a38       ??_C@_0FD@OGAKBBEJ@c?3?2Program?5Files?5?$CIx86?$CJ?2Microsoft@ 004a9a38     OctopusDoc.obj
 0002:00012a9c       ??_C@_02DKCKIIND@?$CFs?$AA@ 004a9a9c     OctopusDoc.obj
 0002:00012aa0       ??_C@_0EH@JMHNMKFO@CDocumentAdapter?3?3LoadFromStream@ 004a9aa0     OctopusDoc.obj
 0002:00012af8       ??_C@_0EP@JABFNPCO@c?3?2Program?5Files?5?$CIx86?$CJ?2Microsoft@ 004a9af8     OctopusDoc.obj
 0002:00012b58       ??_C@_0FA@LMOECOHI@CDocumentAdapter?3?3InitializeSear@ 004a9b58     OctopusDoc.obj
 0002:00012bb8       ??_C@_0EH@DLNJCMOG@CDocumentAdapter?3?3ClearChunkList@ 004a9bb8     OctopusDoc.obj
 0002:00012c10       ??_C@_0EG@KJPNJGOD@CDocumentAdapter?3?3SetChunkValue?5@ 004a9c10     OctopusDoc.obj
 0002:00012c68       ??_C@_0EI@OACGLLFN@CDocumentAdapter?3?3BeginReadChunk@ 004a9c68     OctopusDoc.obj
 0002:00012cc0       ??_C@_0EL@JFJHODOO@CDocumentAdapter?3?3ReadNextChunkV@ 004a9cc0     OctopusDoc.obj
 0002:00012d20       ??_C@_0EE@DGBLNKAJ@CDocumentAdapter?3?3RemoveChunk?5is@ 004a9d20     OctopusDoc.obj
 0002:00012d78       ??_C@_0EC@LNKAMCLD@CDocumentAdapter?3?3FindChunk?5is?5c@ 004a9d78     OctopusDoc.obj
 0002:00012dc8       ??_C@_0EF@JFFEAAHE@CDocumentAdapter?3?3GetThumbnail?5i@ 004a9dc8     OctopusDoc.obj
 0002:00012e20       ??_C@_0FE@IDJJLJDH@Override?5this?5method?5in?5a?5derive@ 004a9e20     OctopusDoc.obj
 0002:00014b64       ??_7COctopusFocus@@6B@     004abb64     OctopusFocus.obj
 0002:00014d48       __real@4067c00000000000    004abd48     OctopusFocus.obj
 0002:00016664       ??_7OctopusLaser@@6B@      004ad664     OctopusLaser.obj
 0002:000168c4       __real@44800000            004ad8c4     OctopusLaser.obj
 0002:00017f8c       ??_7COctopusLasers@@6B@    004aef8c     OctopusLasers.obj
 0002:000198d8       ??_C@_0FC@JMCEKLDJ@c?3?2Program?5Files?5?$CIx86?$CJ?2Microsoft@ 004b08d8     OctopusLog.obj
 0002:0001993c       ??_C@_0BF@IAAKIJDJ@AtlThrow?3?5hr?5?$DN?50x?$CFx?6?$AA@ 004b093c     OctopusLog.obj
 0002:0001b1e0       __real@4069000000000000    004b21e0     OctopusObjectivePiezo.obj
 0002:0001b1f0       __real@4045000000000000    004b21f0     OctopusObjectivePiezo.obj
 0002:0001b204       ??_7COctopusObjectivePiezo@@6B@ 004b2204     OctopusObjectivePiezo.obj
 0002:0001b3e8       __real@3f747ae147ae147b    004b23e8     OctopusObjectivePiezo.obj
 0002:0001b3f8       __real@3fe0000000000000    004b23f8     OctopusObjectivePiezo.obj
 0002:0001cf84       ??_7COctopusScope@@6B@     004b3f84     OctopusScope.obj
 0002:0001d4d0       __real@40cd4c0000000000    004b44d0     OctopusScope.obj
 0002:0001f0ac       ??_7COctopusScript@@6B@    004b60ac     OctopusScript.obj
 0002:0001f328       __real@4039000000000000    004b6328     OctopusScript.obj
 0002:0001f334       __real@bf800000            004b6334     OctopusScript.obj
 0002:0001f338       __real@bff0000000000000    004b6338     OctopusScript.obj
 0002:0001f344       __real@3f800000            004b6344     OctopusScript.obj
 0002:0001f348       __real@41a00000            004b6348     OctopusScript.obj
 0002:0001f34c       __real@c1a00000            004b634c     OctopusScript.obj
 0002:0001f350       __real@c034000000000000    004b6350     OctopusScript.obj
 0002:0001f35c       __real@40800000            004b635c     OctopusScript.obj
 0002:00020cac       ??_7COctopusShutterAndWheel@@6B@ 004b7cac     OctopusShutter.obj
 0002:00020f68       __real@4062000000000000    004b7f68     OctopusShutter.obj
 0002:00020f78       __real@3ff70a3d70a3d70a    004b7f78     OctopusShutter.obj
 0002:000228ec       ??_7COctopusStage545@@6B@  004b98ec     OctopusStage545.obj
 0002:00022ad0       __real@4038f9999999999a    004b9ad0     OctopusStage545.obj
 0002:00022ae0       __real@4028000000000000    004b9ae0     OctopusStage545.obj
 0002:00022af0       __real@40d86a0000000000    004b9af0     OctopusStage545.obj
 0002:00022cf8       __real@3f847ae147ae147b    004b9cf8     OctopusStage545.obj
 0002:00022d08       __real@3fd0000000000000    004b9d08     OctopusStage545.obj
 0002:0002467c       ?classCOctopusView@COctopusView@@2UCRuntimeClass@@B 004bb67c     OctopusView.obj
 0002:000247d4       ??_7COctopusView@@6B@      004bb7d4     OctopusView.obj
 0002:0002607c       __real@3eaaaaab            004bd07c     levmar:lm.obj
 0002:00026080       __real@3af357c2a0000000    004bd080     levmar:lm.obj
 0002:00026088       __real@ff7fffff            004bd088     levmar:lm.obj
 0002:0002608c       ??_C@_0DB@IBGMFDOM@slevmar_der?$CI?$CJ?3?5memory?5allocation@ 004bd08c     levmar:lm.obj
 0002:000260c0       __real@0704ec3c            004bd0c0     levmar:lm.obj
 0002:000260c4       __real@233877aa            004bd0c4     levmar:lm.obj
 0002:000260c8       __real@3a83126f            004bd0c8     levmar:lm.obj
 0002:000260d0       ??_C@_0JC@OFJLFOLC@No?5function?5specified?5for?5comput@ 004bd0d0     levmar:lm.obj
 0002:00026168       ??_C@_0FH@NCHMBDLE@slevmar_der?$CI?$CJ?3?5cannot?5solve?5a?5pr@ 004bd168     levmar:lm.obj
 0002:000261c0       __real@7f7fffff            004bd1c0     levmar:lm.obj
 0002:000261c4       ??_C@_0DB@PJHNBGDP@slevmar_dif?$CI?$CJ?3?5memory?5allocation@ 004bd1c4     levmar:lm.obj
 0002:000261f8       __real@358637bd            004bd1f8     levmar:lm.obj
 0002:00026200       ??_C@_0FH@LHPFGAP@slevmar_dif?$CI?$CJ?3?5cannot?5solve?5a?5pr@ 004bd200     levmar:lm.obj
 0002:00026258       __real@3fd555555567a895    004bd258     levmar:lm.obj
 0002:00026260       __real@3af357c299a88ea7    004bd260     levmar:lm.obj
 0002:00026268       __real@ffefffffffffffff    004bd268     levmar:lm.obj
 0002:00026270       ??_C@_0DB@DLJEOGK@dlevmar_der?$CI?$CJ?3?5memory?5allocation@ 004bd270     levmar:lm.obj
 0002:000262a8       __real@38e09d8792fb4c4a    004bd2a8     levmar:lm.obj
 0002:000262b0       __real@3c670ef54646d497    004bd2b0     levmar:lm.obj
 0002:000262b8       ??_C@_0JC@IHDJELPJ@No?5function?5specified?5for?5comput@ 004bd2b8     levmar:lm.obj
 0002:00026350       ??_C@_0FH@PKBAEKLE@dlevmar_der?$CI?$CJ?3?5cannot?5solve?5a?5pr@ 004bd350     levmar:lm.obj
 0002:000263a8       __real@7fefffffffffffff    004bd3a8     levmar:lm.obj
 0002:000263b0       ??_C@_0DB@HLKIALLJ@dlevmar_dif?$CI?$CJ?3?5memory?5allocation@ 004bd3b0     levmar:lm.obj
 0002:000263e8       ??_C@_0FH@CDBDAPAP@dlevmar_dif?$CI?$CJ?3?5cannot?5solve?5a?5pr@ 004bd3e8     levmar:lm.obj
 0002:00026440       ??_C@_01NANMIPIL@N?$AA@    004bd440     levmar:misc.obj
 0002:00026444       ??_C@_01GAPBHFFA@T?$AA@    004bd444     levmar:misc.obj
 0002:00026448       __real@3f1a36e2e0000000    004bd448     levmar:misc.obj
 0002:00026450       __real@34000000            004bd450     levmar:misc.obj
 0002:00026458       __real@3ee9000000000000    004bd458     levmar:misc.obj
 0002:00026460       ??_C@_0DE@GALELFEI@slevmar_chkjac?$CI?$CJ?3?5memory?5allocat@ 004bd460     levmar:misc.obj
 0002:00026498       __real@3e80000000000000    004bd498     levmar:misc.obj
 0002:000264a0       ??_C@_0GH@JGAJGJGB@LAPACK?5error?3?5dgesdd?5?$CIdbdsdc?$CJ?1dg@ 004bd4a0     levmar:misc.obj
 0002:00026508       ??_C@_0FO@CEMBLKOM@LAPACK?5error?3?5illegal?5value?5for?5@ 004bd508     levmar:misc.obj
 0002:00026568       ??_C@_01FHEEJDEE@A?$AA@    004bd568     levmar:misc.obj
 0002:0002656c       ??_C@_0DG@MLACHCEN@memory?5allocation?5in?5slevmar_pse@ 004bd56c     levmar:misc.obj
 0002:000265a4       ??_C@_0DC@HGBEPPLN@memory?5allocation?5request?5failed@ 004bd5a4     levmar:misc.obj
 0002:000265d8       ??_C@_0EM@GKNBNKCK@LAPACK?5error?3?5the?5leading?5minor?5@ 004bd5d8     levmar:misc.obj
 0002:00026628       ??_C@_0EG@JJJOIGJI@and?5the?5Cholesky?5factorization?5c@ 004bd628     levmar:misc.obj
 0002:00026670       ??_C@_0DN@BOKGPFAO@LAPACK?5error?3?5illegal?5value?5for?5@ 004bd670     levmar:misc.obj
 0002:000266b0       ??_C@_0P@PAMLFKAD@slevmar_chol?$CI?$CJ?$AA@ 004bd6b0     levmar:misc.obj
 0002:000266c0       ??_C@_01OCOKONAJ@L?$AA@    004bd6c0     levmar:misc.obj
 0002:000266c8       __real@3d19000000000000    004bd6c8     levmar:misc.obj
 0002:000266d0       ??_C@_0DE@IMNJJILP@dlevmar_chkjac?$CI?$CJ?3?5memory?5allocat@ 004bd6d0     levmar:misc.obj
 0002:00026708       __real@3cb0000000000000    004bd708     levmar:misc.obj
 0002:00026710       ??_C@_0GH@NKLKEAJB@LAPACK?5error?3?5dgesdd?5?$CIdbdsdc?$CJ?1dg@ 004bd710     levmar:misc.obj
 0002:00026778       ??_C@_0FO@OLEMLPHA@LAPACK?5error?3?5illegal?5value?5for?5@ 004bd778     levmar:misc.obj
 0002:000267d8       ??_C@_0DG@JCBEIDCG@memory?5allocation?5in?5dlevmar_pse@ 004bd7d8     levmar:misc.obj
 0002:00026810       ??_C@_0DC@HFGLGJBB@memory?5allocation?5request?5failed@ 004bd810     levmar:misc.obj
 0002:00026848       ??_C@_0EG@FAOKCGBK@and?5the?5Cholesky?5factorization?5c@ 004bd848     levmar:misc.obj
 0002:00026890       ??_C@_0P@CPKIMKFG@dlevmar_chol?$CI?$CJ?$AA@ 004bd890     levmar:misc.obj
 0002:000268a0       ??_C@_0FK@PBCCIJBO@LAPACK?5error?3?5the?5?$CFd?9th?5diagonal@ 004bd8a0     levmar:Axb.obj
 0002:00026900       ??_C@_0EJ@NGMJAJGE@LAPACK?5error?3?5illegal?5value?5for?5@ 004bd900     levmar:Axb.obj
 0002:0002694c       ??_C@_01HJOKEEBB@U?$AA@    004bd94c     levmar:Axb.obj
 0002:00026950       ??_C@_0CM@JHNLNMOH@Unknown?5LAPACK?5error?5?$CI?$CFd?$CJ?5in?5dAx@ 004bd950     levmar:Axb.obj
 0002:00026980       ??_C@_0EJ@EGANJKEB@LAPACK?5error?3?5illegal?5value?5for?5@ 004bd980     levmar:Axb.obj
 0002:000269cc       ??_C@_0DG@IPEEPJOP@Unknown?5LAPACK?5error?5?$CFd?5for?5dgeq@ 004bd9cc     levmar:Axb.obj
 0002:00026a08       ??_C@_0EJ@KIKIAOJN@LAPACK?5error?3?5illegal?5value?5for?5@ 004bda08     levmar:Axb.obj
 0002:00026a54       ??_C@_0CM@IHOMHELB@memory?5allocation?5in?5dAx_eq_b_QR@ 004bda54     levmar:Axb.obj
 0002:00026a80       ??_C@_0FM@KHGKLCAL@LAPACK?5error?3?5the?5?$CFd?9th?5diagonal@ 004bda80     levmar:Axb.obj
 0002:00026ae0       ??_C@_0EL@JPACIHLM@LAPACK?5error?3?5illegal?5value?5for?5@ 004bdae0     levmar:Axb.obj
 0002:00026b2c       ??_C@_0DI@PKMIGNKN@Unknown?5LAPACK?5error?5?$CFd?5for?5dgeq@ 004bdb2c     levmar:Axb.obj
 0002:00026b68       ??_C@_0EL@MEBIDGIK@LAPACK?5error?3?5illegal?5value?5for?5@ 004bdb68     levmar:Axb.obj
 0002:00026bb4       ??_C@_0CO@FHANMIBE@memory?5allocation?5in?5dAx_eq_b_QR@ 004bdbb4     levmar:Axb.obj
 0002:00026be8       ??_C@_0IF@LHKMNCPK@Normal?5equations?5require?5that?5th@ 004bdbe8     levmar:Axb.obj
 0002:00026c70       ??_C@_0EL@FMHFDOPB@LAPACK?5error?3?5illegal?5value?5for?5@ 004bdc70     levmar:Axb.obj
 0002:00026cc0       ??_C@_0JH@CBEJKAGG@LAPACK?5error?3?5the?5leading?5minor?5@ 004bdcc0     levmar:Axb.obj
 0002:00026d58       ??_C@_0FD@KCPLLOOD@LAPACK?5error?3?5illegal?5value?5for?5@ 004bdd58     levmar:Axb.obj
 0002:00026dac       ??_C@_0CO@MCOGKDH@memory?5allocation?5in?5dAx_eq_b_Ch@ 004bddac     levmar:Axb.obj
 0002:00026ddc       ??_C@_0CM@KOAKHMJD@unknown?5error?5for?5dgetrs_?5in?5dAx@ 004bdddc     levmar:Axb.obj
 0002:00026e08       ??_C@_0DB@ECMCDJMA@argument?5?$CFd?5of?5dgetrs_?5illegal?5i@ 004bde08     levmar:Axb.obj
 0002:00026e3c       ??_C@_0DA@NILOBIKP@singular?5matrix?5A?5for?5dgetrf_?5in@ 004bde3c     levmar:Axb.obj
 0002:00026e6c       ??_C@_0DB@PAGDAPDA@argument?5?$CFd?5of?5dgetrf_?5illegal?5i@ 004bde6c     levmar:Axb.obj
 0002:00026ea0       ??_C@_0CM@CLNHDONO@memory?5allocation?5in?5dAx_eq_b_LU@ 004bdea0     levmar:Axb.obj
 0002:00026ed0       ??_C@_0FO@KABOHMPK@LAPACK?5error?3?5dgesdd?5?$CIdbdsdc?$CJ?1dg@ 004bded0     levmar:Axb.obj
 0002:00026f30       ??_C@_0FF@OMHJDCBF@LAPACK?5error?3?5illegal?5value?5for?5@ 004bdf30     levmar:Axb.obj
 0002:00026f88       ??_C@_0CN@HHCAPPGL@memory?5allocation?5in?5dAx_eq_b_SV@ 004bdf88     levmar:Axb.obj
 0002:00026fb8       ??_C@_0EJ@HKDIOFJM@LAPACK?5error?3?5illegal?5value?5for?5@ 004bdfb8     levmar:Axb.obj
 0002:00027008       ??_C@_0GA@FPBHOMHI@LAPACK?5error?3?5singular?5block?5dia@ 004be008     levmar:Axb.obj
 0002:00027068       ??_C@_0EJ@LMPPHAFF@LAPACK?5error?3?5illegal?5value?5for?5@ 004be068     levmar:Axb.obj
 0002:000270b4       ??_C@_0CM@KOKNMBDE@memory?5allocation?5in?5dAx_eq_b_BK@ 004be0b4     levmar:Axb.obj
 0002:000270e0       ??_C@_0FK@COEBBJEL@LAPACK?5error?3?5the?5?$CFd?9th?5diagonal@ 004be0e0     levmar:Axb.obj
 0002:00027140       ??_C@_0EJ@HLDLLJGP@LAPACK?5error?3?5illegal?5value?5for?5@ 004be140     levmar:Axb.obj
 0002:0002718c       ??_C@_0CM@EILIEMLC@Unknown?5LAPACK?5error?5?$CI?$CFd?$CJ?5in?5sAx@ 004be18c     levmar:Axb.obj
 0002:000271b8       ??_C@_0EJ@OLPPCKEK@LAPACK?5error?3?5illegal?5value?5for?5@ 004be1b8     levmar:Axb.obj
 0002:00027204       ??_C@_0DG@CCLGEJOE@Unknown?5LAPACK?5error?5?$CFd?5for?5sgeq@ 004be204     levmar:Axb.obj
 0002:00027240       ??_C@_0EJ@FFKLOJG@LAPACK?5error?3?5illegal?5value?5for?5@ 004be240     levmar:Axb.obj
 0002:0002728c       ??_C@_0CM@PACHGKFD@memory?5allocation?5in?5sAx_eq_b_QR@ 004be28c     levmar:Axb.obj
 0002:000272b8       ??_C@_0FM@JAKJFHDN@LAPACK?5error?3?5the?5?$CFd?9th?5diagonal@ 004be2b8     levmar:Axb.obj
 0002:00027318       ??_C@_0EL@LHJHEAAJ@LAPACK?5error?3?5illegal?5value?5for?5@ 004be318     levmar:Axb.obj
 0002:00027364       ??_C@_0DI@NCFNKKBI@Unknown?5LAPACK?5error?5?$CFd?5for?5sgeq@ 004be364     levmar:Axb.obj
 0002:000273a0       ??_C@_0EL@OMINPBDP@LAPACK?5error?3?5illegal?5value?5for?5@ 004be3a0     levmar:Axb.obj
 0002:000273ec       ??_C@_0CO@MBEKBDNC@memory?5allocation?5in?5sAx_eq_b_QR@ 004be3ec     levmar:Axb.obj
 0002:00027420       ??_C@_0IF@FDJHENJF@Normal?5equations?5require?5that?5th@ 004be420     levmar:Axb.obj
 0002:000274a8       ??_C@_0EL@HEOAPJEE@LAPACK?5error?3?5illegal?5value?5for?5@ 004be4a8     levmar:Axb.obj
 0002:000274f8       ??_C@_0JH@LECNCGOG@LAPACK?5error?3?5the?5leading?5minor?5@ 004be4f8     levmar:Axb.obj
 0002:00027590       ??_C@_0FD@DHJPDIGD@LAPACK?5error?3?5illegal?5value?5for?5@ 004be590     levmar:Axb.obj
 0002:000275e4       ??_C@_0CO@JKGJLBPB@memory?5allocation?5in?5sAx_eq_b_Ch@ 004be5e4     levmar:Axb.obj
 0002:00027614       ??_C@_0CM@DPIMMJI@unknown?5error?5for?5sgetrs_?5in?5sAx@ 004be614     levmar:Axb.obj
 0002:00027640       ??_C@_0DB@EHJIAHLE@argument?5?$CFd?5of?5sgetrs_?5illegal?5i@ 004be640     levmar:Axb.obj
 0002:00027674       ??_C@_0DA@HFEMKIKE@singular?5matrix?5A?5for?5sgetrf_?5in@ 004be674     levmar:Axb.obj
 0002:000276a4       ??_C@_0DB@PFDJDBEE@argument?5?$CFd?5of?5sgetrf_?5illegal?5i@ 004be6a4     levmar:Axb.obj
 0002:000276d8       ??_C@_0CM@FMBMCADM@memory?5allocation?5in?5sAx_eq_b_LU@ 004be6d8     levmar:Axb.obj
 0002:00027708       ??_C@_0FO@NCIPFMKE@LAPACK?5error?3?5dgesdd?5?$CIdbdsdc?$CJ?1dg@ 004be708     levmar:Axb.obj
 0002:00027768       ??_C@_0FF@NIOMBHGM@LAPACK?5error?3?5illegal?5value?5for?5@ 004be768     levmar:Axb.obj
 0002:000277c0       ??_C@_0CN@DJFDLHCB@memory?5allocation?5in?5sAx_eq_b_SV@ 004be7c0     levmar:Axb.obj
 0002:000277f0       ??_C@_0EJ@NHMKFFJH@LAPACK?5error?3?5illegal?5value?5for?5@ 004be7f0     levmar:Axb.obj
 0002:00027840       ??_C@_0GA@CGPEKBAE@LAPACK?5error?3?5singular?5block?5dia@ 004be840     levmar:Axb.obj
 0002:000278a0       ??_C@_0EJ@BBANMAFO@LAPACK?5error?3?5illegal?5value?5for?5@ 004be8a0     levmar:Axb.obj
 0002:000278ec       ??_C@_0CM@NJGGNPNG@memory?5allocation?5in?5sAx_eq_b_BK@ 004be8ec     levmar:Axb.obj
 0002:00027918       ??_C@_07KJLOKDKB@TypeLib?$AA@ 004be918     mfcs100d:nolib.obj
 0002:00027920       ??_C@_08KEKAJNJI@Software?$AA@ 004be920     mfcs100d:nolib.obj
 0002:0002792c       ??_C@_06FDHFNJBJ@SYSTEM?$AA@ 004be92c     mfcs100d:nolib.obj
 0002:00027934       ??_C@_08LOPHEHKG@SECURITY?$AA@ 004be934     mfcs100d:nolib.obj
 0002:00027940       ??_C@_03DDIMFGBA@SAM?$AA@  004be940     mfcs100d:nolib.obj
 0002:00027944       ??_C@_04IHBFOLAC@Mime?$AA@ 004be944     mfcs100d:nolib.obj
 0002:0002794c       ??_C@_08PPIOJEA@Hardware?$AA@ 004be94c     mfcs100d:nolib.obj
 0002:00027958       ??_C@_09JKPGEJCH@Interface?$AA@ 004be958     mfcs100d:nolib.obj
 0002:00027964       ??_C@_08PICKODJL@FileType?$AA@ 004be964     mfcs100d:nolib.obj
 0002:00027970       ??_C@_0BF@HDDNNDFH@Component?5Categories?$AA@ 004be970     mfcs100d:nolib.obj
 0002:00027988       ??_C@_05GIBEAPNE@CLSID?$AA@ 004be988     mfcs100d:nolib.obj
 0002:00027990       ??_C@_05PDIKPLII@AppID?$AA@ 004be990     mfcs100d:nolib.obj
 0002:00027998       ??_C@_06JBKGCNBB@Delete?$AA@ 004be998     mfcs100d:nolib.obj
 0002:000279a0       ??_C@_08KAAPDIAN@NoRemove?$AA@ 004be9a0     mfcs100d:nolib.obj
 0002:000279ac       ??_C@_0M@DBGDLGLL@ForceRemove?$AA@ 004be9ac     mfcs100d:nolib.obj
 0002:000279b8       ??_C@_03LAIAPFCB@Val?$AA@  004be9b8     mfcs100d:nolib.obj
 0002:000279bc       ??_C@_01HMGJMAIH@B?$AA@    004be9bc     mfcs100d:nolib.obj
 0002:000279c0       ??_C@_01CKDDGHAB@D?$AA@    004be9c0     mfcs100d:nolib.obj
 0002:000279c4       ??_C@_01PLPBNMEI@M?$AA@    004be9c4     mfcs100d:nolib.obj
 0002:000279c8       ??_C@_01CPLAODJH@S?$AA@    004be9c8     mfcs100d:nolib.obj
 0002:000279cc       ??_C@_0BF@GPPHKJFN@Invalid?5DateTimeSpan?$AA@ 004be9cc     mfcs100d:nolib.obj
 0002:000279e4       ??_C@_0BB@KEKMKJPM@Invalid?5DateTime?$AA@ 004be9e4     mfcs100d:nolib.obj
 0002:00027a3c       ??_7type_info@@6B@         004bea3c     msvcrtd:ti_inst.obj
 0002:00027a40       ??_C@_1GA@EHAKPACL@?$AAf?$AA?3?$AA?2?$AAd?$AAd?$AA?2?$AAv?$AAc?$AAt?$AAo?$AAo?$AAl?$AAs?$AA?2?$AAc?$AAr?$AAt?$AA_?$AAb?$AAl?$AAd?$AA?2?$AAs?$AAe?$AAl?$AAf?$AA_?$AAx?$AA8?$AA6?$AA?2?$AAc@ 004bea40     msvcrtd:crtexew.obj
 0002:00027aa0       ??_C@_1FA@DALEHHGL@?$AA_?$AA_?$AAn?$AAa?$AAt?$AAi?$AAv?$AAe?$AA_?$AAs?$AAt?$AAa?$AAr?$AAt?$AAu?$AAp?$AA_?$AAs?$AAt?$AAa?$AAt?$AAe?$AA?5?$AA?$DN?$AA?$DN?$AA?5?$AA_?$AA_?$AAi?$AAn?$AAi?$AAt@ 004beaa0     msvcrtd:crtexew.obj
 0002:00027af8       ?ProcessDetach@NativeDll@<CrtImplementationDetails>@@0IB 004beaf8     msvcrtd:unhandld.obj
 0002:00027afc       ?ProcessAttach@NativeDll@<CrtImplementationDetails>@@0IB 004beafc     msvcrtd:unhandld.obj
 0002:00027b00       ?ThreadAttach@NativeDll@<CrtImplementationDetails>@@0IB 004beb00     msvcrtd:unhandld.obj
 0002:00027b04       ?ThreadDetach@NativeDll@<CrtImplementationDetails>@@0IB 004beb04     msvcrtd:unhandld.obj
 0002:00027b08       ?ProcessVerifier@NativeDll@<CrtImplementationDetails>@@0IB 004beb08     msvcrtd:unhandld.obj
 0002:00027b10       ??_C@_1GE@KOCFNGPB@?$AA_?$AAc?$AAo?$AAn?$AAt?$AAr?$AAo?$AAl?$AAf?$AAp?$AA_?$AAs?$AA?$CI?$AA?$CI?$AA?$CI?$AAv?$AAo?$AAi?$AAd?$AA?5?$AA?$CK?$AA?$CJ?$AA0?$AA?$CJ?$AA?0?$AA?5?$AA0?$AAx?$AA0?$AA0?$AA0?$AA1@ 004beb10     msvcrtd:fp8.obj
 0002:00027b74       ??_C@_1CK@JMKHCBEI@?$AA_?$AAs?$AAe?$AAt?$AAd?$AAe?$AAf?$AAa?$AAu?$AAl?$AAt?$AAp?$AAr?$AAe?$AAc?$AAi?$AAs?$AAi?$AAo?$AAn?$AA?$AA@ 004beb74     msvcrtd:fp8.obj
 0002:00027ba0       ??_C@_1GG@PHGJJHBC@?$AAf?$AA?3?$AA?2?$AAd?$AAd?$AA?2?$AAv?$AAc?$AAt?$AAo?$AAo?$AAl?$AAs?$AA?2?$AAc?$AAr?$AAt?$AA_?$AAb?$AAl?$AAd?$AA?2?$AAs?$AAe?$AAl?$AAf?$AA_?$AAx?$AA8?$AA6?$AA?2?$AAc@ 004beba0     msvcrtd:fp8.obj
 0002:00027c08       ??_C@_06JMICFIKN@?$CFs_?$CF0x?$AA@ 004bec08     atlsd:Externs.obj
 0002:00027c10       ??_C@_0CM@OGPEFHLG@AtlDebugAllocator_FileMappingNam@ 004bec10     atlsd:Externs.obj
 0002:00027c3c       ??_C@_0CN@PLNFEEEE@AtlTraceModuleManager_ProcessAdd@ 004bec3c     atlsd:Externs.obj
 0002:00027c70       ??_C@_1GM@OMLOBEGL@?$AAf?$AA?3?$AA?2?$AAd?$AAd?$AA?2?$AAv?$AAc?$AAt?$AAo?$AAo?$AAl?$AAs?$AA?2?$AAv?$AAc?$AA7?$AAl?$AAi?$AAb?$AAs?$AA?2?$AAs?$AAh?$AAi?$AAp?$AA?2?$AAa?$AAt?$AAl?$AAm?$AAf@ 004bec70     atlsd:Externs.obj
 0002:00027cdc       ??_C@_1M@HLGKFCJM@?$AAf?$AAa?$AAl?$AAs?$AAe?$AA?$AA@ 004becdc     atlsd:Externs.obj
 0002:00027ce8       ??_C@_0DG@BLHODJEO@f?3?2dd?2vctools?2vc7libs?2ship?2atlmf@ 004bece8     atlsd:Externs.obj
 0002:00027d20       ??_C@_0BA@MKMIKKJB@atlTraceGeneral?$AA@ 004bed20     atlsd:atltrace.obj
 0002:00027d30       ??_C@_0M@DGPFJEBB@atlTraceCOM?$AA@ 004bed30     atlsd:atltrace.obj
 0002:00027d3c       ??_C@_0L@LHELAKBP@atlTraceQI?$AA@ 004bed3c     atlsd:atltrace.obj
 0002:00027d48       ??_C@_0BC@MALHFBAO@atlTraceRegistrar?$AA@ 004bed48     atlsd:atltrace.obj
 0002:00027d5c       ??_C@_0BB@ILPPDKFL@atlTraceRefcount?$AA@ 004bed5c     atlsd:atltrace.obj
 0002:00027d70       ??_C@_0BC@DGHHNKDC@atlTraceWindowing?$AA@ 004bed70     atlsd:atltrace.obj
 0002:00027d84       ??_C@_0BB@GHKJKKIE@atlTraceControls?$AA@ 004bed84     atlsd:atltrace.obj
 0002:00027d98       ??_C@_0BA@DKOAAGGM@atlTraceHosting?$AA@ 004bed98     atlsd:atltrace.obj
 0002:00027da8       ??_C@_0BB@BEBMGMDO@atlTraceDBClient?$AA@ 004beda8     atlsd:atltrace.obj
 0002:00027dbc       ??_C@_0BD@KOADKDIA@atlTraceDBProvider?$AA@ 004bedbc     atlsd:atltrace.obj
 0002:00027dd0       ??_C@_0P@LNEGBOLO@atlTraceSnapin?$AA@ 004bedd0     atlsd:atltrace.obj
 0002:00027de0       ??_C@_0BA@MCBFIDIC@atlTraceNotImpl?$AA@ 004bede0     atlsd:atltrace.obj
 0002:00027df0       ??_C@_0BD@PJPCCAKP@atlTraceAllocation?$AA@ 004bedf0     atlsd:atltrace.obj
 0002:00027e04       ??_C@_0BC@PGMFNIFA@atlTraceException?$AA@ 004bee04     atlsd:atltrace.obj
 0002:00027e18       ??_C@_0N@BNNILHBE@atlTraceTime?$AA@ 004bee18     atlsd:atltrace.obj
 0002:00027e28       ??_C@_0O@MEOJAOKK@atlTraceCache?$AA@ 004bee28     atlsd:atltrace.obj
 0002:00027e38       ??_C@_0BA@IDBKCKK@atlTraceStencil?$AA@ 004bee38     atlsd:atltrace.obj
 0002:00027e48       ??_C@_0P@MBNHGHMI@atlTraceString?$AA@ 004bee48     atlsd:atltrace.obj
 0002:00027e58       ??_C@_0M@IOBBMAHG@atlTraceMap?$AA@ 004bee58     atlsd:atltrace.obj
 0002:00027e64       ??_C@_0N@FEAAACHD@atlTraceUtil?$AA@ 004bee64     atlsd:atltrace.obj
 0002:00027e74       ??_C@_0BB@DNJDADMG@atlTraceSecurity?$AA@ 004bee74     atlsd:atltrace.obj
 0002:00027e88       ??_C@_0N@KLPNCFEE@atlTraceSync?$AA@ 004bee88     atlsd:atltrace.obj
 0002:00027e98       ??_C@_0O@KHOBHOBJ@atlTraceISAPI?$AA@ 004bee98     atlsd:atltrace.obj
 0002:00027ea8       ??_C@_0N@BEIMPMHB@atlTraceUser?$AA@ 004beea8     atlsd:atltrace.obj
 0002:00027eb8       ??_C@_0O@MKGGJJCH@atlTraceUser2?$AA@ 004beeb8     atlsd:atltrace.obj
 0002:00027ec8       ??_C@_0O@NDHNKIGG@atlTraceUser3?$AA@ 004beec8     atlsd:atltrace.obj
 0002:00027ed8       ??_C@_0O@JMDMDOKB@atlTraceUser4?$AA@ 004beed8     atlsd:atltrace.obj
 0002:00027ee8       ??_C@_1HO@MNFHLCLF@?$AAf?$AA?3?$AA?2?$AAd?$AAd?$AA?2?$AAv?$AAc?$AAt?$AAo?$AAo?$AAl?$AAs?$AA?2?$AAv?$AAc?$AA7?$AAl?$AAi?$AAb?$AAs?$AA?2?$AAs?$AAh?$AAi?$AAp?$AA?2?$AAa?$AAt?$AAl?$AAm?$AAf@ 004beee8     atlsd:AtlDebugAPI.obj
 0002:00027f68       ??_C@_1BK@LIHAAANN@?$AAp?$AAM?$AAo?$AAd?$AAu?$AAl?$AAe?$AA?5?$AA?$CB?$AA?$DN?$AA?5?$AA0?$AA?$AA@ 004bef68     atlsd:AtlDebugAPI.obj
 0002:00027f84       ??_C@_1BM@DFEBCPM@?$AAp?$AAP?$AAr?$AAo?$AAc?$AAe?$AAs?$AAs?$AA?5?$AA?$CB?$AA?$DN?$AA?5?$AA0?$AA?$AA@ 004bef84     atlsd:AtlDebugAPI.obj
 0002:00027fa0       ??_C@_1BM@GBBOFEAE@?$AA_?$AA_?$AAa?$AAt?$AAl?$AA_?$AAc?$AAo?$AAn?$AAd?$AAV?$AAa?$AAl?$AA?$AA@ 004befa0     atlsd:AtlDebugAPI.obj
 0002:00027fbc       ??_C@_04FFDMEMDO@?$CFS?3?5?$AA@ 004befbc     atlsd:AtlDebugAPI.obj
 0002:00027fc4       ??_C@_09IIMHCEDG@?$CFs?$CI?$CFd?$CJ?5?3?5?$AA@ 004befc4     atlsd:AtlDebugAPI.obj
 0002:00027fd0       ??_C@_02KPKOKMHB@?$CFS?$AA@ 004befd0     atlsd:AtlDebugAPI.obj
 0002:00027fd4       ??_C@_19JCANECJL@?$AA?$CF?$AAs?$AA?3?$AA?5?$AA?$AA@ 004befd4     atlsd:AtlDebugAPI.obj
 0002:00027fe0       ??_C@_1BE@PGKGHBDF@?$AA?$CF?$AAS?$AA?$CI?$AA?$CF?$AAd?$AA?$CJ?$AA?5?$AA?3?$AA?5?$AA?$AA@ 004befe0     atlsd:AtlDebugAPI.obj
 0002:00027ff4       ??_C@_1DA@NMHCLMEJ@?$AAp?$AAA?$AAl?$AAl?$AAo?$AAc?$AAa?$AAt?$AAo?$AAr?$AA?9?$AA?$DO?$AAm?$AA_?$AAb?$AAS?$AAn?$AAa?$AAp?$AAs?$AAh?$AAo?$AAt?$AA?$AA@ 004beff4     atlsd:AtlDebugAPI.obj
 0002:00028024       ??_C@_1CE@NDBHOLMF@?$AAp?$AAP?$AAr?$AAo?$AAc?$AAe?$AAs?$AAs?$AAI?$AAn?$AAf?$AAo?$AA?5?$AA?$CB?$AA?$DN?$AA?5?$AA0?$AA?$AA@ 004bf024     atlsd:AtlDebugAPI.obj
 0002:00028048       ??_C@_1CC@ONKAHKMP@?$AAp?$AAM?$AAo?$AAd?$AAu?$AAl?$AAe?$AAI?$AAn?$AAf?$AAo?$AA?5?$AA?$CB?$AA?$DN?$AA?5?$AA0?$AA?$AA@ 004bf048     atlsd:AtlDebugAPI.obj
 0002:0002806c       ??_C@_1CG@BANGGBIE@?$AAp?$AAC?$AAa?$AAt?$AAe?$AAg?$AAo?$AAr?$AAy?$AAI?$AAn?$AAf?$AAo?$AA?5?$AA?$CB?$AA?$DN?$AA?5?$AA0?$AA?$AA@ 004bf06c     atlsd:AtlDebugAPI.obj
 0002:00028094       ??_C@_1BC@JOPFIJLO@?$AAp?$AAP?$AAr?$AAo?$AAc?$AAe?$AAs?$AAs?$AA?$AA@ 004bf094     atlsd:AtlDebugAPI.obj
 0002:000280a8       ??_C@_1DM@CECLCIOA@?$AAp?$AAp?$AAC?$AAa?$AAt?$AAe?$AAg?$AAo?$AAr?$AAy?$AA?5?$AA?$CG?$AA?$CG?$AA?5?$AAp?$AAf?$AAn?$AAC?$AAr?$AAt?$AAD?$AAb?$AAg?$AAR?$AAe?$AAp?$AAo?$AAr?$AAt?$AA?$AA@ 004bf0a8     atlsd:AtlDebugAPI.obj
 0002:000280e8       ??_C@_1HA@EFGOBFOA@?$AAf?$AA?3?$AA?2?$AAd?$AAd?$AA?2?$AAv?$AAc?$AAt?$AAo?$AAo?$AAl?$AAs?$AA?2?$AAv?$AAc?$AA7?$AAl?$AAi?$AAb?$AAs?$AA?2?$AAs?$AAh?$AAi?$AAp?$AA?2?$AAa?$AAt?$AAl?$AAm?$AAf@ 004bf0e8     atlsd:AtlDebugAPI.obj
 0002:00028158       ??_C@_1EA@JHMKKLFC@?$AAn?$AAI?$AAn?$AAd?$AAe?$AAx?$AA?5?$AA?$DO?$AA?$DN?$AA?5?$AA0?$AA?5?$AA?$CG?$AA?$CG?$AA?5?$AAn?$AAI?$AAn?$AAd?$AAe?$AAx?$AA?5?$AA?$DM?$AA?5?$AAm?$AA_?$AAn?$AAS?$AAi?$AAz?$AAe?$AA?$AA@ 004bf158     atlsd:AtlDebugAPI.obj
 0002:00028198       ??_C@_1GI@CLJCGCPP@?$AAf?$AA?3?$AA?2?$AAd?$AAd?$AA?2?$AAv?$AAc?$AAt?$AAo?$AAo?$AAl?$AAs?$AA?2?$AAv?$AAc?$AA7?$AAl?$AAi?$AAb?$AAs?$AA?2?$AAs?$AAh?$AAi?$AAp?$AA?2?$AAa?$AAt?$AAl?$AAm?$AAf@ 004bf198     atlsd:AtlDebugAPI.obj
 0002:00028200       ??_C@_1BK@NHHHCKNA@?$AAm?$AA_?$AAt?$AAi?$AAm?$AAe?$AA?5?$AA?$CB?$AA?$DN?$AA?5?$AA?9?$AA1?$AA?$AA@ 004bf200     atlsd:atltime.obj
 0002:00028220       ??_C@_1GM@GOMCALCH@?$AAf?$AA?3?$AA?2?$AAd?$AAd?$AA?2?$AAv?$AAc?$AAt?$AAo?$AAo?$AAl?$AAs?$AA?2?$AAv?$AAc?$AA7?$AAl?$AAi?$AAb?$AAs?$AA?2?$AAs?$AAh?$AAi?$AAp?$AA?2?$AAa?$AAt?$AAl?$AAm?$AAf@ 004bf220     atlsd:atltime.obj
 0002:0002828c       ??_C@_1BC@PMINONJG@?$AAb?$AAS?$AAu?$AAc?$AAc?$AAe?$AAs?$AAs?$AA?$AA@ 004bf28c     atlsd:Allocate.obj
 0002:000282a0       ??_C@_1HI@MDMANKNC@?$AAf?$AA?3?$AA?2?$AAd?$AAd?$AA?2?$AAv?$AAc?$AAt?$AAo?$AAo?$AAl?$AAs?$AA?2?$AAv?$AAc?$AA7?$AAl?$AAi?$AAb?$AAs?$AA?2?$AAs?$AAh?$AAi?$AAp?$AA?2?$AAa?$AAt?$AAl?$AAm?$AAf@ 004bf2a0     atlsd:Allocate.obj
 0002:00028318       ??_C@_1DG@LHMNHOH@?$AA?$CB?$AAm?$AA_?$AAh?$AAM?$AAa?$AAp?$AA?5?$AA?$CG?$AA?$CG?$AA?5?$AA?$CB?$AAm?$AA_?$AAp?$AAB?$AAu?$AAf?$AAf?$AAe?$AAr?$AAS?$AAt?$AAa?$AAr?$AAt?$AA?$AA@ 004bf318     atlsd:Allocate.obj
 0002:00028350       ??_C@_1CC@JCNIBNON@?$AAi?$AAM?$AAo?$AAd?$AAu?$AAl?$AAe?$AA?5?$AA?$DM?$AA?5?$AAm?$AAo?$AAd?$AAc?$AAn?$AAt?$AA?$AA@ 004bf350     atlsd:Allocate.obj
 0002:00028378       ??_C@_1HO@KONLCGL@?$AA?$CI?$AAi?$AAC?$AAa?$AAt?$AAe?$AAg?$AAo?$AAr?$AAy?$AA?5?$AA?$DM?$AA?5?$AAm?$AA_?$AAp?$AAP?$AAr?$AAo?$AAc?$AAe?$AAs?$AAs?$AA?9?$AA?$DO?$AAC?$AAa?$AAt?$AAe?$AAg?$AAo?$AAr@ 004bf378     atlsd:Allocate.obj
 0002:000283f8       ??_C@_1BG@EIHNOMMF@?$AAm?$AA_?$AAp?$AAP?$AAr?$AAo?$AAc?$AAe?$AAs?$AAs?$AA?$AA@ 004bf3f8     atlsd:Allocate.obj
 0002:00028410       ??_C@_1IO@GJLKCBCE@?$AAf?$AA?3?$AA?2?$AAd?$AAd?$AA?2?$AAv?$AAc?$AAt?$AAo?$AAo?$AAl?$AAs?$AA?2?$AAv?$AAc?$AA7?$AAl?$AAi?$AAb?$AAs?$AA?2?$AAs?$AAh?$AAi?$AAp?$AA?2?$AAa?$AAt?$AAl?$AAm?$AAf@ 004bf410     atlsd:Allocate.obj
 0002:000284a0       ??_C@_1BK@GFEAMNLJ@?$AAn?$AAC?$AAo?$AAo?$AAk?$AAi?$AAe?$AA?5?$AA?$CB?$AA?$DN?$AA?5?$AA0?$AA?$AA@ 004bf4a0     atlsd:Allocate.obj
 0002:000284bc       ??_C@_1BO@OAGIAJOK@?$AAp?$AAC?$AAa?$AAt?$AAe?$AAg?$AAo?$AAr?$AAy?$AA?5?$AA?$CB?$AA?$DN?$AA?5?$AA0?$AA?$AA@ 004bf4bc     atlsd:Allocate.obj
 0002:000284dc       ??_C@_11LOCGONAA@?$AA?$AA@ 004bf4dc     atlsd:AtlTraceModuleManager.obj
 0002:000284e0       ??_C@_06HGFIIEJH@SGEMM?5?$AA@ 004bf4e0     blas:sgemm.obj
 0002:000284e8       ??_C@_01GFHCPBMG@C?$AA@    004bf4e8     blas:sgemm.obj
 0002:000284ec       ??_C@_06NECBCGNH@DGEMM?5?$AA@ 004bf4ec     blas:dgemm.obj
 0002:000284f4       ??_C@_0DP@OFDGIAEO@?$CK?$CK?5On?5entry?5to?5?$CF6s?0?5parameter?5nu@ 004bf4f4     blas:xerbla.obj
 0002:00028534       ??_C@_01DGKLNCNG@R?$AA@    004bf534     lapack:sgesvd.obj
 0002:00028538       ??_C@_01BIAFAFID@F?$AA@    004bf538     lapack:sgesvd.obj
 0002:0002853c       ??_C@_01BBODEMC@G?$AA@     004bf53c     lapack:sgesvd.obj
 0002:00028540       ??_C@_06BAJAIPIM@SORGLQ?$AA@ 004bf540     lapack:sgesvd.obj
 0002:00028548       ??_C@_06OIHPHFMH@SGELQF?$AA@ 004bf548     lapack:sgesvd.obj
 0002:00028550       ??_C@_01BNIGIBBF@Q?$AA@    004bf550     lapack:sgesvd.obj
 0002:00028554       ??_C@_06CPEDOMGM@SORGQR?$AA@ 004bf554     lapack:sgesvd.obj
 0002:0002855c       ??_C@_06DBCDPBEF@SORGBR?$AA@ 004bf55c     lapack:sgesvd.obj
 0002:00028564       ??_C@_01EJNLAFE@P?$AA@     004bf564     lapack:sgesvd.obj
 0002:00028568       ??_C@_06DINANOCP@SGEBRD?$AA@ 004bf568     lapack:sgesvd.obj
 0002:00028570       ??_C@_06EIEKEENM@SGEQRF?$AA@ 004bf570     lapack:sgesvd.obj
 0002:00028578       ??_C@_01CLKCMJKC@?5?$AA@   004bf578     lapack:sgesvd.obj
 0002:0002857c       ??_C@_06NHHMEGAJ@SGESVD?$AA@ 004bf57c     lapack:sgesvd.obj
 0002:00028584       ??_C@_01MJMHLOMK@O?$AA@    004bf584     lapack:sgesvd.obj
 0002:00028588       ??_C@_0N@NEJJDAPK@No?5transpose?$AA@ 004bf588     lapack:spotf2.obj
 0002:00028598       ??_C@_09OMALPMGL@Transpose?$AA@ 004bf598     lapack:spotf2.obj
 0002:000285a4       ??_C@_06HLILCJDC@SPOTF2?$AA@ 004bf5a4     lapack:spotf2.obj
 0002:000285ac       ??_C@_06LCOJCNMM@DORGLQ?$AA@ 004bf5ac     lapack:dgesvd.obj
 0002:000285b4       ??_C@_06EKAGNHIH@DGELQF?$AA@ 004bf5b4     lapack:dgesvd.obj
 0002:000285bc       ??_C@_06INDKEOCM@DORGQR?$AA@ 004bf5bc     lapack:dgesvd.obj
 0002:000285c4       ??_C@_06JDFKFDAF@DORGBR?$AA@ 004bf5c4     lapack:dgesvd.obj
 0002:000285cc       ??_C@_06JKKJHMGP@DGEBRD?$AA@ 004bf5cc     lapack:dgesvd.obj
 0002:000285d4       ??_C@_06OKDDOGJM@DGEQRF?$AA@ 004bf5d4     lapack:dgesvd.obj
 0002:000285dc       ??_C@_06HFAFOEEJ@DGESVD?$AA@ 004bf5dc     lapack:dgesvd.obj
 0002:000285e4       ??_C@_06NJPCILHC@DPOTF2?$AA@ 004bf5e4     lapack:dpotf2.obj
 0002:000285ec       ??_C@_04KPCPLBPL@Left?$AA@ 004bf5ec     lapack:dtrtrs.obj
 0002:000285f4       ??_C@_06LNNKMLBN@DTRTRS?$AA@ 004bf5f4     lapack:dtrtrs.obj
 0002:000285fc       ??_C@_07NALHMFBO@Forward?$AA@ 004bf5fc     lapack:dorgqr.obj
 0002:00028604       ??_C@_0L@DOKHANPG@Columnwise?$AA@ 004bf604     lapack:dorgqr.obj
 0002:00028610       ??_C@_05IIDIPOEN@Lower?$AA@ 004bf610     lapack:dpotrs.obj
 0002:00028618       ??_C@_05NDIGJFPE@Upper?$AA@ 004bf618     lapack:dpotrs.obj
 0002:00028620       ??_C@_08IAEIADFB@Non?9unit?$AA@ 004bf620     lapack:dpotrs.obj
 0002:0002862c       ??_C@_06LODLNKDI@DPOTRS?$AA@ 004bf62c     lapack:dpotrs.obj
 0002:00028634       ??_C@_05DADPALEM@Right?$AA@ 004bf634     lapack:dpotrf.obj
 0002:0002863c       ??_C@_06IJIODMCM@DPOTRF?$AA@ 004bf63c     lapack:dpotrf.obj
 0002:00028644       ??_C@_04BOICIEDE@Unit?$AA@ 004bf644     lapack:dgetrs.obj
 0002:0002864c       ??_C@_06OKFIPALK@DGETRS?$AA@ 004bf64c     lapack:dgetrs.obj
 0002:00028654       ??_C@_06NNONBGKO@DGETRF?$AA@ 004bf654     lapack:dgetrf.obj
 0002:0002865c       ??_C@_06NHAPMKLE@DSYTRS?$AA@ 004bf65c     lapack:dsytrs.obj
 0002:00028664       ??_C@_06OALKCMKA@DSYTRF?$AA@ 004bf664     lapack:dsytrf.obj
 0002:0002866c       ??_C@_06BPKDGJFN@STRTRS?$AA@ 004bf66c     lapack:strtrs.obj
 0002:00028674       ??_C@_06BMECHIHI@SPOTRS?$AA@ 004bf674     lapack:spotrs.obj
 0002:0002867c       ??_C@_06CLPHJOGM@SPOTRF?$AA@ 004bf67c     lapack:spotrf.obj
 0002:00028684       ??_C@_06EICBFCPK@SGETRS?$AA@ 004bf684     lapack:sgetrs.obj
 0002:0002868c       ??_C@_06HPJELEOO@SGETRF?$AA@ 004bf68c     lapack:sgetrf.obj
 0002:00028694       ??_C@_06HFHGGIPE@SSYTRS?$AA@ 004bf694     lapack:ssytrs.obj
 0002:0002869c       ??_C@_06ECMDIOOA@SSYTRF?$AA@ 004bf69c     lapack:ssytrf.obj
 0002:000286a4       ??_C@_07KFOGBIOF@Rowwise?$AA@ 004bf6a4     lapack:sorglq.obj
 0002:000286ac       ??_C@_06FOJOBBCB@SORMBR?$AA@ 004bf6ac     lapack:sormbr.obj
 0002:000286b4       ??_C@_06HPCNGPOI@SORMLQ?$AA@ 004bf6b4     lapack:sormbr.obj
 0002:000286bc       ??_C@_06EAPOAMAI@SORMQR?$AA@ 004bf6bc     lapack:sormbr.obj
 0002:000286c8       __real@3f847ae140000000    004bf6c8     lapack:sbdsqr.obj
 0002:000286d0       __real@41200000            004bf6d0     lapack:sbdsqr.obj
 0002:000286d4       __real@42c80000            004bf6d4     lapack:sbdsqr.obj
 0002:000286d8       ??_C@_01FCMHBHNC@V?$AA@    004bf6d8     lapack:sbdsqr.obj
 0002:000286dc       ??_C@_0N@ECFLIEIM@Safe?5minimum?$AA@ 004bf6dc     lapack:sbdsqr.obj
 0002:000286ec       ??_C@_07MHFJNEOI@Epsilon?$AA@ 004bf6ec     lapack:sbdsqr.obj
 0002:000286f4       ??_C@_06KDAGFNFI@SBDSQR?$AA@ 004bf6f4     lapack:sbdsqr.obj
 0002:000286fc       ??_C@_06JKAPPLJJ@SLASCL?$AA@ 004bf6fc     lapack:slascl.obj
 0002:00028704       ??_C@_01POHCFINO@Z?$AA@    004bf704     lapack:slascl.obj
 0002:00028708       ??_C@_01IGIGCIAN@H?$AA@    004bf708     lapack:slascl.obj
 0002:0002870c       ??_C@_01DDCIFGEA@E?$AA@    004bf70c     lapack:slange.obj
 0002:00028710       ??_C@_01JPJNBJEM@I?$AA@    004bf710     lapack:slange.obj
 0002:00028718       __real@4040000000000000    004bf718     lapack:slamch.obj
 0002:00028720       __real@3e70000000000000    004bf720     lapack:slamch.obj
 0002:00028728       __real@33800000            004bf728     lapack:slamch.obj
 0002:00028730       __real@3ff99999a0000000    004bf730     lapack:ilaenv.obj
 0002:00028738       ??_C@_03EBDLGEJM@EBZ?$AA@  004bf738     lapack:ilaenv.obj
 0002:0002873c       ??_C@_02LAJDCOFE@ST?$AA@   004bf73c     lapack:ilaenv.obj
 0002:00028740       ??_C@_03NMIACGA@UUM?$AA@   004bf740     lapack:ilaenv.obj
 0002:00028744       ??_C@_02JAFMCMAN@LA?$AA@   004bf744     lapack:ilaenv.obj
 0002:00028748       ??_C@_02KOENCFNK@PB?$AA@   004bf748     lapack:ilaenv.obj
 0002:0002874c       ??_C@_02LHCEJACP@GB?$AA@   004bf74c     lapack:ilaenv.obj
 0002:00028750       ??_C@_03GIFFEINO@GST?$AA@  004bf750     lapack:ilaenv.obj
 0002:00028754       ??_C@_02BLODFLJH@PO?$AA@   004bf754     lapack:ilaenv.obj
 0002:00028758       ??_C@_03FDMPKKEL@TRF?$AA@  004bf758     lapack:ilaenv.obj
 0002:0002875c       ??_C@_03NEFHLGIE@TRI?$AA@  004bf75c     lapack:ilaenv.obj
 0002:00028760       ??_C@_02EDDKIDN@UN?$AA@    004bf760     lapack:ilaenv.obj
 0002:00028764       ??_C@_02PLCNEAJF@BR?$AA@   004bf764     lapack:ilaenv.obj
 0002:00028768       ??_C@_02ODIGJPFH@TR?$AA@   004bf768     lapack:ilaenv.obj
 0002:0002876c       ??_C@_02PGLKMFED@HR?$AA@   004bf76c     lapack:ilaenv.obj
 0002:00028770       ??_C@_02DBAMGCGD@QL?$AA@   004bf770     lapack:ilaenv.obj
 0002:00028774       ??_C@_02NKJODOFM@LQ?$AA@   004bf774     lapack:ilaenv.obj
 0002:00028778       ??_C@_02MMCGLACG@RQ?$AA@   004bf778     lapack:ilaenv.obj
 0002:0002877c       ??_C@_02OFENFNLM@QR?$AA@   004bf77c     lapack:ilaenv.obj
 0002:00028780       ??_C@_02PDPFNDMG@OR?$AA@   004bf780     lapack:ilaenv.obj
 0002:00028784       ??_C@_02PDDJEBNF@HE?$AA@   004bf784     lapack:ilaenv.obj
 0002:00028788       ??_C@_03GBPJMIMJ@TRD?$AA@  004bf788     lapack:ilaenv.obj
 0002:0002878c       ??_C@_02FDNFABJ@SY?$AA@    004bf78c     lapack:ilaenv.obj
 0002:00028790       ??_C@_03BEILMAIK@BRD?$AA@  004bf790     lapack:ilaenv.obj
 0002:00028794       ??_C@_03HLDGCAOO@HRD?$AA@  004bf794     lapack:ilaenv.obj
 0002:00028798       ??_C@_03HCKJNEAD@QLF?$AA@  004bf798     lapack:ilaenv.obj
 0002:0002879c       ??_C@_03MECEGLGC@LQF?$AA@  004bf79c     lapack:ilaenv.obj
 0002:000287a0       ??_C@_03HEOCELMO@RQF?$AA@  004bf7a0     lapack:ilaenv.obj
 0002:000287a4       ??_C@_03GEBBFKHJ@QRF?$AA@  004bf7a4     lapack:ilaenv.obj
 0002:000287a8       ??_C@_02PIGFAGOI@GE?$AA@   004bf7a8     lapack:ilaenv.obj
 0002:000287ac       ??_C@_06PMOHLDGB@DORMBR?$AA@ 004bf7ac     lapack:dormbr.obj
 0002:000287b4       ??_C@_06NNFEMNKI@DORMLQ?$AA@ 004bf7b4     lapack:dormbr.obj
 0002:000287bc       ??_C@_06OCIHKOEI@DORMQR?$AA@ 004bf7bc     lapack:dormbr.obj
 0002:000287c4       ??_C@_06BHPPPBI@DBDSQR?$AA@ 004bf7c4     lapack:dbdsqr.obj
 0002:000287cc       ??_C@_06DIHGFJNJ@DLASCL?$AA@ 004bf7cc     lapack:dlascl.obj
 0002:000287d8       __real@c059000000000000    004bf7d8     lapack:dlamch.obj
 0002:000287e0       __real@3ca0000000000000    004bf7e0     lapack:dlamch.obj
 0002:000287e8       ??_C@_06MHKLDLFF@DORG2R?$AA@ 004bf7e8     lapack:dorg2r.obj
 0002:000287f0       ??_C@_06KBGAFKGO@DGEQR2?$AA@ 004bf7f0     lapack:dgeqr2.obj
 0002:000287f8       ??_C@_06INJBKBPA@DGETF2?$AA@ 004bf7f8     lapack:dgetf2.obj
 0002:00028800       __real@3fc0000000000000    004bf800     lapack:dsytf2.obj
 0002:00028808       __real@4031000000000000    004bf808     lapack:dsytf2.obj
 0002:00028810       ??_C@_06LAMGJLPO@DSYTF2?$AA@ 004bf810     lapack:dsytf2.obj
 0002:00028818       ??_C@_06GFNCJJBF@SORG2R?$AA@ 004bf818     lapack:sorg2r.obj
 0002:00028820       ??_C@_06DBJPICO@SGEQR2?$AA@ 004bf820     lapack:sgeqr2.obj
 0002:00028828       ??_C@_06CPOIADLA@SGETF2?$AA@ 004bf828     lapack:sgetf2.obj
 0002:00028830       ??_C@_06BCLPDJLO@SSYTF2?$AA@ 004bf830     lapack:ssytf2.obj
 0002:00028838       ??_C@_06FOEALHOI@SORGL2?$AA@ 004bf838     lapack:sorgl2.obj
 0002:00028840       ??_C@_06KDCMMJDF@SGELQ2?$AA@ 004bf840     lapack:sgelq2.obj
 0002:00028848       __real@4010000000000000    004bf848     lapack:slasv2.obj
 0002:00028850       ??_C@_03IPFLKIML@EPS?$AA@  004bf850     lapack:slasv2.obj
 0002:00028854       ??_C@_06EOKDBGHF@SLASR?5?$AA@ 004bf854     lapack:slasr.obj
 0002:0002885c       ??_C@_09DGDDLEAF@Precision?$AA@ 004bf85c     lapack:slasq1.obj
 0002:00028868       ??_C@_06BPDMILDM@SLASQ1?$AA@ 004bf868     lapack:slasq1.obj
 0002:00028870       ??_C@_06FJBONPJN@SGEBD2?$AA@ 004bf870     lapack:sgebd2.obj
 0002:00028878       ??_C@_06PMDJBFKI@DORGL2?$AA@ 004bf878     lapack:dorgl2.obj
 0002:00028880       ??_C@_06BFFGLHF@DGELQ2?$AA@ 004bf880     lapack:dgelq2.obj
 0002:00028888       ??_C@_06OMNKLEDF@DLASR?5?$AA@ 004bf888     lapack:dlasr.obj
 0002:00028890       ??_C@_06LNEFCJHM@DLASQ1?$AA@ 004bf890     lapack:dlasq1.obj
 0002:00028898       ??_C@_06PLGHHNNN@DGEBD2?$AA@ 004bf898     lapack:dgebd2.obj
 0002:000288a0       __real@40000000            004bf8a0     lapack:slarfp.obj
 0002:000288a4       ??_C@_06DBPNFHIM@SORML2?$AA@ 004bf8a4     lapack:sorml2.obj
 0002:000288ac       ??_C@_06KGPHJHB@SORM2R?$AA@ 004bf8ac     lapack:sorm2r.obj
 0002:000288b4       __real@80000000            004bf8b4     lapack:slasq2.obj
 0002:000288b8       __real@3ff8000000000000    004bf8b8     lapack:slasq2.obj
 0002:000288c0       ??_C@_06DEBBNIPP@SLASQ2?$AA@ 004bf8c0     lapack:slasq2.obj
 0002:000288c8       ??_C@_06FPAKKIH@SLASRT?$AA@ 004bf8c8     lapack:slasrt.obj
 0002:000288d0       ??_C@_06JDIEPFMM@DORML2?$AA@ 004bf8d0     lapack:dorml2.obj
 0002:000288d8       ??_C@_06KIBGNLDB@DORM2R?$AA@ 004bf8d8     lapack:dorm2r.obj
 0002:000288e0       __real@8000000000000000    004bf8e0     lapack:dlasq2.obj
 0002:000288e8       ??_C@_06JGGIHKLP@DLASQ2?$AA@ 004bf8e8     lapack:dlasq2.obj
 0002:000288f0       ??_C@_06KHIJAIMH@DLASRT?$AA@ 004bf8f0     lapack:dlasrt.obj
 0002:000288f8       __real@3ff028f5c0000000    004bf8f8     lapack:slasq4.obj
 0002:00028900       __real@3f1020c5            004bf900     lapack:slasq4.obj
 0002:00028908       __real@3ff0ccccc0000000    004bf908     lapack:slasq4.obj
 0002:00028910       __real@3e800000            004bf910     lapack:slasq4.obj
 0002:00028914       __real@3daa7efa            004bf914     lapack:slasq4.obj
 0002:00028918       __real@3fd54fdf40000000    004bf918     lapack:slasq4.obj
 0002:00028920       __real@3fe20418a0000000    004bf920     lapack:slasq4.obj
 0002:00028928       __real@3ff028f5c28f5c29    004bf928     lapack:dlasq4.obj
 0002:00028930       __real@3fb54fdf3b645a1d    004bf930     lapack:dlasq4.obj
 0002:00028938       __real@3fd54fdf3b645a1d    004bf938     lapack:dlasq4.obj
 0002:00028940       __real@3ff0cccccccccccd    004bf940     lapack:dlasq4.obj
 0002:00028948       __real@3fe204189374bc6a    004bf948     lapack:dlasq4.obj
 0002:00028950       ??_C@_05FCBNDMCB@s_cat?$AA@ 004bf950     libf2c:s_cat.obj
 0002:00028958       ??_C@_07KBKBJNIB@startio?$AA@ 004bf958     libf2c:sfe.obj
 0002:00028960       ??_C@_03PDOBAHOB@sfe?$AA@  004bf960     libf2c:sfe.obj
 0002:00028964       ??_C@_0L@LKOGCJFH@bad?5string?$AA@ 004bf964     libf2c:fmt.obj
 0002:00028970       ??_C@_0BJ@HKNOEPLO@format?5too?5complicated?3?6?$AA@ 004bf970     libf2c:fmt.obj
 0002:0002898c       ??_C@_06OFKFICPK@do_fio?$AA@ 004bf98c     libf2c:fmt.obj
 0002:00028994       ??_C@_0BP@DLJCNNMN@unknown?5code?5in?5do_fio?3?5?$CFd?6?$CFs?6?$AA@ 004bf994     libf2c:fmt.obj
 0002:000289b4       ??_C@_03MLKKGMLN@fmt?$AA@  004bf9b4     libf2c:fmt.obj
 0002:000289b8       ??_C@_0M@LLOFDJDD@write?5start?$AA@ 004bf9b8     libf2c:wsfe.obj
 0002:000289c4       ??_C@_0BK@LENELDJB@malloc?$CI?$CFu?$CJ?5failure?5in?5?$CFs?6?$AA@ 004bf9c4     libf2c:f77_aloc.obj
 0002:000289e0       ??_C@_0BA@MIHHOIHP@nmLbuf?5overflow?$AA@ 004bf9e0     libf2c:err.obj
 0002:000289f0       ??_C@_0BL@PMBCONLF@non?9positive?5record?5number?$AA@ 004bf9f0     libf2c:err.obj
 0002:00028a0c       ??_C@_0BF@LHBGFHAN@can?8t?5append?5to?5file?$AA@ 004bfa0c     libf2c:err.obj
 0002:00028a24       ??_C@_0BC@JPMNAOLL@?8new?8?5file?5exists?$AA@ 004bfa24     libf2c:err.obj
 0002:00028a38       ??_C@_0BB@MOJIBHEM@can?8t?5write?5file?$AA@ 004bfa38     libf2c:err.obj
 0002:00028a4c       ??_C@_0BA@FJNEHKOF@can?8t?5read?5file?$AA@ 004bfa4c     libf2c:err.obj
 0002:00028a5c       ??_C@_0BI@BLHFDIEO@subscript?5out?5of?5bounds?$AA@ 004bfa5c     libf2c:err.obj
 0002:00028a74       ??_C@_0BI@IDGNNOHP@substring?5out?5of?5bounds?$AA@ 004bfa74     libf2c:err.obj
 0002:00028a8c       ??_C@_0BG@ONJFPJFJ@invalid?5array?5section?$AA@ 004bfa8c     libf2c:err.obj
 0002:00028aa4       ??_C@_0BO@OADDECON@subscript?5for?5scalar?5variable?$AA@ 004bfaa4     libf2c:err.obj
 0002:00028ac4       ??_C@_0BJ@KAHCHPBK@variable?5count?5incorrect?$AA@ 004bfac4     libf2c:err.obj
 0002:00028ae0       ??_C@_0O@IGBJJDPL@no?5end?5record?$AA@ 004bfae0     libf2c:err.obj
 0002:00028af0       ??_C@_0BJ@EFDDKCOD@variable?5not?5in?5namelist?$AA@ 004bfaf0     libf2c:err.obj
 0002:00028b0c       ??_C@_0BC@BDACFEPL@bad?5namelist?5name?$AA@ 004bfb0c     libf2c:err.obj
 0002:00028b20       ??_C@_0BC@IKOFPHAL@bad?5variable?5type?$AA@ 004bfb20     libf2c:err.obj
 0002:00028b34       ??_C@_0BI@GMMOALCN@bad?5logical?5input?5field?$AA@ 004bfb34     libf2c:err.obj
 0002:00028b4c       ??_C@_0BK@BGEIJAOF@read?5unexpected?5character?$AA@ 004bfb4c     libf2c:err.obj
 0002:00028b68       ??_C@_0BC@FIMMOFPK@out?5of?5free?5space?$AA@ 004bfb68     libf2c:err.obj
 0002:00028b7c       ??_C@_0BM@HIINPENA@incomprehensible?5list?5input?$AA@ 004bfb7c     libf2c:err.obj
 0002:00028b98       ??_C@_0BN@IFCHIACI@truncation?5failed?5in?5endfile?$AA@ 004bfb98     libf2c:err.obj
 0002:00028bb8       ??_C@_0BC@NACJOLEA@off?5end?5of?5record?$AA@ 004bfbb8     libf2c:err.obj
 0002:00028bcc       ??_C@_0BD@EJBIEFGI@unit?5not?5connected?$AA@ 004bfbcc     libf2c:err.obj
 0002:00028be0       ??_C@_0BA@GKHDNLCH@can?8t?5stat?5file?$AA@ 004bfbe0     libf2c:err.obj
 0002:00028bf0       ??_C@_0P@FOGCLPMO@null?5file?5name?$AA@ 004bfbf0     libf2c:err.obj
 0002:00028c00       ??_C@_0BF@ONOKCBAC@can?8t?5backspace?5file?$AA@ 004bfc00     libf2c:err.obj
 0002:00028c18       ??_C@_0BK@HGBOIIHM@sequential?5io?5not?5allowed?$AA@ 004bfc18     libf2c:err.obj
 0002:00028c34       ??_C@_0BG@GCGCPNFA@direct?5io?5not?5allowed?$AA@ 004bfc34     libf2c:err.obj
 0002:00028c4c       ??_C@_0BL@NMABKBDD@unformatted?5io?5not?5allowed?$AA@ 004bfc4c     libf2c:err.obj
 0002:00028c68       ??_C@_0BJ@EBLPPMHO@formatted?5io?5not?5allowed?$AA@ 004bfc68     libf2c:err.obj
 0002:00028c84       ??_C@_0BE@BOPLOGPO@illegal?5unit?5number?$AA@ 004bfc84     libf2c:err.obj
 0002:00028c98       ??_C@_0BA@ILBADFCH@error?5in?5format?$AA@ 004bfc98     libf2c:err.obj
 0002:00028ca8       ??_C@_03HGCDGKFI@?5IO?$AA@ 004bfca8     libf2c:err.obj
 0002:00028cac       ??_C@_0BD@PMLNGMPD@lately?5?$CFs?5?$CFs?5?$CFs?5?$CFs?$AA@ 004bfcac     libf2c:err.obj
 0002:00028cc0       ??_C@_07EKMNMCED@writing?$AA@ 004bfcc0     libf2c:err.obj
 0002:00028cc8       ??_C@_07CMOHHLII@reading?$AA@ 004bfcc8     libf2c:err.obj
 0002:00028cd0       ??_C@_06LMLJGLPA@direct?$AA@ 004bfcd0     libf2c:err.obj
 0002:00028cd8       ??_C@_0L@OGEPILOF@sequential?$AA@ 004bfcd8     libf2c:err.obj
 0002:00028ce4       ??_C@_0M@FHMPJJD@unformatted?$AA@ 004bfce4     libf2c:err.obj
 0002:00028cf0       ??_C@_09CDGIBMFA@formatted?$AA@ 004bfcf0     libf2c:err.obj
 0002:00028cfc       ??_C@_08LEPPLCNF@internal?$AA@ 004bfcfc     libf2c:err.obj
 0002:00028d08       ??_C@_08OIBPHJGN@external?$AA@ 004bfd08     libf2c:err.obj
 0002:00028d14       ??_C@_0BB@BAHJEMGI@last?5format?3?5?$CFs?6?$AA@ 004bfd14     libf2c:err.obj
 0002:00028d28       ??_C@_0BO@NCJPLEGG@apparent?5state?3?5internal?5I?1O?6?$AA@ 004bfd28     libf2c:err.obj
 0002:00028d48       ??_C@_0L@FIMJNALL@?$CIunnamed?$CJ?6?$AA@ 004bfd48     libf2c:err.obj
 0002:00028d54       ??_C@_09GDDDODEC@named?5?$CFs?6?$AA@ 004bfd54     libf2c:err.obj
 0002:00028d60       ??_C@_0BJ@MOKPKBLA@apparent?5state?3?5unit?5?$CFd?5?$AA@ 004bfd60     libf2c:err.obj
 0002:00028d7c       ??_C@_0BN@GHNALNBA@?$CFs?3?5illegal?5error?5number?5?$CFd?6?$AA@ 004bfd7c     libf2c:err.obj
 0002:00028d9c       ??_C@_07KJFPOMFC@?$CFs?3?5?$CFs?6?$AA@ 004bfd9c     libf2c:err.obj
 0002:00028da4       ??_C@_0BB@NEPPMNKF@?$CFs?3?5end?5of?5file?6?$AA@ 004bfda4     libf2c:err.obj
 0002:00028db8       ??_C@_02CBLLGHLK@r?$CL?$AA@ 004bfdb8     libf2c:open.obj
 0002:00028dbc       ??_C@_03HMFOOINA@r?$CLb?$AA@ 004bfdbc     libf2c:open.obj
 0002:00028dc0       ??_C@_01NOFIACDB@w?$AA@    004bfdc0     libf2c:open.obj
 0002:00028dc4       ??_C@_02GMLFBBN@wb?$AA@    004bfdc4     libf2c:open.obj
 0002:00028dc8       ??_C@_01KDCPPGHE@r?$AA@    004bfdc8     libf2c:open.obj
 0002:00028dcc       ??_C@_02JDPG@rb?$AA@       004bfdcc     libf2c:open.obj
 0002:00028dd0       ??_C@_0P@BOLAOBGL@malloc?5failure?$AA@ 004bfdd0     libf2c:open.obj
 0002:00028de0       ??_C@_08OOMENPLB@no?5space?$AA@ 004bfde0     libf2c:open.obj
 0002:00028dec       ??_C@_08HNEBHNDD@fort?4?$CFld?$AA@ 004bfdec     libf2c:open.obj
 0002:00028df8       ??_C@_04PMOCAHAA@open?$AA@ 004bfdf8     libf2c:open.obj
 0002:00028e00       ??_C@_01OMGOGALD@u?$AA@    004bfe00     libf2c:open.obj
 0002:00028e04       ??_C@_01INIBCBCB@f?$AA@    004bfe04     libf2c:open.obj
 0002:00028e08       ??_C@_01LPLHEDKD@d?$AA@    004bfe08     libf2c:open.obj
 0002:00028e0c       ??_C@_01LKDEMHDF@s?$AA@    004bfe0c     libf2c:open.obj
 0002:00028e10       ??_C@_03OFAPEBGM@?$CFs?6?$AA@ 004bfe10     libf2c:sig_die.obj
 0002:00028e14       ??_C@_06NAOPDNEP@recend?$AA@ 004bfe14     libf2c:wrtfmt.obj
 0002:00028e1c       ??_C@_08JOAGLCNE@left?5off?$AA@ 004bfe1c     libf2c:wrtfmt.obj
 0002:00028e28       ??_C@_0BL@KJGHIKGM@w_ed?0?5unexpected?5code?3?5?$CFd?6?$AA@ 004bfe28     libf2c:wrtfmt.obj
 0002:00028e44       ??_C@_0BM@MLAKKECL@w_ned?0?5unexpected?5code?3?5?$CFd?6?$AA@ 004bfe44     libf2c:wrtfmt.obj
 0002:00028e60       ??_C@_05MJNOJDJM@?$CF?$CL?42d?$AA@ 004bfe60     libf2c:wref.obj
 0002:00028e68       ??_C@_05GHAEDPHG@?$CF?$CD?4?$CKE?$AA@ 004bfe68     libf2c:wref.obj
 0002:00028e70       ??_C@_05NJKNEIBH@?$CF?$CD?4?$CKf?$AA@ 004bfe70     libf2c:wref.obj
 0002:00028e78       ??_C@_07EDCBGDHP@endfile?$AA@ 004bfe78     libf2c:endfile.obj
 0002:00028ea0       ??_C@_0DH@EMOHNEGB@f?3?2dd?2vctools?2vc7libs?2ship?2atlmf@ 004bfea0     mfcs100d:appmodul.obj
 0002:00028ed8       ??_C@_06GGCLMIAG@SGEMV?5?$AA@ 004bfed8     blas:sgemv.obj
 0002:00028ee0       ??_C@_06MEFCGKEG@DGEMV?5?$AA@ 004bfee0     blas:dgemv.obj
 0002:00028ee8       ??_C@_06DDGFDNNM@DTRSM?5?$AA@ 004bfee8     blas:dtrsm.obj
 0002:00028ef0       ??_C@_06OFIBCHKC@DSYRK?5?$AA@ 004bfef0     blas:dsyrk.obj
 0002:00028ef8       ??_C@_06JMFEDJGN@DGER?5?5?$AA@ 004bfef8     blas:dger.obj
 0002:00028f00       ??_C@_06JBBMJPJM@STRSM?5?$AA@ 004bff00     blas:strsm.obj
 0002:00028f08       ??_C@_06EHPIIFOC@SSYRK?5?$AA@ 004bff08     blas:ssyrk.obj
 0002:00028f10       ??_C@_06DOCNJLCN@SGER?5?5?$AA@ 004bff10     blas:sger.obj
 0002:00028f18       ??_C@_06IDKDBNHA@DTRMM?5?$AA@ 004bff18     blas:dtrmm.obj
 0002:00028f20       ??_C@_06JDNAFBOB@DTRMV?5?$AA@ 004bff20     blas:dtrmv.obj
 0002:00028f28       ??_C@_06KBADADGD@DSYR?5?5?$AA@ 004bff28     blas:dsyr.obj
 0002:00028f30       ??_C@_06CBNKLPDA@STRMM?5?$AA@ 004bff30     blas:strmm.obj
 0002:00028f38       ??_C@_06DBKJPDKB@STRMV?5?$AA@ 004bff38     blas:strmv.obj
 0002:00028f40       ??_C@_06DHKKBCD@SSYR?5?5?$AA@ 004bff40     blas:ssyr.obj
 0002:00028f48       __load_config_used         004bff48     msvcrtd:loadcfg.obj
 0002:00029ce0       ??_R4CMgmotorctrl1@@6B@    004c0ce0     APTMotor.obj
 0002:00029cf8       ??_R3CMgmotorctrl1@@8      004c0cf8     APTMotor.obj
 0002:00029d0c       ??_R2CMgmotorctrl1@@8      004c0d0c     APTMotor.obj
 0002:00029d20       ??_R1A@?0A@EA@CMgmotorctrl1@@8 004c0d20     APTMotor.obj
 0002:00029d44       ??_R1A@?0A@EA@CWnd@@8      004c0d44     APTMotor.obj
 0002:00029d68       ??_R3CWnd@@8               004c0d68     APTMotor.obj
 0002:00029d7c       ??_R2CWnd@@8               004c0d7c     APTMotor.obj
 0002:00029d8c       ??_R1A@?0A@EA@CCmdTarget@@8 004c0d8c     APTMotor.obj
 0002:00029db0       ??_R3CCmdTarget@@8         004c0db0     APTMotor.obj
 0002:00029dc4       ??_R2CCmdTarget@@8         004c0dc4     APTMotor.obj
 0002:00029dd0       ??_R1A@?0A@EA@CObject@@8   004c0dd0     APTMotor.obj
 0002:00029df4       ??_R3CObject@@8            004c0df4     APTMotor.obj
 0002:00029e08       ??_R2CObject@@8            004c0e08     APTMotor.obj
 0002:00029e10       ??_R4Thank_you@Define_the_symbol__ATL_MIXED@@6B@ 004c0e10     APTMotor.obj
 0002:00029e28       ??_R3Thank_you@Define_the_symbol__ATL_MIXED@@8 004c0e28     APTMotor.obj
 0002:00029e3c       ??_R2Thank_you@Define_the_symbol__ATL_MIXED@@8 004c0e3c     APTMotor.obj
 0002:00029e44       ??_R1A@?0A@EA@Thank_you@Define_the_symbol__ATL_MIXED@@8 004c0e44     APTMotor.obj
 0002:00029e68       ??_R4APT_system@@6B@       004c0e68     APTSystem.obj
 0002:00029e80       ??_R3APT_system@@8         004c0e80     APTSystem.obj
 0002:00029e94       ??_R2APT_system@@8         004c0e94     APTSystem.obj
 0002:00029ea8       ??_R1A@?0A@EA@APT_system@@8 004c0ea8     APTSystem.obj
 0002:00029ecc       ??_R4DisplayDialog@@6B@    004c0ecc     DisplayDialog.obj
 0002:00029ee4       ??_R3DisplayDialog@@8      004c0ee4     DisplayDialog.obj
 0002:00029ef8       ??_R2DisplayDialog@@8      004c0ef8     DisplayDialog.obj
 0002:00029f14       ??_R1A@?0A@EA@DisplayDialog@@8 004c0f14     DisplayDialog.obj
 0002:00029f38       ??_R1A@?0A@EA@CDialog@@8   004c0f38     DisplayDialog.obj
 0002:00029f5c       ??_R3CDialog@@8            004c0f5c     DisplayDialog.obj
 0002:00029f70       ??_R2CDialog@@8            004c0f70     DisplayDialog.obj
 0002:00029f84       ??_R4CMainFrame@@6B@       004c0f84     MainFrm.obj
 0002:00029f9c       ??_R3CMainFrame@@8         004c0f9c     MainFrm.obj
 0002:00029fb0       ??_R2CMainFrame@@8         004c0fb0     MainFrm.obj
 0002:00029fcc       ??_R1A@?0A@EA@CMainFrame@@8 004c0fcc     MainFrm.obj
 0002:00029ff0       ??_R1A@?0A@EA@CFrameWnd@@8 004c0ff0     MainFrm.obj
 0002:0002a014       ??_R3CFrameWnd@@8          004c1014     MainFrm.obj
 0002:0002a028       ??_R2CFrameWnd@@8          004c1028     MainFrm.obj
 0002:0002a03c       ??_R4COctopusApp@@6B@      004c103c     Octopus.obj
 0002:0002a054       ??_R3COctopusApp@@8        004c1054     Octopus.obj
 0002:0002a068       ??_R2COctopusApp@@8        004c1068     Octopus.obj
 0002:0002a084       ??_R1A@?0A@EA@COctopusApp@@8 004c1084     Octopus.obj
 0002:0002a0a8       ??_R1A@?0A@EA@CWinApp@@8   004c10a8     Octopus.obj
 0002:0002a0cc       ??_R3CWinApp@@8            004c10cc     Octopus.obj
 0002:0002a0e0       ??_R2CWinApp@@8            004c10e0     Octopus.obj
 0002:0002a0f4       ??_R1A@?0A@EA@CWinThread@@8 004c10f4     Octopus.obj
 0002:0002a118       ??_R3CWinThread@@8         004c1118     Octopus.obj
 0002:0002a12c       ??_R2CWinThread@@8         004c112c     Octopus.obj
 0002:0002a13c       ??_R4Octopus_LED@@6B@      004c113c     Octopus_LED.obj
 0002:0002a154       ??_R3Octopus_LED@@8        004c1154     Octopus_LED.obj
 0002:0002a168       ??_R2Octopus_LED@@8        004c1168     Octopus_LED.obj
 0002:0002a184       ??_R1A@?0A@EA@Octopus_LED@@8 004c1184     Octopus_LED.obj
 0002:0002a1a8       ??_R4COctopusPictureDisplay@@6B@ 004c11a8     OctopusCameraDisplay.obj
 0002:0002a1c0       ??_R3COctopusPictureDisplay@@8 004c11c0     OctopusCameraDisplay.obj
 0002:0002a1d4       ??_R2COctopusPictureDisplay@@8 004c11d4     OctopusCameraDisplay.obj
 0002:0002a1f0       ??_R1A@?0A@EA@COctopusPictureDisplay@@8 004c11f0     OctopusCameraDisplay.obj
 0002:0002a214       ??_R4COctopusCamera@@6B@   004c1214     OctopusCameraDlg.obj
 0002:0002a22c       ??_R3COctopusCamera@@8     004c122c     OctopusCameraDlg.obj
 0002:0002a240       ??_R2COctopusCamera@@8     004c1240     OctopusCameraDlg.obj
 0002:0002a25c       ??_R1A@?0A@EA@COctopusCamera@@8 004c125c     OctopusCameraDlg.obj
 0002:0002a280       ??_R4COctopusGoodClock@@6B@ 004c1280     OctopusClock.obj
 0002:0002a298       ??_R3COctopusGoodClock@@8  004c1298     OctopusClock.obj
 0002:0002a2ac       ??_R2COctopusGoodClock@@8  004c12ac     OctopusClock.obj
 0002:0002a2b4       ??_R1A@?0A@EA@COctopusGoodClock@@8 004c12b4     OctopusClock.obj
 0002:0002a2d8       ??_R4COctopusDoc@@6B@      004c12d8     OctopusDoc.obj
 0002:0002a2f0       ??_R3COctopusDoc@@8        004c12f0     OctopusDoc.obj
 0002:0002a304       ??_R2COctopusDoc@@8        004c1304     OctopusDoc.obj
 0002:0002a318       ??_R1A@?0A@EA@COctopusDoc@@8 004c1318     OctopusDoc.obj
 0002:0002a33c       ??_R1A@?0A@EA@CDocument@@8 004c133c     OctopusDoc.obj
 0002:0002a360       ??_R3CDocument@@8          004c1360     OctopusDoc.obj
 0002:0002a374       ??_R2CDocument@@8          004c1374     OctopusDoc.obj
 0002:0002a384       ??_R4CDocumentAdapter@CDocument@@6B@ 004c1384     OctopusDoc.obj
 0002:0002a39c       ??_R3CDocumentAdapter@CDocument@@8 004c139c     OctopusDoc.obj
 0002:0002a3b0       ??_R2CDocumentAdapter@CDocument@@8 004c13b0     OctopusDoc.obj
 0002:0002a3bc       ??_R1A@?0A@EA@CDocumentAdapter@CDocument@@8 004c13bc     OctopusDoc.obj
 0002:0002a3e0       ??_R1A@?0A@EA@IDocument@ATL@@8 004c13e0     OctopusDoc.obj
 0002:0002a404       ??_R3IDocument@ATL@@8      004c1404     OctopusDoc.obj
 0002:0002a418       ??_R2IDocument@ATL@@8      004c1418     OctopusDoc.obj
 0002:0002a420       ??_R4IDocument@ATL@@6B@    004c1420     OctopusDoc.obj
 0002:0002a438       ??_R4COctopusFocus@@6B@    004c1438     OctopusFocus.obj
 0002:0002a450       ??_R3COctopusFocus@@8      004c1450     OctopusFocus.obj
 0002:0002a464       ??_R2COctopusFocus@@8      004c1464     OctopusFocus.obj
 0002:0002a480       ??_R1A@?0A@EA@COctopusFocus@@8 004c1480     OctopusFocus.obj
 0002:0002a4a4       ??_R4OctopusLaser@@6B@     004c14a4     OctopusLaser.obj
 0002:0002a4bc       ??_R3OctopusLaser@@8       004c14bc     OctopusLaser.obj
 0002:0002a4d0       ??_R2OctopusLaser@@8       004c14d0     OctopusLaser.obj
 0002:0002a4ec       ??_R1A@?0A@EA@OctopusLaser@@8 004c14ec     OctopusLaser.obj
 0002:0002a510       ??_R4COctopusLasers@@6B@   004c1510     OctopusLasers.obj
 0002:0002a528       ??_R3COctopusLasers@@8     004c1528     OctopusLasers.obj
 0002:0002a53c       ??_R2COctopusLasers@@8     004c153c     OctopusLasers.obj
 0002:0002a558       ??_R1A@?0A@EA@COctopusLasers@@8 004c1558     OctopusLasers.obj
 0002:0002a57c       ??_R4COctopusObjectivePiezo@@6B@ 004c157c     OctopusObjectivePiezo.obj
 0002:0002a594       ??_R3COctopusObjectivePiezo@@8 004c1594     OctopusObjectivePiezo.obj
 0002:0002a5a8       ??_R2COctopusObjectivePiezo@@8 004c15a8     OctopusObjectivePiezo.obj
 0002:0002a5c4       ??_R1A@?0A@EA@COctopusObjectivePiezo@@8 004c15c4     OctopusObjectivePiezo.obj
 0002:0002a5e8       ??_R4COctopusScope@@6B@    004c15e8     OctopusScope.obj
 0002:0002a600       ??_R3COctopusScope@@8      004c1600     OctopusScope.obj
 0002:0002a614       ??_R2COctopusScope@@8      004c1614     OctopusScope.obj
 0002:0002a630       ??_R1A@?0A@EA@COctopusScope@@8 004c1630     OctopusScope.obj
 0002:0002a654       ??_R4COctopusScript@@6B@   004c1654     OctopusScript.obj
 0002:0002a66c       ??_R3COctopusScript@@8     004c166c     OctopusScript.obj
 0002:0002a680       ??_R2COctopusScript@@8     004c1680     OctopusScript.obj
 0002:0002a69c       ??_R1A@?0A@EA@COctopusScript@@8 004c169c     OctopusScript.obj
 0002:0002a6c0       ??_R4COctopusShutterAndWheel@@6B@ 004c16c0     OctopusShutter.obj
 0002:0002a6d8       ??_R3COctopusShutterAndWheel@@8 004c16d8     OctopusShutter.obj
 0002:0002a6ec       ??_R2COctopusShutterAndWheel@@8 004c16ec     OctopusShutter.obj
 0002:0002a708       ??_R1A@?0A@EA@COctopusShutterAndWheel@@8 004c1708     OctopusShutter.obj
 0002:0002a72c       ??_R4COctopusStage545@@6B@ 004c172c     OctopusStage545.obj
 0002:0002a744       ??_R3COctopusStage545@@8   004c1744     OctopusStage545.obj
 0002:0002a758       ??_R2COctopusStage545@@8   004c1758     OctopusStage545.obj
 0002:0002a774       ??_R1A@?0A@EA@COctopusStage545@@8 004c1774     OctopusStage545.obj
 0002:0002a798       ??_R4COctopusView@@6B@     004c1798     OctopusView.obj
 0002:0002a7b0       ??_R3COctopusView@@8       004c17b0     OctopusView.obj
 0002:0002a7c4       ??_R2COctopusView@@8       004c17c4     OctopusView.obj
 0002:0002a7e8       ??_R1A@?0A@EA@COctopusView@@8 004c17e8     OctopusView.obj
 0002:0002a80c       ??_R1A@?0A@EA@CFormView@@8 004c180c     OctopusView.obj
 0002:0002a830       ??_R3CFormView@@8          004c1830     OctopusView.obj
 0002:0002a844       ??_R2CFormView@@8          004c1844     OctopusView.obj
 0002:0002a864       ??_R1A@?0A@EA@CScrollView@@8 004c1864     OctopusView.obj
 0002:0002a888       ??_R3CScrollView@@8        004c1888     OctopusView.obj
 0002:0002a89c       ??_R2CScrollView@@8        004c189c     OctopusView.obj
 0002:0002a8b8       ??_R1A@?0A@EA@CView@@8     004c18b8     OctopusView.obj
 0002:0002a8dc       ??_R3CView@@8              004c18dc     OctopusView.obj
 0002:0002a8f0       ??_R2CView@@8              004c18f0     OctopusView.obj
 0002:0002a904       ??_R4type_info@@6B@        004c1904     msvcrtd:ti_inst.obj
 0002:0002a918       ??_R3type_info@@8          004c1918     msvcrtd:ti_inst.obj
 0002:0002a928       ??_R2type_info@@8          004c1928     msvcrtd:ti_inst.obj
 0002:0002a930       ??_R1A@?0A@EA@type_info@@8 004c1930     msvcrtd:ti_inst.obj
 0002:0002aab0       ___safe_se_handler_table   004c1ab0     <linker-defined>
 0002:0002ad5c       ___rtc_iaa                 004c1d5c     msvcrtd:_initsect_.obj
 0002:0002ae60       ___rtc_izz                 004c1e60     msvcrtd:_initsect_.obj
 0002:0002af64       ___rtc_taa                 004c1f64     msvcrtd:_initsect_.obj
 0002:0002b068       ___rtc_tzz                 004c2068     msvcrtd:_initsect_.obj
 0002:0002c8a4       __TI1?AVCAtlException@ATL@@ 004c38a4     atlsd:Externs.obj
 0002:0002c8b4       __CTA1?AVCAtlException@ATL@@ 004c38b4     atlsd:Externs.obj
 0002:0002c8bc       __CT??_R0?AVCAtlException@ATL@@@84 004c38bc     atlsd:Externs.obj
 0002:0002cc60       ___pobjMapEntryFirst       004c3c60     APTMotor.obj
 0002:0002cd64       ___pobjMapEntryLast        004c3d64     APTMotor.obj
 0003:00000000       __pIncludeInitManaged      004c4000     APTMotor.obj
 0003:00000004       ??_R0?AVCMgmotorctrl1@@@8  004c4004     APTMotor.obj
 0003:00000028       ??_R0?AVCWnd@@@8           004c4028     APTMotor.obj
 0003:00000040       ??_R0?AVCCmdTarget@@@8     004c4040     APTMotor.obj
 0003:00000060       ??_R0?AVCObject@@@8        004c4060     APTMotor.obj
 0003:0000007c       ??_R0?AUThank_you@Define_the_symbol__ATL_MIXED@@@8 004c407c     APTMotor.obj
 0003:000000bc       ??_R0?AVAPT_system@@@8     004c40bc     APTSystem.obj
 0003:000000dc       ??_R0?AVDisplayDialog@@@8  004c40dc     DisplayDialog.obj
 0003:00000100       ??_R0?AVCDialog@@@8        004c4100     DisplayDialog.obj
 0003:0000011c       ??_R0?AVCMainFrame@@@8     004c411c     MainFrm.obj
 0003:0000013c       ??_R0?AVCFrameWnd@@@8      004c413c     MainFrm.obj
 0003:00000158       ??_R0?AVCOctopusApp@@@8    004c4158     Octopus.obj
 0003:00000178       ??_R0?AVCWinApp@@@8        004c4178     Octopus.obj
 0003:00000194       ??_R0?AVCWinThread@@@8     004c4194     Octopus.obj
 0003:000001b4       ??_R0?AVOctopus_LED@@@8    004c41b4     Octopus_LED.obj
 0003:000001d4       ??_R0?AVCOctopusPictureDisplay@@@8 004c41d4     OctopusCameraDisplay.obj
 0003:00000200       ??_R0?AVCOctopusCamera@@@8 004c4200     OctopusCameraDlg.obj
 0003:00000224       ??_R0?AVCOctopusGoodClock@@@8 004c4224     OctopusClock.obj
 0003:0000024c       ??_R0?AVCOctopusDoc@@@8    004c424c     OctopusDoc.obj
 0003:0000026c       ??_R0?AVCDocument@@@8      004c426c     OctopusDoc.obj
 0003:00000288       ??_R0PAVCException@@@8     004c4288     OctopusDoc.obj
 0003:000002a8       ??_R0?AVCDocumentAdapter@CDocument@@@8 004c42a8     OctopusDoc.obj
 0003:000002dc       ??_R0?AUIDocument@ATL@@@8  004c42dc     OctopusDoc.obj
 0003:00000300       ??_R0?AVCOctopusFocus@@@8  004c4300     OctopusFocus.obj
 0003:00000324       ??_R0?AVOctopusLaser@@@8   004c4324     OctopusLaser.obj
 0003:00000344       ??_R0?AVCOctopusLasers@@@8 004c4344     OctopusLasers.obj
 0003:00000368       ?parms@?1??SC_Enable@CMgmotorctrl1@@QAEJJ@Z@4PAEA 004c4368     OctopusLasers.obj
 0003:0000036c       ?parms@?1??SC_Disable@CMgmotorctrl1@@QAEJJ@Z@4PAEA 004c436c     OctopusLasers.obj
 0003:00000370       ?parms@?1??SC_SetOperatingMode@CMgmotorctrl1@@QAEJJJ@Z@4PAEA 004c4370     OctopusLasers.obj
 0003:00000374       ??_R0?AVCOctopusObjectivePiezo@@@8 004c4374     OctopusObjectivePiezo.obj
 0003:000003a0       ??_R0?AVCOctopusScope@@@8  004c43a0     OctopusScope.obj
 0003:000003c4       ??_R0?AVCOctopusScript@@@8 004c43c4     OctopusScript.obj
 0003:000003e8       ??_R0?AVCOctopusShutterAndWheel@@@8 004c43e8     OctopusShutter.obj
 0003:00000418       ??_R0?AVCOctopusStage545@@@8 004c4418     OctopusStage545.obj
 0003:00000440       ?glob_m_pGoodClock@@3PAVCOctopusGoodClock@@A 004c4440     OctopusView.obj
 0003:00000444       ?glob_m_pLog@@3PAVCOctopusLog@@A 004c4444     OctopusView.obj
 0003:0000044c       ??_R0?AVCOctopusView@@@8   004c444c     OctopusView.obj
 0003:0000046c       ??_R0?AVCFormView@@@8      004c446c     OctopusView.obj
 0003:00000488       ??_R0?AVCScrollView@@@8    004c4488     OctopusView.obj
 0003:000004a8       ??_R0?AVCView@@@8          004c44a8     OctopusView.obj
 0003:000004dc       ___security_cookie         004c44dc     msvcrtd:gs_cookie.obj
 0003:000004e0       ___security_cookie_complement 004c44e0     msvcrtd:gs_cookie.obj
 0003:000004e4       ??_R0?AVtype_info@@@8      004c44e4     msvcrtd:ti_inst.obj
 0003:00000500       ___globallocalestatus      004c4500     msvcrtd:xthdloc.obj
 0003:00000504       ___defaultmatherr          004c4504     msvcrtd:merr.obj
 0003:00000508       ___native_dllmain_reason   004c4508     msvcrtd:natstart.obj
 0003:0000050c       ___native_vcclrit_reason   004c450c     msvcrtd:natstart.obj
 0003:00000510       ?g_pszUpdateEventName@@3PBDB 004c4510     atlsd:Externs.obj
 0003:00000514       ?g_pszAllocFileMapName@@3PBDB 004c4514     atlsd:Externs.obj
 0003:00000518       ?g_pszKernelObjFmt@@3PBDB  004c4518     atlsd:Externs.obj
 0003:0000051c       ??_R0?AVCAtlException@ATL@@@8 004c451c     atlsd:Externs.obj
 0003:00000b88       _F_err                     004c4b88     libf2c:err.obj
 0003:00000c08       _f__r_mode                 004c4c08     libf2c:open.obj
 0003:00000c10       _f__w_mode                 004c4c10     libf2c:open.obj
 0003:00000c24       _f__buflen                 004c4c24     libf2c:open.obj
 0003:00000c40       _My_ctype                  004c4c40     libf2c:ctype.obj
 0003:00001040       ?_pAtlAutoThreadModule@ATL@@3PAUIAtlAutoThreadModule@1@A 004c5040     APTMotor.obj
 0003:00001044       ?s_pfnPrevHook@CNoUIAssertHook@ATL@@0P6AHHPADPAH@ZA 004c5044     APTMotor.obj
 0003:00001048       ?m_bInitFailed@CAtlBaseModule@ATL@@2_NA 004c5048     APTMotor.obj
 0003:0000104c       ?s_pLog@CFixedStringMgr@ATL@@2PAVIFixedStringLog@2@A 004c504c     APTMotor.obj
 0003:00001050       ?_pPerfRegFunc@ATL@@3P6AJPAUHINSTANCE__@@@ZA 004c5050     APTMotor.obj
 0003:00001054       ?_pPerfUnRegFunc@ATL@@3P6AJXZA 004c5054     APTMotor.obj
 0003:00001058       ?_AtlRegisterPerUser@ATL@@3_NA 004c5058     APTMotor.obj
 0003:0000105c       ?_pAtlModule@ATL@@3PAVCAtlModule@1@A 004c505c     APTMotor.obj
 0003:00001060       ?m_libid@CAtlModule@ATL@@2U_GUID@@A 004c5060     APTMotor.obj
 0003:00001074       ?_pModule@ATL@@3PAVCComModule@1@A 004c5074     APTMotor.obj
 0003:00001078       ?ATL_CREATE_OBJECT@CComApartment@ATL@@2IA 004c5078     APTMotor.obj
 0003:0000107c       ?clash@Define_the_symbol__ATL_MIXED@@3UThank_you@1@A 004c507c     APTMotor.obj
 0003:00001080       ?clash@Inconsistent_definition_of_symbol__ATL_MIXED@@3U_Please_define_it_the_same_throughout_your_project@1@A 004c5080     APTMotor.obj
 0003:00001088       ?theApp@@3VCOctopusApp@@A  004c5088     Octopus.obj
 0003:00001164       ?glob_m_pPictureDisplay@@3PAVCOctopusPictureDisplay@@A 004c5164     OctopusCameraDlg.obj
 0003:00001168       ?saved_joystick_states@@3PAHA 004c5168     OctopusStage545.obj
 0003:0000116c       ?joystick_ids@@3PAHA       004c516c     OctopusStage545.obj
 0003:00001178       ?glob_m_pCamera@@3PAVCOctopusCamera@@A 004c5178     OctopusView.obj
 0003:0000117c       ?glob_m_pShutterAndWheel@@3PAVCOctopusShutterAndWheel@@A 004c517c     OctopusView.obj
 0003:00001180       ?glob_m_pScript@@3PAVCOctopusScript@@A 004c5180     OctopusView.obj
 0003:00001184       ?glob_m_pLED@@3PAVOctopus_LED@@A 004c5184     OctopusView.obj
 0003:00001188       ?glob_m_pStage545@@3PAVCOctopusStage545@@A 004c5188     OctopusView.obj
 0003:0000118c       ?glob_m_pObjPiezo@@3PAVCOctopusObjectivePiezo@@A 004c518c     OctopusView.obj
 0003:00001190       ?glob_m_pFocus@@3PAVCOctopusFocus@@A 004c5190     OctopusView.obj
 0003:00001194       ?glob_m_pLasers@@3PAVOctopusLaser@@A 004c5194     OctopusView.obj
 0003:00001198       ?glob_m_pScope@@3PAVCOctopusScope@@A 004c5198     OctopusView.obj
 0003:000011a0       ?GoodClock@@3VCOctopusGoodClock@@A 004c51a0     OctopusView.obj
 0003:000011c8       ?Log@@3VCOctopusLog@@A     004c51c8     OctopusView.obj
 0003:000011d8       ?B@@3UCOctopusGlobals@@A   004c51d8     OctopusView.obj
 0003:000014e8       __afxForceEXCLUDE          004c54e8     mfcs100d:nolib.obj
 0003:000014ec       ?WM_DESTROYMODELESS@CDHtmlDialog@@1IA 004c54ec     mfcs100d:nolib.obj
 0003:000014f0       __afxForceSTDAFX           004c54f0     mfcs100d:stdafx.obj
 0003:0000183c       __commode                  004c583c     msvcrtd:xncommod.obj
 0003:00001840       __fmode                    004c5840     msvcrtd:xtxtmode.obj
 0003:00001844       __dowildcard               004c5844     msvcrtd:wildcard.obj
 0003:00001848       __newmode                  004c5848     msvcrtd:_newmode.obj
 0003:0000184c       ?g_Allocator@@3VCAtlAllocator@@A 004c584c     atlsd:Externs.obj
 0003:00001880       ?s_trace@CTrace@ATL@@2V12@A 004c5880     atlsd:Externs.obj
 0003:00001888       ?atlTraceGeneral@ATL@@3VCTraceCategory@1@A 004c5888     atlsd:atltrace.obj
 0003:0000188c       ?atlTraceCOM@ATL@@3VCTraceCategory@1@A 004c588c     atlsd:atltrace.obj
 0003:00001890       ?atlTraceQI@ATL@@3VCTraceCategory@1@A 004c5890     atlsd:atltrace.obj
 0003:00001894       ?atlTraceRegistrar@ATL@@3VCTraceCategory@1@A 004c5894     atlsd:atltrace.obj
 0003:00001898       ?atlTraceRefcount@ATL@@3VCTraceCategory@1@A 004c5898     atlsd:atltrace.obj
 0003:0000189c       ?atlTraceWindowing@ATL@@3VCTraceCategory@1@A 004c589c     atlsd:atltrace.obj
 0003:000018a0       ?atlTraceControls@ATL@@3VCTraceCategory@1@A 004c58a0     atlsd:atltrace.obj
 0003:000018a4       ?atlTraceHosting@ATL@@3VCTraceCategory@1@A 004c58a4     atlsd:atltrace.obj
 0003:000018a8       ?atlTraceDBClient@ATL@@3VCTraceCategory@1@A 004c58a8     atlsd:atltrace.obj
 0003:000018ac       ?atlTraceDBProvider@ATL@@3VCTraceCategory@1@A 004c58ac     atlsd:atltrace.obj
 0003:000018b0       ?atlTraceSnapin@ATL@@3VCTraceCategory@1@A 004c58b0     atlsd:atltrace.obj
 0003:000018b4       ?atlTraceNotImpl@ATL@@3VCTraceCategory@1@A 004c58b4     atlsd:atltrace.obj
 0003:000018b8       ?atlTraceAllocation@ATL@@3VCTraceCategory@1@A 004c58b8     atlsd:atltrace.obj
 0003:000018bc       ?atlTraceException@ATL@@3VCTraceCategory@1@A 004c58bc     atlsd:atltrace.obj
 0003:000018c0       ?atlTraceTime@ATL@@3VCTraceCategory@1@A 004c58c0     atlsd:atltrace.obj
 0003:000018c4       ?atlTraceCache@ATL@@3VCTraceCategory@1@A 004c58c4     atlsd:atltrace.obj
 0003:000018c8       ?atlTraceStencil@ATL@@3VCTraceCategory@1@A 004c58c8     atlsd:atltrace.obj
 0003:000018cc       ?atlTraceString@ATL@@3VCTraceCategory@1@A 004c58cc     atlsd:atltrace.obj
 0003:000018d0       ?atlTraceMap@ATL@@3VCTraceCategory@1@A 004c58d0     atlsd:atltrace.obj
 0003:000018d4       ?atlTraceUtil@ATL@@3VCTraceCategory@1@A 004c58d4     atlsd:atltrace.obj
 0003:000018d8       ?atlTraceSecurity@ATL@@3VCTraceCategory@1@A 004c58d8     atlsd:atltrace.obj
 0003:000018dc       ?atlTraceSync@ATL@@3VCTraceCategory@1@A 004c58dc     atlsd:atltrace.obj
 0003:000018e0       ?atlTraceISAPI@ATL@@3VCTraceCategory@1@A 004c58e0     atlsd:atltrace.obj
 0003:000018e4       ?atlTraceUser@ATL@@3VCTraceCategory@1@A 004c58e4     atlsd:atltrace.obj
 0003:000018e8       ?atlTraceUser2@ATL@@3VCTraceCategory@1@A 004c58e8     atlsd:atltrace.obj
 0003:000018ec       ?atlTraceUser3@ATL@@3VCTraceCategory@1@A 004c58ec     atlsd:atltrace.obj
 0003:000018f0       ?atlTraceUser4@ATL@@3VCTraceCategory@1@A 004c58f0     atlsd:atltrace.obj
 0003:00002eb4       ?_afxInitAppState@@3DA     004c6eb4     mfcs100d:appmodul.obj
 0003:00002eb8       _f__sequential             004c6eb8     <common>
 0003:000031f8       _f__donewrec               004c71f8     <common>
 0003:000031fc       _f__putn                   004c71fc     <common>
 0003:00003200       _f__formatted              004c7200     <common>
 0003:00003204       _f__doend                  004c7204     <common>
 0003:00003208       _f__curunit                004c7208     <common>
 0003:0000320c       _f__scale                  004c720c     <common>
 0003:00003210       _f__cursor                 004c7210     <common>
 0003:00003214       _f__cblank                 004c7214     <common>
 0003:00003218       _f__reading                004c7218     <common>
 0003:0000321c       _f__fmtbuf                 004c721c     <common>
 0003:00003220       _f__svic                   004c7220     <common>
 0003:00003224       _f__doned                  004c7224     <common>
 0003:00003228       _f__getn                   004c7228     <common>
 0003:0000322c       _f__elist                  004c722c     <common>
 0003:00003230       _f__external               004c7230     <common>
 0003:00003240       _f__units                  004c7240     <common>
 0003:000041e0       _f__icptr                  004c81e0     <common>
 0003:000041e4       _f__init                   004c81e4     <common>
 0003:000041e8       _f__cplus                  004c81e8     <common>
 0003:000041ec       _f__doed                   004c81ec     <common>
 0003:000041f0       _f__recpos                 004c81f0     <common>
 0003:000041f4       _f__dorevert               004c81f4     <common>
 0003:000041f8       _f__hiwater                004c81f8     <common>
 0003:000041fc       _f__cf                     004c81fc     <common>
 0003:00004200       _f__ret                    004c8200     <common>
 0003:00004248       _f__nonl                   004c8248     <common>
 0003:0000424c       _f__revloc                 004c824c     <common>
 0003:00004250       _f__workdone               004c8250     <common>
 0003:00004254       _f__pc                     004c8254     <common>
 0003:00004258       _f__parenlvl               004c8258     <common>
 0003:0000425c       _f__rp                     004c825c     <common>
 0003:00004260       _f__cnt                    004c8260     <common>
 0003:00004288       _f__cp                     004c8288     <common>
 0003:0000428c       ___native_startup_state    004c828c     <common>
 0003:0000429c       ___native_startup_lock     004c829c     <common>
 0003:000042a0       ___sse2_available          004c82a0     <common>
 0003:000042ac       __NoHeapEnableTerminationOnCorruption 004c82ac     <common>
 0003:000042b0       ___dyn_tls_init_callback   004c82b0     <common>
 0003:000042b4       ___onexitend               004c82b4     <common>
 0003:000042c4       ___onexitbegin             004c82c4     <common>
 0004:00000000       __IMPORT_DESCRIPTOR_oldaapi32 004c9000     oldaapi32:oldaapi32.dll
 0004:00000014       __IMPORT_DESCRIPTOR_mfc100d 004c9014     mfc100d:mfc100d.dll
 0004:00000028       __IMPORT_DESCRIPTOR_MSVCR100D 004c9028     msvcrtd:MSVCR100D.dll
 0004:0000003c       __IMPORT_DESCRIPTOR_KERNEL32 004c903c     kernel32:KERNEL32.dll
 0004:00000050       __IMPORT_DESCRIPTOR_COMCTL32 004c9050     comctl32:COMCTL32.dll
 0004:00000064       __IMPORT_DESCRIPTOR_OLEAUT32 004c9064     oleaut32:OLEAUT32.dll
 0004:00000078       __IMPORT_DESCRIPTOR_MSVCR100 004c9078     MSVCRT:MSVCR100.dll
 0004:0000008c       __IMPORT_DESCRIPTOR_USER32 004c908c     user32:USER32.dll
 0004:000000a0       __IMPORT_DESCRIPTOR_ADVAPI32 004c90a0     advapi32:ADVAPI32.dll
 0004:000000b4       __NULL_IMPORT_DESCRIPTOR   004c90b4     oldaapi32:oldaapi32.dll
 0004:00000d70       __imp__OpenThreadToken@16  004c9d70     advapi32:ADVAPI32.dll
 0004:00000d74       __imp__SetThreadToken@8    004c9d74     advapi32:ADVAPI32.dll
 0004:00000d78       __imp__RevertToSelf@0      004c9d78     advapi32:ADVAPI32.dll
 0004:00000d7c       \177ADVAPI32_NULL_THUNK_DATA 004c9d7c     advapi32:ADVAPI32.dll
 0004:00000da8       __imp__InitCommonControlsEx@4 004c9da8     comctl32:COMCTL32.dll
 0004:00000dac       \177COMCTL32_NULL_THUNK_DATA 004c9dac     comctl32:COMCTL32.dll
 0004:00000dd8       __imp__SetCommTimeouts@8   004c9dd8     kernel32:KERNEL32.dll
 0004:00000ddc       __imp__GetCommState@8      004c9ddc     kernel32:KERNEL32.dll
 0004:00000de0       __imp__CreateFileA@28      004c9de0     kernel32:KERNEL32.dll
 0004:00000de4       __imp__GetLastError@0      004c9de4     kernel32:KERNEL32.dll
 0004:00000de8       __imp__WriteFile@20        004c9de8     kernel32:KERNEL32.dll
 0004:00000dec       __imp__CreateEventA@16     004c9dec     kernel32:KERNEL32.dll
 0004:00000df0       __imp__GetOverlappedResult@16 004c9df0     kernel32:KERNEL32.dll
 0004:00000df4       __imp__ReadFile@20         004c9df4     kernel32:KERNEL32.dll
 0004:00000df8       __imp__GetCurrentDirectoryA@8 004c9df8     kernel32:KERNEL32.dll
 0004:00000dfc       __imp__Sleep@4             004c9dfc     kernel32:KERNEL32.dll
 0004:00000e00       __imp__GetModuleFileNameW@12 004c9e00     kernel32:KERNEL32.dll
 0004:00000e04       __imp__OpenFileMappingA@12 004c9e04     kernel32:KERNEL32.dll
 0004:00000e08       __imp__GetCurrentThread@0  004c9e08     kernel32:KERNEL32.dll
 0004:00000e0c       __imp__CreateFileMappingA@24 004c9e0c     kernel32:KERNEL32.dll
 0004:00000e10       __imp__MapViewOfFile@20    004c9e10     kernel32:KERNEL32.dll
 0004:00000e14       __imp__GetSystemInfo@4     004c9e14     kernel32:KERNEL32.dll
 0004:00000e18       __imp__UnmapViewOfFile@4   004c9e18     kernel32:KERNEL32.dll
 0004:00000e1c       __imp__VirtualAlloc@16     004c9e1c     kernel32:KERNEL32.dll
 0004:00000e20       __imp__LocalFileTimeToFileTime@8 004c9e20     kernel32:KERNEL32.dll
 0004:00000e24       __imp__FileTimeToLocalFileTime@8 004c9e24     kernel32:KERNEL32.dll
 0004:00000e28       __imp__FileTimeToSystemTime@8 004c9e28     kernel32:KERNEL32.dll
 0004:00000e2c       __imp__MulDiv@12           004c9e2c     kernel32:KERNEL32.dll
 0004:00000e30       __imp__lstrlenA@4          004c9e30     kernel32:KERNEL32.dll
 0004:00000e34       __imp__MultiByteToWideChar@24 004c9e34     kernel32:KERNEL32.dll
 0004:00000e38       __imp__OutputDebugStringW@4 004c9e38     kernel32:KERNEL32.dll
 0004:00000e3c       __imp__SetCommState@8      004c9e3c     kernel32:KERNEL32.dll
 0004:00000e40       __imp__OpenEventA@12       004c9e40     kernel32:KERNEL32.dll
 0004:00000e44       __imp__SetEvent@4          004c9e44     kernel32:KERNEL32.dll
 0004:00000e48       __imp__RaiseException@16   004c9e48     kernel32:KERNEL32.dll
 0004:00000e4c       __imp__CreateThread@24     004c9e4c     kernel32:KERNEL32.dll
 0004:00000e50       __imp__WaitForSingleObject@8 004c9e50     kernel32:KERNEL32.dll
 0004:00000e54       __imp__QueryPerformanceCounter@4 004c9e54     kernel32:KERNEL32.dll
 0004:00000e58       __imp__QueryPerformanceFrequency@4 004c9e58     kernel32:KERNEL32.dll
 0004:00000e5c       __imp__InterlockedIncrement@4 004c9e5c     kernel32:KERNEL32.dll
 0004:00000e60       __imp__InterlockedDecrement@4 004c9e60     kernel32:KERNEL32.dll
 0004:00000e64       __imp__FreeLibrary@4       004c9e64     kernel32:KERNEL32.dll
 0004:00000e68       __imp__GetProcAddress@8    004c9e68     kernel32:KERNEL32.dll
 0004:00000e6c       __imp__LoadLibraryA@4      004c9e6c     kernel32:KERNEL32.dll
 0004:00000e70       __imp__EncodePointer@4     004c9e70     kernel32:KERNEL32.dll
 0004:00000e74       __imp__DecodePointer@4     004c9e74     kernel32:KERNEL32.dll
 0004:00000e78       __imp__InterlockedExchange@8 004c9e78     kernel32:KERNEL32.dll
 0004:00000e7c       __imp__InterlockedCompareExchange@12 004c9e7c     kernel32:KERNEL32.dll
 0004:00000e80       __imp__HeapSetInformation@16 004c9e80     kernel32:KERNEL32.dll
 0004:00000e84       __imp__GetStartupInfoW@4   004c9e84     kernel32:KERNEL32.dll
 0004:00000e88       __imp__TerminateProcess@8  004c9e88     kernel32:KERNEL32.dll
 0004:00000e8c       __imp__GetCurrentProcess@0 004c9e8c     kernel32:KERNEL32.dll
 0004:00000e90       __imp__UnhandledExceptionFilter@4 004c9e90     kernel32:KERNEL32.dll
 0004:00000e94       __imp__IsDebuggerPresent@0 004c9e94     kernel32:KERNEL32.dll
 0004:00000e98       __imp__IsProcessorFeaturePresent@4 004c9e98     kernel32:KERNEL32.dll
 0004:00000e9c       __imp__GetTickCount@0      004c9e9c     kernel32:KERNEL32.dll
 0004:00000ea0       __imp__GetCurrentThreadId@0 004c9ea0     kernel32:KERNEL32.dll
 0004:00000ea4       __imp__GetCurrentProcessId@0 004c9ea4     kernel32:KERNEL32.dll
 0004:00000ea8       __imp__GetSystemTimeAsFileTime@4 004c9ea8     kernel32:KERNEL32.dll
 0004:00000eac       __imp__CloseHandle@4       004c9eac     kernel32:KERNEL32.dll
 0004:00000eb0       __imp__OutputDebugStringA@4 004c9eb0     kernel32:KERNEL32.dll
 0004:00000eb4       __imp__SetUnhandledExceptionFilter@4 004c9eb4     kernel32:KERNEL32.dll
 0004:00000eb8       \177KERNEL32_NULL_THUNK_DATA 004c9eb8     kernel32:KERNEL32.dll
 0004:00000f10       __imp___recalloc           004c9f10     MSVCRT:MSVCR100.dll
 0004:00000f14       __imp__calloc              004c9f14     MSVCRT:MSVCR100.dll
 0004:00000f18       __imp__strcpy_s            004c9f18     MSVCRT:MSVCR100.dll
 0004:00000f1c       __imp__wcsncpy_s           004c9f1c     MSVCRT:MSVCR100.dll
 0004:00000f20       __imp__wcscpy_s            004c9f20     MSVCRT:MSVCR100.dll
 0004:00000f24       __imp___snwprintf_s        004c9f24     MSVCRT:MSVCR100.dll
 0004:00000f28       __imp___vsnwprintf_s       004c9f28     MSVCRT:MSVCR100.dll
 0004:00000f2c       __imp__memset              004c9f2c     MSVCRT:MSVCR100.dll
 0004:00000f30       __imp___vsnprintf_s        004c9f30     MSVCRT:MSVCR100.dll
 0004:00000f34       __imp__wcscpy              004c9f34     MSVCRT:MSVCR100.dll
 0004:00000f38       __imp__strcpy              004c9f38     MSVCRT:MSVCR100.dll
 0004:00000f3c       __imp___CxxThrowException@8 004c9f3c     MSVCRT:MSVCR100.dll
 0004:00000f40       __imp___errno              004c9f40     MSVCRT:MSVCR100.dll
 0004:00000f44       __imp___snprintf_s         004c9f44     MSVCRT:MSVCR100.dll
 0004:00000f48       __imp__access              004c9f48     MSVCRT:MSVCR100.dll
 0004:00000f48       __imp___access             004c9f48     MSVCRT:MSVCR100.dll
 0004:00000f4c       __imp__memcmp              004c9f4c     MSVCRT:MSVCR100.dll
 0004:00000f50       __imp___time64             004c9f50     MSVCRT:MSVCR100.dll
 0004:00000f54       __imp___mktime64           004c9f54     MSVCRT:MSVCR100.dll
 0004:00000f58       __imp___gmtime64_s         004c9f58     MSVCRT:MSVCR100.dll
 0004:00000f5c       __imp___wcsicmp            004c9f5c     MSVCRT:MSVCR100.dll
 0004:00000f60       __imp__memmove_s           004c9f60     MSVCRT:MSVCR100.dll
 0004:00000f64       __imp__wcslen              004c9f64     MSVCRT:MSVCR100.dll
 0004:00000f68       \177MSVCR100_NULL_THUNK_DATA 004c9f68     MSVCRT:MSVCR100.dll
 0004:00000fa4       __imp___CrtDbgReport       004c9fa4     msvcrtd:MSVCR100D.dll
 0004:00000fa8       __imp__printf              004c9fa8     msvcrtd:MSVCR100D.dll
 0004:00000fac       __imp____CxxFrameHandler3  004c9fac     msvcrtd:MSVCR100D.dll
 0004:00000fb0       __imp___CIlog              004c9fb0     msvcrtd:MSVCR100D.dll
 0004:00000fb4       __imp___CIpow              004c9fb4     msvcrtd:MSVCR100D.dll
 0004:00000fb8       __imp__fflush              004c9fb8     msvcrtd:MSVCR100D.dll
 0004:00000fbc       __imp__perror              004c9fbc     msvcrtd:MSVCR100D.dll
 0004:00000fc0       __imp__fseek               004c9fc0     msvcrtd:MSVCR100D.dll
 0004:00000fc4       __imp__freopen             004c9fc4     msvcrtd:MSVCR100D.dll
 0004:00000fc8       __imp__ftell               004c9fc8     msvcrtd:MSVCR100D.dll
 0004:00000fcc       __imp__putc                004c9fcc     msvcrtd:MSVCR100D.dll
 0004:00000fd0       __imp__fputs               004c9fd0     msvcrtd:MSVCR100D.dll
 0004:00000fd4       __imp__rewind              004c9fd4     msvcrtd:MSVCR100D.dll
 0004:00000fd8       __imp__tmpfile             004c9fd8     msvcrtd:MSVCR100D.dll
 0004:00000fdc       __imp__strncmp             004c9fdc     msvcrtd:MSVCR100D.dll
 0004:00000fe0       __imp__abort               004c9fe0     msvcrtd:MSVCR100D.dll
 0004:00000fe4       __imp__signal              004c9fe4     msvcrtd:MSVCR100D.dll
 0004:00000fe8       __imp__remove              004c9fe8     msvcrtd:MSVCR100D.dll
 0004:00000fec       __imp__atoi                004c9fec     msvcrtd:MSVCR100D.dll
 0004:00000ff0       __imp__fread               004c9ff0     msvcrtd:MSVCR100D.dll
 0004:00000ff4       __imp___setmbcp            004c9ff4     msvcrtd:MSVCR100D.dll
 0004:00000ff8       __imp__fopen               004c9ff8     msvcrtd:MSVCR100D.dll
 0004:00000ffc       __imp__rand                004c9ffc     msvcrtd:MSVCR100D.dll
 0004:00001000       __imp__log                 004ca000     msvcrtd:MSVCR100D.dll
 0004:00001004       __imp__sqrt                004ca004     msvcrtd:MSVCR100D.dll
 0004:00001008       __imp__cos                 004ca008     msvcrtd:MSVCR100D.dll
 0004:0000100c       __imp___getpid             004ca00c     msvcrtd:MSVCR100D.dll
 0004:00001010       __imp__srand               004ca010     msvcrtd:MSVCR100D.dll
 0004:00001014       __imp__exp                 004ca014     msvcrtd:MSVCR100D.dll
 0004:00001018       __imp__fclose              004ca018     msvcrtd:MSVCR100D.dll
 0004:0000101c       __imp__fwrite              004ca01c     msvcrtd:MSVCR100D.dll
 0004:00001020       __imp__strlen              004ca020     msvcrtd:MSVCR100D.dll
 0004:00001024       __imp__floor               004ca024     msvcrtd:MSVCR100D.dll
 0004:00001028       __imp___invoke_watson      004ca028     msvcrtd:MSVCR100D.dll
 0004:0000102c       __imp___controlfp_s        004ca02c     msvcrtd:MSVCR100D.dll
 0004:00001030       __imp___except_handler4_common 004ca030     msvcrtd:MSVCR100D.dll
 0004:00001034       __imp_?_type_info_dtor_internal_method@type_info@@QAEXXZ 004ca034     msvcrtd:MSVCR100D.dll
 0004:00001038       __imp___crt_debugger_hook  004ca038     msvcrtd:MSVCR100D.dll
 0004:0000103c       __imp_?terminate@@YAXXZ    004ca03c     msvcrtd:MSVCR100D.dll
 0004:00001040       __imp___initterm_e         004ca040     msvcrtd:MSVCR100D.dll
 0004:00001044       __imp___initterm           004ca044     msvcrtd:MSVCR100D.dll
 0004:00001048       __imp___CrtDbgReportW      004ca048     msvcrtd:MSVCR100D.dll
 0004:0000104c       __imp___CrtSetCheckCount   004ca04c     msvcrtd:MSVCR100D.dll
 0004:00001050       __imp___acmdln             004ca050     msvcrtd:MSVCR100D.dll
 0004:00001054       __imp___ismbblead          004ca054     msvcrtd:MSVCR100D.dll
 0004:00001058       __imp___cexit              004ca058     msvcrtd:MSVCR100D.dll
 0004:0000105c       __imp___XcptFilter         004ca05c     msvcrtd:MSVCR100D.dll
 0004:00001060       __imp___exit               004ca060     msvcrtd:MSVCR100D.dll
 0004:00001064       __imp____getmainargs       004ca064     msvcrtd:MSVCR100D.dll
 0004:00001068       __imp___amsg_exit          004ca068     msvcrtd:MSVCR100D.dll
 0004:0000106c       __imp____set_app_type      004ca06c     msvcrtd:MSVCR100D.dll
 0004:00001070       __imp___fmode              004ca070     msvcrtd:MSVCR100D.dll
 0004:00001074       __imp___commode            004ca074     msvcrtd:MSVCR100D.dll
 0004:00001078       __imp____setusermatherr    004ca078     msvcrtd:MSVCR100D.dll
 0004:0000107c       __imp___configthreadlocale 004ca07c     msvcrtd:MSVCR100D.dll
 0004:00001080       __imp___onexit             004ca080     msvcrtd:MSVCR100D.dll
 0004:00001084       __imp___lock               004ca084     msvcrtd:MSVCR100D.dll
 0004:00001088       __imp____dllonexit         004ca088     msvcrtd:MSVCR100D.dll
 0004:0000108c       __imp___unlock             004ca08c     msvcrtd:MSVCR100D.dll
 0004:00001090       __imp__memcpy              004ca090     msvcrtd:MSVCR100D.dll
 0004:00001094       __imp___CIsqrt             004ca094     msvcrtd:MSVCR100D.dll
 0004:00001098       __imp___CIlog10            004ca098     msvcrtd:MSVCR100D.dll
 0004:0000109c       __imp__exit                004ca09c     msvcrtd:MSVCR100D.dll
 0004:000010a0       __imp____iob_func          004ca0a0     msvcrtd:MSVCR100D.dll
 0004:000010a4       __imp__malloc              004ca0a4     msvcrtd:MSVCR100D.dll
 0004:000010a8       __imp___finite             004ca0a8     msvcrtd:MSVCR100D.dll
 0004:000010ac       __imp__free                004ca0ac     msvcrtd:MSVCR100D.dll
 0004:000010b0       __imp__system              004ca0b0     msvcrtd:MSVCR100D.dll
 0004:000010b4       __imp__sscanf              004ca0b4     msvcrtd:MSVCR100D.dll
 0004:000010b8       __imp__sprintf             004ca0b8     msvcrtd:MSVCR100D.dll
 0004:000010bc       __imp__atol                004ca0bc     msvcrtd:MSVCR100D.dll
 0004:000010c0       __imp__atof                004ca0c0     msvcrtd:MSVCR100D.dll
 0004:000010c4       __imp___localtime64_s      004ca0c4     msvcrtd:MSVCR100D.dll
 0004:000010c8       __imp__strftime            004ca0c8     msvcrtd:MSVCR100D.dll
 0004:000010cc       __imp___purecall           004ca0cc     msvcrtd:MSVCR100D.dll
 0004:000010d0       __imp__pow                 004ca0d0     msvcrtd:MSVCR100D.dll
 0004:000010d4       __imp__fprintf             004ca0d4     msvcrtd:MSVCR100D.dll
 0004:000010d8       \177MSVCR100D_NULL_THUNK_DATA 004ca0d8     msvcrtd:MSVCR100D.dll
 0004:00001140       __imp__SysFreeString@4     004ca140     oleaut32:OLEAUT32.dll
 0004:00001144       \177OLEAUT32_NULL_THUNK_DATA 004ca144     oleaut32:OLEAUT32.dll
 0004:00001170       __imp__CopyRect@8          004ca170     user32:USER32.dll
 0004:00001174       __imp__IsRectEmpty@4       004ca174     user32:USER32.dll
 0004:00001178       __imp__PtInRect@12         004ca178     user32:USER32.dll
 0004:0000117c       __imp__SetRect@20          004ca17c     user32:USER32.dll
 0004:00001180       __imp__SetRectEmpty@4      004ca180     user32:USER32.dll
 0004:00001184       __imp__EqualRect@8         004ca184     user32:USER32.dll
 0004:00001188       __imp__InflateRect@12      004ca188     user32:USER32.dll
 0004:0000118c       __imp__OffsetRect@12       004ca18c     user32:USER32.dll
 0004:00001190       __imp__IntersectRect@12    004ca190     user32:USER32.dll
 0004:00001194       __imp__SubtractRect@12     004ca194     user32:USER32.dll
 0004:00001198       __imp__UnionRect@12        004ca198     user32:USER32.dll
 0004:0000119c       \177USER32_NULL_THUNK_DATA 004ca19c     user32:USER32.dll
 0004:000011d0       __imp_?ProcessMessageFilter@CWinThread@@UAEHHPAUtagMSG@@@Z 004ca1d0     mfc100d:mfc100d.dll
 0004:000011d4       __imp_?GetMainWnd@CWinThread@@UAEPAVCWnd@@XZ 004ca1d4     mfc100d:mfc100d.dll
 0004:000011d8       __imp_?Delete@CWinThread@@UAEXXZ 004ca1d8     mfc100d:mfc100d.dll
 0004:000011dc       __imp_?GetProfileIntA@CWinApp@@UAEIPBD0H@Z 004ca1dc     mfc100d:mfc100d.dll
 0004:000011e0       __imp_?WriteProfileInt@CWinApp@@UAEHPBD0H@Z 004ca1e0     mfc100d:mfc100d.dll
 0004:000011e4       __imp_?GetProfileStringA@CWinApp@@UAE?AV?$CStringT@DV?$StrTraitMFC_DLL@DV?$ChTraitsCRT@D@ATL@@@@@ATL@@PBD00@Z 004ca1e4     mfc100d:mfc100d.dll
 0004:000011e8       __imp_?WriteProfileStringA@CWinApp@@UAEHPBD00@Z 004ca1e8     mfc100d:mfc100d.dll
 0004:000011ec       __imp_?GetProfileBinary@CWinApp@@UAEHPBD0PAPAEPAI@Z 004ca1ec     mfc100d:mfc100d.dll
 0004:000011f0       __imp_?WriteProfileBinary@CWinApp@@UAEHPBD0PAEI@Z 004ca1f0     mfc100d:mfc100d.dll
 0004:000011f4       __imp_?InitLibId@CWinApp@@UAEXXZ 004ca1f4     mfc100d:mfc100d.dll
 0004:000011f8       __imp_?Register@CWinApp@@UAEHXZ 004ca1f8     mfc100d:mfc100d.dll
 0004:000011fc       __imp_?Unregister@CWinApp@@UAEHXZ 004ca1fc     mfc100d:mfc100d.dll
 0004:00001200       __imp_?OpenDocumentFile@CWinApp@@UAEPAVCDocument@@PBDH@Z 004ca200     mfc100d:mfc100d.dll
 0004:00001204       __imp_?OpenDocumentFile@CWinApp@@UAEPAVCDocument@@PBD@Z 004ca204     mfc100d:mfc100d.dll
 0004:00001208       __imp_?AddToRecentFileList@CWinApp@@UAEXPBD@Z 004ca208     mfc100d:mfc100d.dll
 0004:0000120c       __imp_?InitApplication@CWinApp@@UAEHXZ 004ca20c     mfc100d:mfc100d.dll
 0004:00001210       __imp_?SaveAllModified@CWinApp@@UAEHXZ 004ca210     mfc100d:mfc100d.dll
 0004:00001214       __imp_?DoMessageBox@CWinApp@@UAEHPBDII@Z 004ca214     mfc100d:mfc100d.dll
 0004:00001218       __imp_?DoWaitCursor@CWinApp@@UAEXH@Z 004ca218     mfc100d:mfc100d.dll
 0004:0000121c       __imp_?OnDDECommand@CWinApp@@UAEHPAD@Z 004ca21c     mfc100d:mfc100d.dll
 0004:00001220       __imp_?WinHelpA@CWinApp@@UAEXKI@Z 004ca220     mfc100d:mfc100d.dll
 0004:00001224       __imp_?HtmlHelpA@CWinApp@@UAEXKI@Z 004ca224     mfc100d:mfc100d.dll
 0004:00001228       __imp_?WinHelpInternal@CWinApp@@UAEXKI@Z 004ca228     mfc100d:mfc100d.dll
 0004:0000122c       __imp_?RegisterWithRestartManager@CWinApp@@UAEJPB_WKP6GKPAX@Z1KK@Z 004ca22c     mfc100d:mfc100d.dll
 0004:00001230       __imp_?RegisterWithRestartManager@CWinApp@@UAEJHABV?$CStringT@DV?$StrTraitMFC_DLL@DV?$ChTraitsCRT@D@ATL@@@@@ATL@@@Z 004ca230     mfc100d:mfc100d.dll
 0004:00001234       __imp_?ApplicationRecoveryCallback@CWinApp@@UAEKPAX@Z 004ca234     mfc100d:mfc100d.dll
 0004:00001238       __imp_?GetDataRecoveryHandler@CWinApp@@UAEPAVCDataRecoveryHandler@@XZ 004ca238     mfc100d:mfc100d.dll
 0004:0000123c       __imp_?IsTaskbarInteractionEnabled@CWinApp@@UAEHXZ 004ca23c     mfc100d:mfc100d.dll
 0004:00001240       __imp_?RestartInstance@CWinApp@@UAEHXZ 004ca240     mfc100d:mfc100d.dll
 0004:00001244       __imp_?LoadAppLangResourceDLL@CWinApp@@UAEPAUHINSTANCE__@@XZ 004ca244     mfc100d:mfc100d.dll
 0004:00001248       __imp_?LoadSysPolicies@CWinApp@@UAEHXZ 004ca248     mfc100d:mfc100d.dll
 0004:0000124c       __imp_??1CWinApp@@UAE@XZ   004ca24c     mfc100d:mfc100d.dll
 0004:00001250       __imp_??1CCommandLineInfo@@UAE@XZ 004ca250     mfc100d:mfc100d.dll
 0004:00001254       __imp_?ProcessShellCommand@CWinApp@@QAEHAAVCCommandLineInfo@@@Z 004ca254     mfc100d:mfc100d.dll
 0004:00001258       __imp_?ParseCommandLine@CWinApp@@QAEXAAVCCommandLineInfo@@@Z 004ca258     mfc100d:mfc100d.dll
 0004:0000125c       __imp_??0CCommandLineInfo@@QAE@XZ 004ca25c     mfc100d:mfc100d.dll
 0004:00001260       __imp_?AddDocTemplate@CWinApp@@QAEXPAVCDocTemplate@@@Z 004ca260     mfc100d:mfc100d.dll
 0004:00001264       __imp_??0CSingleDocTemplate@@QAE@IPAUCRuntimeClass@@00@Z 004ca264     mfc100d:mfc100d.dll
 0004:00001268       __imp_?LoadStdProfileSettings@CWinApp@@IAEXI@Z 004ca268     mfc100d:mfc100d.dll
 0004:0000126c       __imp_?AfxEnableControlContainer@@YAXPAVCOccManager@@@Z 004ca26c     mfc100d:mfc100d.dll
 0004:00001270       __imp_?ExitInstance@CWinApp@@UAEHXZ 004ca270     mfc100d:mfc100d.dll
 0004:00001274       __imp_??1CSliderCtrl@@UAE@XZ 004ca274     mfc100d:mfc100d.dll
 0004:00001278       __imp_?ShowWindow@CWnd@@QAEHH@Z 004ca278     mfc100d:mfc100d.dll
 0004:0000127c       __imp_??0CSliderCtrl@@QAE@XZ 004ca27c     mfc100d:mfc100d.dll
 0004:00001280       __imp_?GetRuntimeClass@CDialog@@UBEPAUCRuntimeClass@@XZ 004ca280     mfc100d:mfc100d.dll
 0004:00001284       __imp_?DDX_Check@@YGXPAVCDataExchange@@HAAH@Z 004ca284     mfc100d:mfc100d.dll
 0004:00001288       __imp_?DDX_Slider@@YGXPAVCDataExchange@@HAAH@Z 004ca288     mfc100d:mfc100d.dll
 0004:0000128c       __imp_?DDV_MinMaxInt@@YGXPAVCDataExchange@@HHH@Z 004ca28c     mfc100d:mfc100d.dll
 0004:00001290       __imp_?DDX_Text@@YGXPAVCDataExchange@@HAAH@Z 004ca290     mfc100d:mfc100d.dll
 0004:00001294       __imp_?OnTimer@CWnd@@IAEXI@Z 004ca294     mfc100d:mfc100d.dll
 0004:00001298       __imp_?AfxMessageBox@@YGHPBDII@Z 004ca298     mfc100d:mfc100d.dll
 0004:0000129c       __imp_?UpdateData@CWnd@@QAEHH@Z 004ca29c     mfc100d:mfc100d.dll
 0004:000012a0       __imp_??1CStatic@@UAE@XZ   004ca2a0     mfc100d:mfc100d.dll
 0004:000012a4       __imp_??1CBitmap@@UAE@XZ   004ca2a4     mfc100d:mfc100d.dll
 0004:000012a8       __imp_??_U@YAPAXI@Z        004ca2a8     mfc100d:mfc100d.dll
 0004:000012ac       __imp_??0CStatic@@QAE@XZ   004ca2ac     mfc100d:mfc100d.dll
 0004:000012b0       __imp_??0CBitmap@@QAE@XZ   004ca2b0     mfc100d:mfc100d.dll
 0004:000012b4       __imp_?DDX_Control@@YGXPAVCDataExchange@@HAAVCWnd@@@Z 004ca2b4     mfc100d:mfc100d.dll
 0004:000012b8       __imp_??_V@YAXPAX@Z        004ca2b8     mfc100d:mfc100d.dll
 0004:000012bc       __imp_?DeleteObject@CGdiObject@@QAEHXZ 004ca2bc     mfc100d:mfc100d.dll
 0004:000012c0       __imp_??1CClientDC@@UAE@XZ 004ca2c0     mfc100d:mfc100d.dll
 0004:000012c4       __imp_?GetObjectA@CGdiObject@@QBEHHPAX@Z 004ca2c4     mfc100d:mfc100d.dll
 0004:000012c8       __imp_?CreateCompatibleBitmap@CBitmap@@QAEHPAVCDC@@HH@Z 004ca2c8     mfc100d:mfc100d.dll
 0004:000012cc       __imp_??0CClientDC@@QAE@PAVCWnd@@@Z 004ca2cc     mfc100d:mfc100d.dll
 0004:000012d0       __imp_?MoveWindow@CWnd@@QAEXHHHHH@Z 004ca2d0     mfc100d:mfc100d.dll
 0004:000012d4       __imp_??1CDC@@UAE@XZ       004ca2d4     mfc100d:mfc100d.dll
 0004:000012d8       __imp_??1CPen@@UAE@XZ      004ca2d8     mfc100d:mfc100d.dll
 0004:000012dc       __imp_?LineTo@CDC@@QAEHHH@Z 004ca2dc     mfc100d:mfc100d.dll
 0004:000012e0       __imp_?MoveTo@CDC@@QAE?AVCPoint@@HH@Z 004ca2e0     mfc100d:mfc100d.dll
 0004:000012e4       __imp_?SelectObject@CDC@@QAEPAVCPen@@PAV2@@Z 004ca2e4     mfc100d:mfc100d.dll
 0004:000012e8       __imp_??0CPen@@QAE@HHK@Z   004ca2e8     mfc100d:mfc100d.dll
 0004:000012ec       __imp_?StretchBlt@CDC@@QAEHHHHHPAV1@HHHHK@Z 004ca2ec     mfc100d:mfc100d.dll
 0004:000012f0       __imp_?SetViewportExt@CDC@@UAE?AVCSize@@HH@Z 004ca2f0     mfc100d:mfc100d.dll
 0004:000012f4       __imp_?SetViewportOrg@CDC@@UAE?AVCPoint@@HH@Z 004ca2f4     mfc100d:mfc100d.dll
 0004:000012f8       __imp_?SetMapMode@CDC@@UAEHH@Z 004ca2f8     mfc100d:mfc100d.dll
 0004:000012fc       __imp_?SelectObject@CDC@@QAEPAVCBitmap@@PAV2@@Z 004ca2fc     mfc100d:mfc100d.dll
 0004:00001300       __imp_?GetBitmap@CBitmap@@QAEHPAUtagBITMAP@@@Z 004ca300     mfc100d:mfc100d.dll
 0004:00001304       __imp_?CreateCompatibleDC@CDC@@QAEHPAV1@@Z 004ca304     mfc100d:mfc100d.dll
 0004:00001308       __imp_??0CDC@@QAE@XZ       004ca308     mfc100d:mfc100d.dll
 0004:0000130c       __imp_?SetBitmapBits@CBitmap@@QAEKKPBX@Z 004ca30c     mfc100d:mfc100d.dll
 0004:00001310       __imp_?Format@?$CStringT@DV?$StrTraitMFC_DLL@DV?$ChTraitsCRT@D@ATL@@@@@ATL@@QAAXPBDZZ 004ca310     mfc100d:mfc100d.dll
 0004:00001314       __imp_??4?$CStringT@DV?$StrTraitMFC_DLL@DV?$ChTraitsCRT@D@ATL@@@@@ATL@@QAEAAV01@ABV01@@Z 004ca314     mfc100d:mfc100d.dll
 0004:00001318       __imp_??4?$CStringT@DV?$StrTraitMFC_DLL@DV?$ChTraitsCRT@D@ATL@@@@@ATL@@QAEAAV01@PBD@Z 004ca318     mfc100d:mfc100d.dll
 0004:0000131c       __imp_?SetWindowTextA@CWnd@@QAEXPBD@Z 004ca31c     mfc100d:mfc100d.dll
 0004:00001320       __imp_?AppendFormat@?$CStringT@DV?$StrTraitMFC_DLL@DV?$ChTraitsCRT@D@ATL@@@@@ATL@@QAAXPBDZZ 004ca320     mfc100d:mfc100d.dll
 0004:00001324       __imp_??0?$CStringT@DV?$StrTraitMFC_DLL@DV?$ChTraitsCRT@D@ATL@@@@@ATL@@QAE@ABV01@@Z 004ca324     mfc100d:mfc100d.dll
 0004:00001328       __imp_?Concatenate@?$CSimpleStringT@D$00@ATL@@KAXAAV12@PBDH1H@Z 004ca328     mfc100d:mfc100d.dll
 0004:0000132c       __imp_?GetLength@?$CSimpleStringT@D$00@ATL@@QBEHXZ 004ca32c     mfc100d:mfc100d.dll
 0004:00001330       __imp_??0?$CStringT@DV?$StrTraitMFC_DLL@DV?$ChTraitsCRT@D@ATL@@@@@ATL@@QAE@PAUIAtlStringMgr@1@@Z 004ca330     mfc100d:mfc100d.dll
 0004:00001334       __imp_?GetManager@?$CStringT@DV?$StrTraitMFC_DLL@DV?$ChTraitsCRT@D@ATL@@@@@ATL@@QBEPAUIAtlStringMgr@2@XZ 004ca334     mfc100d:mfc100d.dll
 0004:00001338       __imp_??1CButton@@UAE@XZ   004ca338     mfc100d:mfc100d.dll
 0004:0000133c       __imp_?Append@?$CSimpleStringT@D$00@ATL@@QAEXPBD@Z 004ca33c     mfc100d:mfc100d.dll
 0004:00001340       __imp_?ReleaseBuffer@?$CSimpleStringT@D$00@ATL@@QAEXH@Z 004ca340     mfc100d:mfc100d.dll
 0004:00001344       __imp_?GetBufferSetLength@?$CSimpleStringT@D$00@ATL@@QAEPADH@Z 004ca344     mfc100d:mfc100d.dll
 0004:00001348       __imp_?AfxAssertFailedLine@@YGHPBDH@Z 004ca348     mfc100d:mfc100d.dll
 0004:0000134c       __imp_?LoadBitmapA@CBitmap@@QAEHI@Z 004ca34c     mfc100d:mfc100d.dll
 0004:00001350       __imp_??0?$CStringT@DV?$StrTraitMFC_DLL@DV?$ChTraitsCRT@D@ATL@@@@@ATL@@QAE@PBD@Z 004ca350     mfc100d:mfc100d.dll
 0004:00001354       __imp_??0CButton@@QAE@XZ   004ca354     mfc100d:mfc100d.dll
 0004:00001358       __imp_?DDX_Text@@YGXPAVCDataExchange@@HAAV?$CStringT@DV?$StrTraitMFC_DLL@DV?$ChTraitsCRT@D@ATL@@@@@ATL@@@Z 004ca358     mfc100d:mfc100d.dll
 0004:0000135c       __imp_?DDX_Radio@@YGXPAVCDataExchange@@HAAH@Z 004ca35c     mfc100d:mfc100d.dll
 0004:00001360       __imp_?DDV_MinMaxDouble@@YGXPAVCDataExchange@@ABNNN@Z 004ca360     mfc100d:mfc100d.dll
 0004:00001364       __imp_?DDX_Text@@YGXPAVCDataExchange@@HAAN@Z 004ca364     mfc100d:mfc100d.dll
 0004:00001368       __imp_?DDV_MinMaxLong@@YGXPAVCDataExchange@@JJJ@Z 004ca368     mfc100d:mfc100d.dll
 0004:0000136c       __imp_?DDX_Text@@YGXPAVCDataExchange@@HAAK@Z 004ca36c     mfc100d:mfc100d.dll
 0004:00001370       __imp_?CheckDlgButton@CWnd@@QAEXHI@Z 004ca370     mfc100d:mfc100d.dll
 0004:00001374       __imp_?EnableWindow@CWnd@@QAEHH@Z 004ca374     mfc100d:mfc100d.dll
 0004:00001378       __imp_?GetDlgItem@CWnd@@QBEPAV1@H@Z 004ca378     mfc100d:mfc100d.dll
 0004:0000137c       __imp_?SetTimer@CWnd@@QAEIIIP6GXPAUHWND__@@IIK@Z@Z 004ca37c     mfc100d:mfc100d.dll
 0004:00001380       __imp_?KillTimer@CWnd@@QAEHI@Z 004ca380     mfc100d:mfc100d.dll
 0004:00001384       __imp_?SetBitmap@CStatic@@QAEPAUHBITMAP__@@PAU2@@Z 004ca384     mfc100d:mfc100d.dll
 0004:00001388       __imp_??BCBitmap@@QBEPAUHBITMAP__@@XZ 004ca388     mfc100d:mfc100d.dll
 0004:0000138c       __imp_??1CFileDialog@@UAE@XZ 004ca38c     mfc100d:mfc100d.dll
 0004:00001390       __imp_?Left@?$CStringT@DV?$StrTraitMFC_DLL@DV?$ChTraitsCRT@D@ATL@@@@@ATL@@QBE?AV12@H@Z 004ca390     mfc100d:mfc100d.dll
 0004:00001394       __imp_?Find@?$CStringT@DV?$StrTraitMFC_DLL@DV?$ChTraitsCRT@D@ATL@@@@@ATL@@QBEHPBDH@Z 004ca394     mfc100d:mfc100d.dll
 0004:00001398       __imp_?GetPathName@CFileDialog@@QBE?AV?$CStringT@DV?$StrTraitMFC_DLL@DV?$ChTraitsCRT@D@ATL@@@@@ATL@@XZ 004ca398     mfc100d:mfc100d.dll
 0004:0000139c       __imp_?DoModal@CFileDialog@@UAEHXZ 004ca39c     mfc100d:mfc100d.dll
 0004:000013a0       __imp_??0CFileDialog@@QAE@HPBD0K0PAVCWnd@@KH@Z 004ca3a0     mfc100d:mfc100d.dll
 0004:000013a4       __imp_?GetCheck@CButton@@QBEHXZ 004ca3a4     mfc100d:mfc100d.dll
 0004:000013a8       __imp_?StringLength@?$CSimpleStringT@D$00@ATL@@SAHPBD@Z 004ca3a8     mfc100d:mfc100d.dll
 0004:000013ac       __imp_?ProcessWndProcException@CWinApp@@UAEJPAVCException@@PBUtagMSG@@@Z 004ca3ac     mfc100d:mfc100d.dll
 0004:000013b0       __imp_??0CDocument@@QAE@XZ 004ca3b0     mfc100d:mfc100d.dll
 0004:000013b4       __imp_?AssertValid@CDocument@@UBEXXZ 004ca3b4     mfc100d:mfc100d.dll
 0004:000013b8       __imp_?Dump@CDocument@@UBEXAAVCDumpContext@@@Z 004ca3b8     mfc100d:mfc100d.dll
 0004:000013bc       __imp_?OnCmdMsg@CDocument@@UAEHIHPAXPAUAFX_CMDHANDLERINFO@@@Z 004ca3bc     mfc100d:mfc100d.dll
 0004:000013c0       __imp_?AfxGetModuleState@@YGPAVAFX_MODULE_STATE@@XZ 004ca3c0     mfc100d:mfc100d.dll
 0004:000013c4       __imp_?GetMessageMap@CDocument@@MBEPBUAFX_MSGMAP@@XZ 004ca3c4     mfc100d:mfc100d.dll
 0004:000013c8       __imp_?SetTitle@CDocument@@UAEXPBD@Z 004ca3c8     mfc100d:mfc100d.dll
 0004:000013cc       __imp_?SetPathName@CDocument@@UAEXPBDH@Z 004ca3cc     mfc100d:mfc100d.dll
 0004:000013d0       __imp_?ClearPathName@CDocument@@UAEXXZ 004ca3d0     mfc100d:mfc100d.dll
 0004:000013d4       __imp_?IsModified@CDocument@@UAEHXZ 004ca3d4     mfc100d:mfc100d.dll
 0004:000013d8       __imp_?SetModifiedFlag@CDocument@@UAEXH@Z 004ca3d8     mfc100d:mfc100d.dll
 0004:000013dc       __imp_?GetFirstViewPosition@CDocument@@UBEPAU__POSITION@@XZ 004ca3dc     mfc100d:mfc100d.dll
 0004:000013e0       __imp_?GetNextView@CDocument@@UBEPAVCView@@AAPAU__POSITION@@@Z 004ca3e0     mfc100d:mfc100d.dll
 0004:000013e4       __imp_?OnChangedViewList@CDocument@@UAEXXZ 004ca3e4     mfc100d:mfc100d.dll
 0004:000013e8       __imp_?DeleteContents@CDocument@@UAEXXZ 004ca3e8     mfc100d:mfc100d.dll
 0004:000013ec       __imp_?OnOpenDocument@CDocument@@UAEHPBD@Z 004ca3ec     mfc100d:mfc100d.dll
 0004:000013f0       __imp_?OnSaveDocument@CDocument@@UAEHPBD@Z 004ca3f0     mfc100d:mfc100d.dll
 0004:000013f4       __imp_?OnCloseDocument@CDocument@@UAEXXZ 004ca3f4     mfc100d:mfc100d.dll
 0004:000013f8       __imp_?ReportSaveLoadException@CDocument@@UAEXPBDPAVCException@@HI@Z 004ca3f8     mfc100d:mfc100d.dll
 0004:000013fc       __imp_?GetFile@CDocument@@UAEPAVCFile@@PBDIPAVCFileException@@@Z 004ca3fc     mfc100d:mfc100d.dll
 0004:00001400       __imp_?ReleaseFile@CDocument@@UAEXPAVCFile@@H@Z 004ca400     mfc100d:mfc100d.dll
 0004:00001404       __imp_?OnRichPreviewUnload@CDocument@@UAEXXZ 004ca404     mfc100d:mfc100d.dll
 0004:00001408       __imp_?LoadDocumentFromStream@CDocument@@UAEJPAUIStream@@K@Z 004ca408     mfc100d:mfc100d.dll
 0004:0000140c       __imp_?GetThumbnail@CDocument@@UAEHIPAPAUHBITMAP__@@PAW4WTS_ALPHATYPE@@@Z 004ca40c     mfc100d:mfc100d.dll
 0004:00001410       __imp_?ClearChunkList@CDocument@@UAEXXZ 004ca410     mfc100d:mfc100d.dll
 0004:00001414       __imp_?SetChunkValue@CDocument@@UAEHPAUIFilterChunkValue@ATL@@@Z 004ca414     mfc100d:mfc100d.dll
 0004:00001418       __imp_?BeginReadChunks@CDocument@@UAEXXZ 004ca418     mfc100d:mfc100d.dll
 0004:0000141c       __imp_?ReadNextChunkValue@CDocument@@UAEHPAPAUIFilterChunkValue@ATL@@@Z 004ca41c     mfc100d:mfc100d.dll
 0004:00001420       __imp_?RemoveChunk@CDocument@@UAEXABU_GUID@@K@Z 004ca420     mfc100d:mfc100d.dll
 0004:00001424       __imp_?FindChunk@CDocument@@UAEPAU__POSITION@@ABU_GUID@@K@Z 004ca424     mfc100d:mfc100d.dll
 0004:00001428       __imp_?OnDocumentEvent@CDocument@@UAEXW4DocumentEvent@1@@Z 004ca428     mfc100d:mfc100d.dll
 0004:0000142c       __imp_?CanCloseFrame@CDocument@@UAEHPAVCFrameWnd@@@Z 004ca42c     mfc100d:mfc100d.dll
 0004:00001430       __imp_?SaveModified@CDocument@@UAEHXZ 004ca430     mfc100d:mfc100d.dll
 0004:00001434       __imp_?PreCloseFrame@CDocument@@UAEXPAVCFrameWnd@@@Z 004ca434     mfc100d:mfc100d.dll
 0004:00001438       __imp_?DoSave@CDocument@@UAEHPBDH@Z 004ca438     mfc100d:mfc100d.dll
 0004:0000143c       __imp_?DoFileSave@CDocument@@UAEHXZ 004ca43c     mfc100d:mfc100d.dll
 0004:00001440       __imp_?UpdateFrameCounts@CDocument@@UAEXXZ 004ca440     mfc100d:mfc100d.dll
 0004:00001444       __imp_?GetDefaultMenu@CDocument@@UAEPAUHMENU__@@XZ 004ca444     mfc100d:mfc100d.dll
 0004:00001448       __imp_?GetDefaultAccelerator@CDocument@@UAEPAUHACCEL__@@XZ 004ca448     mfc100d:mfc100d.dll
 0004:0000144c       __imp_?OnIdle@CDocument@@UAEXXZ 004ca44c     mfc100d:mfc100d.dll
 0004:00001450       __imp_?OnLoadDocumentFromStream@CDocument@@UAEJPAUIStream@@K@Z 004ca450     mfc100d:mfc100d.dll
 0004:00001454       __imp_?OnPreviewHandlerQueryFocus@CDocument@@UAEJPAPAUHWND__@@@Z 004ca454     mfc100d:mfc100d.dll
 0004:00001458       __imp_?OnPreviewHandlerTranslateAccelerator@CDocument@@UAEJPAUtagMSG@@@Z 004ca458     mfc100d:mfc100d.dll
 0004:0000145c       __imp_?OnCreatePreviewFrame@CDocument@@UAEHXZ 004ca45c     mfc100d:mfc100d.dll
 0004:00001460       __imp_?OnUnloadHandler@CDocument@@UAEXXZ 004ca460     mfc100d:mfc100d.dll
 0004:00001464       __imp_?OnDrawThumbnail@CDocument@@UAEXAAVCDC@@PAUtagRECT@@@Z 004ca464     mfc100d:mfc100d.dll
 0004:00001468       __imp_?Delete@CException@@QAEXXZ 004ca468     mfc100d:mfc100d.dll
 0004:0000146c       __imp_??2@YAPAXI@Z         004ca46c     mfc100d:mfc100d.dll
 0004:00001470       __imp_?AfxAssertValidObject@@YGXPBVCObject@@PBDH@Z 004ca470     mfc100d:mfc100d.dll
 0004:00001474       __imp_??1CDocument@@UAE@XZ 004ca474     mfc100d:mfc100d.dll
 0004:00001478       __imp_??1CEdit@@UAE@XZ     004ca478     mfc100d:mfc100d.dll
 0004:0000147c       __imp_?SetDlgItemInt@CWnd@@QAEXHIH@Z 004ca47c     mfc100d:mfc100d.dll
 0004:00001480       __imp_?SetTicFreq@CSliderCtrl@@QAEXH@Z 004ca480     mfc100d:mfc100d.dll
 0004:00001484       __imp_?SetPos@CSliderCtrl@@QAEXH@Z 004ca484     mfc100d:mfc100d.dll
 0004:00001488       __imp_?SetRange@CSliderCtrl@@QAEXHHH@Z 004ca488     mfc100d:mfc100d.dll
 0004:0000148c       __imp_??0CEdit@@QAE@XZ     004ca48c     mfc100d:mfc100d.dll
 0004:00001490       __imp_?GetPos@CSliderCtrl@@QBEHXZ 004ca490     mfc100d:mfc100d.dll
 0004:00001494       __imp_?InvokeHelper@CWnd@@QAAXJGGPAXPBEZZ 004ca494     mfc100d:mfc100d.dll
 0004:00001498       __imp_?SetProperty@CWnd@@QAAXJGZZ 004ca498     mfc100d:mfc100d.dll
 0004:0000149c       __imp_?Append@?$CSimpleStringT@D$00@ATL@@QAEXABV12@@Z 004ca49c     mfc100d:mfc100d.dll
 0004:000014a0       __imp_?AfxThrowOleException@@YGXJ@Z 004ca4a0     mfc100d:mfc100d.dll
 0004:000014a4       __imp_?AfxThrowMemoryException@@YGXXZ 004ca4a4     mfc100d:mfc100d.dll
 0004:000014a8       __imp_?IsWindowVisible@CWnd@@QBEHXZ 004ca4a8     mfc100d:mfc100d.dll
 0004:000014ac       __imp_?GetBuffer@?$CSimpleStringT@D$00@ATL@@QAEPADXZ 004ca4ac     mfc100d:mfc100d.dll
 0004:000014b0       __imp_?Compare@?$CStringT@DV?$StrTraitMFC_DLL@DV?$ChTraitsCRT@D@ATL@@@@@ATL@@QBEHPBD@Z 004ca4b0     mfc100d:mfc100d.dll
 0004:000014b4       __imp_??A?$CSimpleStringT@D$00@ATL@@QBEDH@Z 004ca4b4     mfc100d:mfc100d.dll
 0004:000014b8       __imp_??1CListBox@@UAE@XZ  004ca4b8     mfc100d:mfc100d.dll
 0004:000014bc       __imp_??0CListBox@@QAE@XZ  004ca4bc     mfc100d:mfc100d.dll
 0004:000014c0       __imp_?DDX_LBIndex@@YGXPAVCDataExchange@@HAAH@Z 004ca4c0     mfc100d:mfc100d.dll
 0004:000014c4       __imp_??1CFile@@UAE@XZ     004ca4c4     mfc100d:mfc100d.dll
 0004:000014c8       __imp_?Close@CStdioFile@@UAEXXZ 004ca4c8     mfc100d:mfc100d.dll
 0004:000014cc       __imp_?AddString@CListBox@@QAEHPBD@Z 004ca4cc     mfc100d:mfc100d.dll
 0004:000014d0       __imp_??1CStdioFile@@UAE@XZ 004ca4d0     mfc100d:mfc100d.dll
 0004:000014d4       __imp_?InsertString@CListBox@@QAEHHPBD@Z 004ca4d4     mfc100d:mfc100d.dll
 0004:000014d8       __imp_?Right@?$CStringT@DV?$StrTraitMFC_DLL@DV?$ChTraitsCRT@D@ATL@@@@@ATL@@QBE?AV12@H@Z 004ca4d8     mfc100d:mfc100d.dll
 0004:000014dc       __imp_?Trim@?$CStringT@DV?$StrTraitMFC_DLL@DV?$ChTraitsCRT@D@ATL@@@@@ATL@@QAEAAV12@XZ 004ca4dc     mfc100d:mfc100d.dll
 0004:000014e0       __imp_?ReadString@CStdioFile@@UAEHAAV?$CStringT@DV?$StrTraitMFC_DLL@DV?$ChTraitsCRT@D@ATL@@@@@ATL@@@Z 004ca4e0     mfc100d:mfc100d.dll
 0004:000014e4       __imp_?GetCount@CListBox@@QBEHXZ 004ca4e4     mfc100d:mfc100d.dll
 0004:000014e8       __imp_??0CStdioFile@@QAE@PBDI@Z 004ca4e8     mfc100d:mfc100d.dll
 0004:000014ec       __imp_?GetFileName@CFileDialog@@QBE?AV?$CStringT@DV?$StrTraitMFC_DLL@DV?$ChTraitsCRT@D@ATL@@@@@ATL@@XZ 004ca4ec     mfc100d:mfc100d.dll
 0004:000014f0       __imp_?ResetContent@CListBox@@QAEXXZ 004ca4f0     mfc100d:mfc100d.dll
 0004:000014f4       __imp_??0CFile@@QAE@XZ     004ca4f4     mfc100d:mfc100d.dll
 0004:000014f8       __imp_?MakeLower@?$CStringT@DV?$StrTraitMFC_DLL@DV?$ChTraitsCRT@D@ATL@@@@@ATL@@QAEAAV12@XZ 004ca4f8     mfc100d:mfc100d.dll
 0004:000014fc       __imp_?GetText@CListBox@@QBEXHAAV?$CStringT@DV?$StrTraitMFC_DLL@DV?$ChTraitsCRT@D@ATL@@@@@ATL@@@Z 004ca4fc     mfc100d:mfc100d.dll
 0004:00001500       __imp_?GetThisClass@CFormView@@SGPAUCRuntimeClass@@XZ 004ca500     mfc100d:mfc100d.dll
 0004:00001504       __imp_?GetThisMessageMap@CFormView@@KGPBUAFX_MSGMAP@@XZ 004ca504     mfc100d:mfc100d.dll
 0004:00001508       __imp_??0CFormView@@IAE@I@Z 004ca508     mfc100d:mfc100d.dll
 0004:0000150c       __imp_?AssertValid@CFormView@@UBEXXZ 004ca50c     mfc100d:mfc100d.dll
 0004:00001510       __imp_?Dump@CFormView@@UBEXAAVCDumpContext@@@Z 004ca510     mfc100d:mfc100d.dll
 0004:00001514       __imp_?OnCmdMsg@CView@@UAEHIHPAXPAUAFX_CMDHANDLERINFO@@@Z 004ca514     mfc100d:mfc100d.dll
 0004:00001518       __imp_?Create@CFormView@@MAEHPBD0KABUtagRECT@@PAVCWnd@@IPAUCCreateContext@@@Z 004ca518     mfc100d:mfc100d.dll
 0004:0000151c       __imp_?PreCreateWindow@CView@@MAEHAAUtagCREATESTRUCTA@@@Z 004ca51c     mfc100d:mfc100d.dll
 0004:00001520       __imp_?CalcWindowRect@CScrollView@@UAEXPAUtagRECT@@I@Z 004ca520     mfc100d:mfc100d.dll
 0004:00001524       __imp_?GetScrollBarCtrl@CView@@UBEPAVCScrollBar@@H@Z 004ca524     mfc100d:mfc100d.dll
 0004:00001528       __imp_?PreTranslateMessage@CFormView@@MAEHPAUtagMSG@@@Z 004ca528     mfc100d:mfc100d.dll
 0004:0000152c       __imp_?PostNcDestroy@CView@@MAEXXZ 004ca52c     mfc100d:mfc100d.dll
 0004:00001530       __imp_?SetOccDialogInfo@CFormView@@MAEHPAU_AFX_OCC_DIALOG_INFO@@@Z 004ca530     mfc100d:mfc100d.dll
 0004:00001534       __imp_?GetOccDialogInfo@CFormView@@MAEPAU_AFX_OCC_DIALOG_INFO@@XZ 004ca534     mfc100d:mfc100d.dll
 0004:00001538       __imp_?IsSelected@CView@@UBEHPBVCObject@@@Z 004ca538     mfc100d:mfc100d.dll
 0004:0000153c       __imp_?OnScroll@CScrollView@@UAEHIIH@Z 004ca53c     mfc100d:mfc100d.dll
 0004:00001540       __imp_?OnScrollBy@CScrollView@@UAEHVCSize@@H@Z 004ca540     mfc100d:mfc100d.dll
 0004:00001544       __imp_?OnDragEnter@CView@@UAEKPAVCOleDataObject@@KVCPoint@@@Z 004ca544     mfc100d:mfc100d.dll
 0004:00001548       __imp_?OnDragOver@CView@@UAEKPAVCOleDataObject@@KVCPoint@@@Z 004ca548     mfc100d:mfc100d.dll
 0004:0000154c       __imp_?OnDragLeave@CView@@UAEXXZ 004ca54c     mfc100d:mfc100d.dll
 0004:00001550       __imp_?OnDrop@CView@@UAEHPAVCOleDataObject@@KVCPoint@@@Z 004ca550     mfc100d:mfc100d.dll
 0004:00001554       __imp_?OnDropEx@CView@@UAEKPAVCOleDataObject@@KKVCPoint@@@Z 004ca554     mfc100d:mfc100d.dll
 0004:00001558       __imp_?OnDragScroll@CView@@UAEKKVCPoint@@@Z 004ca558     mfc100d:mfc100d.dll
 0004:0000155c       __imp_?OnPrepareDC@CScrollView@@UAEXPAVCDC@@PAUCPrintInfo@@@Z 004ca55c     mfc100d:mfc100d.dll
 0004:00001560       __imp_?OnActivateView@CFormView@@MAEXHPAVCView@@0@Z 004ca560     mfc100d:mfc100d.dll
 0004:00001564       __imp_?OnActivateFrame@CFormView@@MAEXIPAVCFrameWnd@@@Z 004ca564     mfc100d:mfc100d.dll
 0004:00001568       __imp_?OnUpdate@CView@@MAEXPAV1@JPAVCObject@@@Z 004ca568     mfc100d:mfc100d.dll
 0004:0000156c       __imp_?OnDraw@CFormView@@MAEXPAVCDC@@@Z 004ca56c     mfc100d:mfc100d.dll
 0004:00001570       __imp_?OnPreparePrinting@CView@@MAEHPAUCPrintInfo@@@Z 004ca570     mfc100d:mfc100d.dll
 0004:00001574       __imp_?OnBeginPrinting@CView@@MAEXPAVCDC@@PAUCPrintInfo@@@Z 004ca574     mfc100d:mfc100d.dll
 0004:00001578       __imp_?OnPrint@CView@@MAEXPAVCDC@@PAUCPrintInfo@@@Z 004ca578     mfc100d:mfc100d.dll
 0004:0000157c       __imp_?OnEndPrinting@CView@@MAEXPAVCDC@@PAUCPrintInfo@@@Z 004ca57c     mfc100d:mfc100d.dll
 0004:00001580       __imp_?OnEndPrintPreview@CView@@MAEXPAVCDC@@PAUCPrintInfo@@UtagPOINT@@PAVCPreviewView@@@Z 004ca580     mfc100d:mfc100d.dll
 0004:00001584       __imp_?GetWheelScrollDistance@CScrollView@@UAE?AVCSize@@V2@HH@Z 004ca584     mfc100d:mfc100d.dll
 0004:00001588       __imp_?GetAccessibleChild@CWnd@@QAEJUtagVARIANT@@PAPAUIDispatch@@@Z 004ca588     mfc100d:mfc100d.dll
 0004:0000158c       __imp_?GetAccessibleChildCount@CWnd@@QAEJXZ 004ca58c     mfc100d:mfc100d.dll
 0004:00001590       __imp_?GetAccessibleName@CWnd@@QAEJUtagVARIANT@@PAPA_W@Z 004ca590     mfc100d:mfc100d.dll
 0004:00001594       __imp_?GetAccessibilityLocation@CWnd@@QAEJUtagVARIANT@@PAJ111@Z 004ca594     mfc100d:mfc100d.dll
 0004:00001598       __imp_?GetAccessibilityHitTest@CWnd@@QAEJJJPAUtagVARIANT@@@Z 004ca598     mfc100d:mfc100d.dll
 0004:0000159c       __imp_?OnInitialUpdate@CFormView@@UAEXXZ 004ca59c     mfc100d:mfc100d.dll
 0004:000015a0       __imp_??1CFormView@@UAE@XZ 004ca5a0     mfc100d:mfc100d.dll
 0004:000015a4       __imp_?IsIdleMessage@CWinThread@@UAEHPAUtagMSG@@@Z 004ca5a4     mfc100d:mfc100d.dll
 0004:000015a8       __imp_?OnIdle@CWinApp@@UAEHJ@Z 004ca5a8     mfc100d:mfc100d.dll
 0004:000015ac       __imp_?PumpMessage@CWinThread@@UAEHXZ 004ca5ac     mfc100d:mfc100d.dll
 0004:000015b0       __imp_?PreTranslateMessage@CWinThread@@UAEHPAUtagMSG@@@Z 004ca5b0     mfc100d:mfc100d.dll
 0004:000015b4       __imp_?Run@CWinApp@@UAEHXZ 004ca5b4     mfc100d:mfc100d.dll
 0004:000015b8       __imp_?GetInterfaceMap@CCmdTarget@@MBEPBUAFX_INTERFACEMAP@@XZ 004ca5b8     mfc100d:mfc100d.dll
 0004:000015bc       __imp_?GetMessageMap@CWinApp@@MBEPBUAFX_MSGMAP@@XZ 004ca5bc     mfc100d:mfc100d.dll
 0004:000015c0       __imp_?OnFinalRelease@CCmdTarget@@UAEXXZ 004ca5c0     mfc100d:mfc100d.dll
 0004:000015c4       __imp_?Dump@CWinApp@@UBEXAAVCDumpContext@@@Z 004ca5c4     mfc100d:mfc100d.dll
 0004:000015c8       __imp_?AssertValid@CWinApp@@UBEXXZ 004ca5c8     mfc100d:mfc100d.dll
 0004:000015cc       __imp_?GetRuntimeClass@CWinApp@@UBEPAUCRuntimeClass@@XZ 004ca5cc     mfc100d:mfc100d.dll
 0004:000015d0       __imp_??0CWinApp@@QAE@PBD@Z 004ca5d0     mfc100d:mfc100d.dll
 0004:000015d4       __imp_?PreCreateWindow@CFrameWnd@@MAEHAAUtagCREATESTRUCTA@@@Z 004ca5d4     mfc100d:mfc100d.dll
 0004:000015d8       __imp_??1CFrameWnd@@UAE@XZ 004ca5d8     mfc100d:mfc100d.dll
 0004:000015dc       __imp_?OnHideMenuBar@CFrameWnd@@MAEXXZ 004ca5dc     mfc100d:mfc100d.dll
 0004:000015e0       __imp_?OnShowMenuBar@CFrameWnd@@MAEXXZ 004ca5e0     mfc100d:mfc100d.dll
 0004:000015e4       __imp_?ExitHelpMode@CFrameWnd@@UAEXXZ 004ca5e4     mfc100d:mfc100d.dll
 0004:000015e8       __imp_?DelayUpdateFrameMenu@CFrameWnd@@UAEXPAUHMENU__@@@Z 004ca5e8     mfc100d:mfc100d.dll
 0004:000015ec       __imp_?GetDefaultAccelerator@CFrameWnd@@UAEPAUHACCEL__@@XZ 004ca5ec     mfc100d:mfc100d.dll
 0004:000015f0       __imp_?OnUpdateFrameMenu@CFrameWnd@@UAEXPAUHMENU__@@@Z 004ca5f0     mfc100d:mfc100d.dll
 0004:000015f4       __imp_?OnUpdateFrameTitle@CFrameWnd@@UAEXH@Z 004ca5f4     mfc100d:mfc100d.dll
 0004:000015f8       __imp_?OnCreateClient@CFrameWnd@@MAEHPAUtagCREATESTRUCTA@@PAUCCreateContext@@@Z 004ca5f8     mfc100d:mfc100d.dll
 0004:000015fc       __imp_?NegotiateBorderSpace@CFrameWnd@@UAEHIPAUtagRECT@@@Z 004ca5fc     mfc100d:mfc100d.dll
 0004:00001600       __imp_?GetMessageBar@CFrameWnd@@UAEPAVCWnd@@XZ 004ca600     mfc100d:mfc100d.dll
 0004:00001604       __imp_?OnSetPreviewMode@CFrameWnd@@UAEXHPAUCPrintPreviewState@@@Z 004ca604     mfc100d:mfc100d.dll
 0004:00001608       __imp_?GetMenuBarState@CFrameWnd@@UBEKXZ 004ca608     mfc100d:mfc100d.dll
 0004:0000160c       __imp_?SetMenuBarState@CFrameWnd@@UAEHK@Z 004ca60c     mfc100d:mfc100d.dll
 0004:00001610       __imp_?GetMenuBarVisibility@CFrameWnd@@UBEKXZ 004ca610     mfc100d:mfc100d.dll
 0004:00001614       __imp_?SetMenuBarVisibility@CFrameWnd@@UAEXK@Z 004ca614     mfc100d:mfc100d.dll
 0004:00001618       __imp_?ActivateFrame@CFrameWnd@@UAEXH@Z 004ca618     mfc100d:mfc100d.dll
 0004:0000161c       __imp_?RecalcLayout@CFrameWnd@@UAEXH@Z 004ca61c     mfc100d:mfc100d.dll
 0004:00001620       __imp_?GetMessageString@CFrameWnd@@UBEXIAAV?$CStringT@DV?$StrTraitMFC_DLL@DV?$ChTraitsCRT@D@ATL@@@@@ATL@@@Z 004ca620     mfc100d:mfc100d.dll
 0004:00001624       __imp_?GetActiveFrame@CFrameWnd@@UAEPAV1@XZ 004ca624     mfc100d:mfc100d.dll
 0004:00001628       __imp_?GetActiveDocument@CFrameWnd@@UAEPAVCDocument@@XZ 004ca628     mfc100d:mfc100d.dll
 0004:0000162c       __imp_?LoadFrame@CFrameWnd@@UAEHIKPAVCWnd@@PAUCCreateContext@@@Z 004ca62c     mfc100d:mfc100d.dll
 0004:00001630       __imp_?Create@CFrameWnd@@UAEHPBD0KABUtagRECT@@PAVCWnd@@0KPAUCCreateContext@@@Z 004ca630     mfc100d:mfc100d.dll
 0004:00001634       __imp_?IsFrameWnd@CFrameWnd@@UBEHXZ 004ca634     mfc100d:mfc100d.dll
 0004:00001638       __imp_?PostNcDestroy@CFrameWnd@@MAEXXZ 004ca638     mfc100d:mfc100d.dll
 0004:0000163c       __imp_?PreTranslateMessage@CFrameWnd@@UAEHPAUtagMSG@@@Z 004ca63c     mfc100d:mfc100d.dll
 0004:00001640       __imp_?EndModalState@CFrameWnd@@UAEXXZ 004ca640     mfc100d:mfc100d.dll
 0004:00001644       __imp_?BeginModalState@CFrameWnd@@UAEXXZ 004ca644     mfc100d:mfc100d.dll
 0004:00001648       __imp_?OnCommand@CFrameWnd@@MAEHIJ@Z 004ca648     mfc100d:mfc100d.dll
 0004:0000164c       __imp_?SetMenu@CFrameWnd@@UAEHPAVCMenu@@@Z 004ca64c     mfc100d:mfc100d.dll
 0004:00001650       __imp_?GetMenu@CFrameWnd@@UBEPAVCMenu@@XZ 004ca650     mfc100d:mfc100d.dll
 0004:00001654       __imp_?GetMessageMap@CFrameWnd@@MBEPBUAFX_MSGMAP@@XZ 004ca654     mfc100d:mfc100d.dll
 0004:00001658       __imp_?OnCmdMsg@CFrameWnd@@UAEHIHPAXPAUAFX_CMDHANDLERINFO@@@Z 004ca658     mfc100d:mfc100d.dll
 0004:0000165c       __imp_?Dump@CFrameWnd@@UBEXAAVCDumpContext@@@Z 004ca65c     mfc100d:mfc100d.dll
 0004:00001660       __imp_?AssertValid@CFrameWnd@@UBEXXZ 004ca660     mfc100d:mfc100d.dll
 0004:00001664       __imp_??0CFrameWnd@@QAE@XZ 004ca664     mfc100d:mfc100d.dll
 0004:00001668       __imp_?GetThisClass@CFrameWnd@@SGPAUCRuntimeClass@@XZ 004ca668     mfc100d:mfc100d.dll
 0004:0000166c       __imp_?GetThisMessageMap@CDialog@@KGPBUAFX_MSGMAP@@XZ 004ca66c     mfc100d:mfc100d.dll
 0004:00001670       __imp_??1CDialog@@UAE@XZ   004ca670     mfc100d:mfc100d.dll
 0004:00001674       __imp_?PreInitDialog@CDialog@@MAEXXZ 004ca674     mfc100d:mfc100d.dll
 0004:00001678       __imp_?OnCancel@CDialog@@MAEXXZ 004ca678     mfc100d:mfc100d.dll
 0004:0000167c       __imp_?OnOK@CDialog@@MAEXXZ 004ca67c     mfc100d:mfc100d.dll
 0004:00001680       __imp_?OnSetFont@CDialog@@UAEXPAVCFont@@@Z 004ca680     mfc100d:mfc100d.dll
 0004:00001684       __imp_?OnInitDialog@CDialog@@UAEHXZ 004ca684     mfc100d:mfc100d.dll
 0004:00001688       __imp_?DoModal@CDialog@@UAEHXZ 004ca688     mfc100d:mfc100d.dll
 0004:0000168c       __imp_?CreateIndirect@CDialog@@UAEHPBUDLGTEMPLATE@@PAVCWnd@@PAX@Z 004ca68c     mfc100d:mfc100d.dll
 0004:00001690       __imp_?CreateIndirect@CDialog@@UAEHPAXPAVCWnd@@@Z 004ca690     mfc100d:mfc100d.dll
 0004:00001694       __imp_?Create@CDialog@@UAEHPBDPAVCWnd@@@Z 004ca694     mfc100d:mfc100d.dll
 0004:00001698       __imp_?Create@CDialog@@UAEHIPAVCWnd@@@Z 004ca698     mfc100d:mfc100d.dll
 0004:0000169c       __imp_?GetOccDialogInfo@CDialog@@MAEPAU_AFX_OCC_DIALOG_INFO@@XZ 004ca69c     mfc100d:mfc100d.dll
 0004:000016a0       __imp_?SetOccDialogInfo@CDialog@@MAEHPAU_AFX_OCC_DIALOG_INFO@@@Z 004ca6a0     mfc100d:mfc100d.dll
 0004:000016a4       __imp_?CheckAutoCenter@CDialog@@UAEHXZ 004ca6a4     mfc100d:mfc100d.dll
 0004:000016a8       __imp_?PreTranslateMessage@CDialog@@UAEHPAUtagMSG@@@Z 004ca6a8     mfc100d:mfc100d.dll
 0004:000016ac       __imp_?Create@CWnd@@UAEHPBD0KABUtagRECT@@PAV1@IPAUCCreateContext@@@Z 004ca6ac     mfc100d:mfc100d.dll
 0004:000016b0       __imp_?OnCmdMsg@CDialog@@UAEHIHPAXPAUAFX_CMDHANDLERINFO@@@Z 004ca6b0     mfc100d:mfc100d.dll
 0004:000016b4       __imp_?Dump@CDialog@@UBEXAAVCDumpContext@@@Z 004ca6b4     mfc100d:mfc100d.dll
 0004:000016b8       __imp_?AssertValid@CDialog@@UBEXXZ 004ca6b8     mfc100d:mfc100d.dll
 0004:000016bc       __imp_??0CDialog@@QAE@IPAVCWnd@@@Z 004ca6bc     mfc100d:mfc100d.dll
 0004:000016c0       __imp_?GetThisClass@CDialog@@SGPAUCRuntimeClass@@XZ 004ca6c0     mfc100d:mfc100d.dll
 0004:000016c4       __imp_??B?$CSimpleStringT@D$00@ATL@@QBEPBDXZ 004ca6c4     mfc100d:mfc100d.dll
 0004:000016c8       __imp_??1?$CStringT@DV?$StrTraitMFC_DLL@DV?$ChTraitsCRT@D@ATL@@@@@ATL@@QAE@XZ 004ca6c8     mfc100d:mfc100d.dll
 0004:000016cc       __imp_??0?$CStringT@DV?$StrTraitMFC_DLL@DV?$ChTraitsCRT@D@ATL@@@@@ATL@@QAE@XZ 004ca6cc     mfc100d:mfc100d.dll
 0004:000016d0       __imp_?GetThisClass@CWnd@@SGPAUCRuntimeClass@@XZ 004ca6d0     mfc100d:mfc100d.dll
 0004:000016d4       __imp_??1CWnd@@UAE@XZ      004ca6d4     mfc100d:mfc100d.dll
 0004:000016d8       __imp_?CreateControl@CWnd@@QAEHABU_GUID@@PBDKABUtagRECT@@PAV1@IPAVCFile@@HPA_W@Z 004ca6d8     mfc100d:mfc100d.dll
 0004:000016dc       __imp_?GetOccDialogInfo@CWnd@@MAEPAU_AFX_OCC_DIALOG_INFO@@XZ 004ca6dc     mfc100d:mfc100d.dll
 0004:000016e0       __imp_?SetOccDialogInfo@CWnd@@MAEHPAU_AFX_OCC_DIALOG_INFO@@@Z 004ca6e0     mfc100d:mfc100d.dll
 0004:000016e4       __imp_?CreateControlSite@CWnd@@MAEHPAVCOleControlContainer@@PAPAVCOleControlSite@@IABU_GUID@@@Z 004ca6e4     mfc100d:mfc100d.dll
 0004:000016e8       __imp_?CreateControlContainer@CWnd@@MAEHPAPAVCOleControlContainer@@@Z 004ca6e8     mfc100d:mfc100d.dll
 0004:000016ec       __imp_?IsFrameWnd@CWnd@@UBEHXZ 004ca6ec     mfc100d:mfc100d.dll
 0004:000016f0       __imp_?CheckAutoCenter@CWnd@@UAEHXZ 004ca6f0     mfc100d:mfc100d.dll
 0004:000016f4       __imp_?OnGesturePressAndTap@CWnd@@MAEHVCPoint@@J@Z 004ca6f4     mfc100d:mfc100d.dll
 0004:000016f8       __imp_?OnGestureTwoFingerTap@CWnd@@MAEHVCPoint@@@Z 004ca6f8     mfc100d:mfc100d.dll
 0004:000016fc       __imp_?OnGestureRotate@CWnd@@MAEHVCPoint@@N@Z 004ca6fc     mfc100d:mfc100d.dll
 0004:00001700       __imp_?OnGesturePan@CWnd@@MAEHVCPoint@@0@Z 004ca700     mfc100d:mfc100d.dll
 0004:00001704       __imp_?OnGestureZoom@CWnd@@MAEHVCPoint@@J@Z 004ca704     mfc100d:mfc100d.dll
 0004:00001708       __imp_?GetGestureStatus@CWnd@@MAEKVCPoint@@@Z 004ca708     mfc100d:mfc100d.dll
 0004:0000170c       __imp_?OnTouchInput@CWnd@@MAEHVCPoint@@HHPAUtagTOUCHINPUT@@@Z 004ca70c     mfc100d:mfc100d.dll
 0004:00001710       __imp_?OnTouchInputs@CWnd@@MAEHIPAUtagTOUCHINPUT@@@Z 004ca710     mfc100d:mfc100d.dll
 0004:00001714       __imp_?OnChildNotify@CWnd@@MAEHIIJPAJ@Z 004ca714     mfc100d:mfc100d.dll
 0004:00001718       __imp_?PostNcDestroy@CWnd@@MAEXXZ 004ca718     mfc100d:mfc100d.dll
 0004:0000171c       __imp_?DefWindowProcA@CWnd@@MAEJIIJ@Z 004ca71c     mfc100d:mfc100d.dll
 0004:00001720       __imp_?OnWndMsg@CWnd@@MAEHIIJPAJ@Z 004ca720     mfc100d:mfc100d.dll
 0004:00001724       __imp_?WindowProc@CWnd@@MAEJIIJ@Z 004ca724     mfc100d:mfc100d.dll
 0004:00001728       __imp_?OnAmbientProperty@CWnd@@UAEHPAVCOleControlSite@@JPAUtagVARIANT@@@Z 004ca728     mfc100d:mfc100d.dll
 0004:0000172c       __imp_?PreTranslateMessage@CWnd@@UAEHPAUtagMSG@@@Z 004ca72c     mfc100d:mfc100d.dll
 0004:00001730       __imp_?EndModalState@CWnd@@UAEXXZ 004ca730     mfc100d:mfc100d.dll
 0004:00001734       __imp_?BeginModalState@CWnd@@UAEXXZ 004ca734     mfc100d:mfc100d.dll
 0004:00001738       __imp_?DoDataExchange@CWnd@@MAEXPAVCDataExchange@@@Z 004ca738     mfc100d:mfc100d.dll
 0004:0000173c       __imp_?GetSuperWndProcAddr@CWnd@@MAEPAP6GJPAUHWND__@@IIJ@ZXZ 004ca73c     mfc100d:mfc100d.dll
 0004:00001740       __imp_?OnNotify@CWnd@@MAEHIJPAJ@Z 004ca740     mfc100d:mfc100d.dll
 0004:00001744       __imp_?OnCommand@CWnd@@MAEHIJ@Z 004ca744     mfc100d:mfc100d.dll
 0004:00001748       __imp_?CreateAccessibleProxy@CWnd@@UAEJIJPAJ@Z 004ca748     mfc100d:mfc100d.dll
 0004:0000174c       __imp_?SetProxy@CWnd@@UAEJPAUIAccessibleProxy@@@Z 004ca74c     mfc100d:mfc100d.dll
 0004:00001750       __imp_?put_accValue@CWnd@@UAEJUtagVARIANT@@PA_W@Z 004ca750     mfc100d:mfc100d.dll
 0004:00001754       __imp_?put_accName@CWnd@@UAEJUtagVARIANT@@PA_W@Z 004ca754     mfc100d:mfc100d.dll
 0004:00001758       __imp_?accDoDefaultAction@CWnd@@UAEJUtagVARIANT@@@Z 004ca758     mfc100d:mfc100d.dll
 0004:0000175c       __imp_?accHitTest@CWnd@@UAEJJJPAUtagVARIANT@@@Z 004ca75c     mfc100d:mfc100d.dll
 0004:00001760       __imp_?accNavigate@CWnd@@UAEJJUtagVARIANT@@PAU2@@Z 004ca760     mfc100d:mfc100d.dll
 0004:00001764       __imp_?accLocation@CWnd@@UAEJPAJ000UtagVARIANT@@@Z 004ca764     mfc100d:mfc100d.dll
 0004:00001768       __imp_?accSelect@CWnd@@UAEJJUtagVARIANT@@@Z 004ca768     mfc100d:mfc100d.dll
 0004:0000176c       __imp_?get_accDefaultAction@CWnd@@UAEJUtagVARIANT@@PAPA_W@Z 004ca76c     mfc100d:mfc100d.dll
 0004:00001770       __imp_?get_accSelection@CWnd@@UAEJPAUtagVARIANT@@@Z 004ca770     mfc100d:mfc100d.dll
 0004:00001774       __imp_?get_accFocus@CWnd@@UAEJPAUtagVARIANT@@@Z 004ca774     mfc100d:mfc100d.dll
 0004:00001778       __imp_?get_accKeyboardShortcut@CWnd@@UAEJUtagVARIANT@@PAPA_W@Z 004ca778     mfc100d:mfc100d.dll
 0004:0000177c       __imp_?get_accHelpTopic@CWnd@@UAEJPAPA_WUtagVARIANT@@PAJ@Z 004ca77c     mfc100d:mfc100d.dll
 0004:00001780       __imp_?get_accHelp@CWnd@@UAEJUtagVARIANT@@PAPA_W@Z 004ca780     mfc100d:mfc100d.dll
 0004:00001784       __imp_?get_accState@CWnd@@UAEJUtagVARIANT@@PAU2@@Z 004ca784     mfc100d:mfc100d.dll
 0004:00001788       __imp_?get_accRole@CWnd@@UAEJUtagVARIANT@@PAU2@@Z 004ca788     mfc100d:mfc100d.dll
 0004:0000178c       __imp_?get_accDescription@CWnd@@UAEJUtagVARIANT@@PAPA_W@Z 004ca78c     mfc100d:mfc100d.dll
 0004:00001790       __imp_?get_accValue@CWnd@@UAEJUtagVARIANT@@PAPA_W@Z 004ca790     mfc100d:mfc100d.dll
 0004:00001794       __imp_?get_accName@CWnd@@UAEJUtagVARIANT@@PAPA_W@Z 004ca794     mfc100d:mfc100d.dll
 0004:00001798       __imp_?get_accChild@CWnd@@UAEJUtagVARIANT@@PAPAUIDispatch@@@Z 004ca798     mfc100d:mfc100d.dll
 0004:0000179c       __imp_?get_accChildCount@CWnd@@UAEJPAJ@Z 004ca79c     mfc100d:mfc100d.dll
 0004:000017a0       __imp_?get_accParent@CWnd@@UAEJPAPAUIDispatch@@@Z 004ca7a0     mfc100d:mfc100d.dll
 0004:000017a4       __imp_?EnsureStdObj@CWnd@@UAEJXZ 004ca7a4     mfc100d:mfc100d.dll
 0004:000017a8       __imp_?OnDrawIconicThumbnailOrLivePreview@CWnd@@UAEXAAVCDC@@VCRect@@VCSize@@HAAH@Z 004ca7a8     mfc100d:mfc100d.dll
 0004:000017ac       __imp_?EndModalLoop@CWnd@@UAEXH@Z 004ca7ac     mfc100d:mfc100d.dll
 0004:000017b0       __imp_?ContinueModal@CWnd@@UAEHXZ 004ca7b0     mfc100d:mfc100d.dll
 0004:000017b4       __imp_?WinHelpInternal@CWnd@@UAEXKI@Z 004ca7b4     mfc100d:mfc100d.dll
 0004:000017b8       __imp_?HtmlHelpA@CWnd@@UAEXKI@Z 004ca7b8     mfc100d:mfc100d.dll
 0004:000017bc       __imp_?WinHelpA@CWnd@@UAEXKI@Z 004ca7bc     mfc100d:mfc100d.dll
 0004:000017c0       __imp_?GetScrollBarCtrl@CWnd@@UBEPAVCScrollBar@@H@Z 004ca7c0     mfc100d:mfc100d.dll
 0004:000017c4       __imp_?OnToolHitTest@CWnd@@UBEHVCPoint@@PAUtagTOOLINFOA@@@Z 004ca7c4     mfc100d:mfc100d.dll
 0004:000017c8       __imp_?SetMenu@CWnd@@UAEHPAVCMenu@@@Z 004ca7c8     mfc100d:mfc100d.dll
 0004:000017cc       __imp_?GetMenu@CWnd@@UBEPAVCMenu@@XZ 004ca7cc     mfc100d:mfc100d.dll
 0004:000017d0       __imp_?CalcWindowRect@CWnd@@UAEXPAUtagRECT@@I@Z 004ca7d0     mfc100d:mfc100d.dll
 0004:000017d4       __imp_?PreCreateWindow@CWnd@@UAEHAAUtagCREATESTRUCTA@@@Z 004ca7d4     mfc100d:mfc100d.dll
 0004:000017d8       __imp_?DestroyWindow@CWnd@@UAEHXZ 004ca7d8     mfc100d:mfc100d.dll
 0004:000017dc       __imp_?CreateEx@CWnd@@UAEHKPBD0KHHHHPAUHWND__@@PAUHMENU__@@PAX@Z 004ca7dc     mfc100d:mfc100d.dll
 0004:000017e0       __imp_?CreateEx@CWnd@@UAEHKPBD0KABUtagRECT@@PAV1@IPAX@Z 004ca7e0     mfc100d:mfc100d.dll
 0004:000017e4       __imp_?PreSubclassWindow@CWnd@@UAEXXZ 004ca7e4     mfc100d:mfc100d.dll
 0004:000017e8       __imp_?GetConnectionHook@CCmdTarget@@MAEPAUIConnectionPoint@@ABU_GUID@@@Z 004ca7e8     mfc100d:mfc100d.dll
 0004:000017ec       __imp_?GetExtraConnectionPoints@CCmdTarget@@MAEHPAVCPtrArray@@@Z 004ca7ec     mfc100d:mfc100d.dll
 0004:000017f0       __imp_?GetInterfaceHook@CCmdTarget@@UAEPAUIUnknown@@PBX@Z 004ca7f0     mfc100d:mfc100d.dll
 0004:000017f4       __imp_?OnCreateAggregates@CCmdTarget@@UAEHXZ 004ca7f4     mfc100d:mfc100d.dll
 0004:000017f8       __imp_?GetEventSinkMap@CCmdTarget@@MBEPBUAFX_EVENTSINKMAP@@XZ 004ca7f8     mfc100d:mfc100d.dll
 0004:000017fc       __imp_?GetInterfaceMap@CWnd@@MBEPBUAFX_INTERFACEMAP@@XZ 004ca7fc     mfc100d:mfc100d.dll
 0004:00001800       __imp_?GetConnectionMap@CCmdTarget@@MBEPBUAFX_CONNECTIONMAP@@XZ 004ca800     mfc100d:mfc100d.dll
 0004:00001804       __imp_?GetDispatchMap@CCmdTarget@@MBEPBUAFX_DISPMAP@@XZ 004ca804     mfc100d:mfc100d.dll
 0004:00001808       __imp_?GetCommandMap@CCmdTarget@@MBEPBUAFX_OLECMDMAP@@XZ 004ca808     mfc100d:mfc100d.dll
 0004:0000180c       __imp_?GetMessageMap@CWnd@@MBEPBUAFX_MSGMAP@@XZ 004ca80c     mfc100d:mfc100d.dll
 0004:00001810       __imp_?GetTypeLib@CCmdTarget@@UAEJKPAPAUITypeLib@@@Z 004ca810     mfc100d:mfc100d.dll
 0004:00001814       __imp_?GetTypeLibCache@CCmdTarget@@UAEPAVCTypeLibCache@@XZ 004ca814     mfc100d:mfc100d.dll
 0004:00001818       __imp_?GetTypeInfoCount@CCmdTarget@@UAEIXZ 004ca818     mfc100d:mfc100d.dll
 0004:0000181c       __imp_?GetDispatchIID@CCmdTarget@@UAEHPAU_GUID@@@Z 004ca81c     mfc100d:mfc100d.dll
 0004:00001820       __imp_?IsInvokeAllowed@CCmdTarget@@UAEHJ@Z 004ca820     mfc100d:mfc100d.dll
 0004:00001824       __imp_?OnFinalRelease@CWnd@@UAEXXZ 004ca824     mfc100d:mfc100d.dll
 0004:00001828       __imp_?OnCmdMsg@CCmdTarget@@UAEHIHPAXPAUAFX_CMDHANDLERINFO@@@Z 004ca828     mfc100d:mfc100d.dll
 0004:0000182c       __imp_?Dump@CWnd@@UBEXAAVCDumpContext@@@Z 004ca82c     mfc100d:mfc100d.dll
 0004:00001830       __imp_?AssertValid@CWnd@@UBEXXZ 004ca830     mfc100d:mfc100d.dll
 0004:00001834       __imp_?Serialize@CObject@@UAEXAAVCArchive@@@Z 004ca834     mfc100d:mfc100d.dll
 0004:00001838       __imp_??0CWnd@@QAE@XZ      004ca838     mfc100d:mfc100d.dll
 0004:0000183c       __imp_??2CObject@@SGPAXI@Z 004ca83c     mfc100d:mfc100d.dll
 0004:00001840       __imp_??3CObject@@SGXPAX@Z 004ca840     mfc100d:mfc100d.dll
 0004:00001844       __imp_??3@YAXPAX@Z         004ca844     mfc100d:mfc100d.dll
 0004:00001848       __imp_?AfxWinMain@@YGHPAUHINSTANCE__@@0PADH@Z 004ca848     mfc100d:mfc100d.dll
 0004:0000184c       __imp_?GetThisClass@CDocument@@SGPAUCRuntimeClass@@XZ 004ca84c     mfc100d:mfc100d.dll
 0004:00001850       __imp_?OnFinalRelease@CDocument@@UAEXXZ 004ca850     mfc100d:mfc100d.dll
 0004:00001854       \177mfc100d_NULL_THUNK_DATA 004ca854     mfc100d:mfc100d.dll
 0004:000019cc       __imp__olDaGetDASS@16      004ca9cc     oldaapi32:oldaapi32.dll
 0004:000019d0       __imp__olDaSetDataFlow@8   004ca9d0     oldaapi32:oldaapi32.dll
 0004:000019d4       __imp__olDaConfig@4        004ca9d4     oldaapi32:oldaapi32.dll
 0004:000019d8       __imp__olDaPutSingleValue@20 004ca9d8     oldaapi32:oldaapi32.dll
 0004:000019dc       __imp__olDaReleaseDASS@4   004ca9dc     oldaapi32:oldaapi32.dll
 0004:000019e0       __imp__olDaTerminate@4     004ca9e0     oldaapi32:oldaapi32.dll
 0004:000019e4       __imp__olDaInitialize@8    004ca9e4     oldaapi32:oldaapi32.dll
 0004:000019e8       \177oldaapi32_NULL_THUNK_DATA 004ca9e8     oldaapi32:oldaapi32.dll

 entry point at        0001:00023350

